
/home/prrtchr/pico/RPIPICO-M2OSPORT-TFG/build/helloworld.elf:     file format elf32-littlearm

Sections:
Idx Name          Size      VMA       LMA       File off  Algn
  0 .boot2        00000100  10000000  10000000  00001000  2**0
                  CONTENTS, ALLOC, LOAD, READONLY, CODE
  1 .text         00004900  10000100  10000100  00001100  2**3
                  CONTENTS, ALLOC, LOAD, READONLY, CODE
  2 .rodata       000002e4  10004a00  10004a00  00005a00  2**2
                  CONTENTS, ALLOC, LOAD, READONLY, DATA
  3 .binary_info  00000020  10004ce4  10004ce4  00005ce4  2**2
                  CONTENTS, ALLOC, LOAD, DATA
  4 .ram_vector_table 000000c0  20000000  20000000  00006f50  2**2
                  CONTENTS
  5 .data         00000e90  200000c0  10004d04  000060c0  2**4
                  CONTENTS, ALLOC, LOAD, READONLY, CODE
  6 .uninitialized_data 00000000  20000f50  20000f50  00007010  2**0
                  CONTENTS
  7 .scratch_x    00000000  20040000  20040000  00007010  2**0
                  CONTENTS
  8 .scratch_y    00000000  20041000  20041000  00007010  2**0
                  CONTENTS
  9 .bss          00000d88  20000f50  20000f50  00006f50  2**3
                  ALLOC
 10 .heap         00000800  20001cd8  20001cd8  00007010  2**2
                  CONTENTS, READONLY
 11 .stack_dummy  00000800  20041000  20041000  00007820  2**5
                  CONTENTS, READONLY
 12 .ARM.attributes 00000028  00000000  00000000  00008020  2**0
                  CONTENTS, READONLY
 13 .comment      0000009f  00000000  00000000  00008048  2**0
                  CONTENTS, READONLY
 14 .debug_line   00000222  00000000  00000000  000080e7  2**0
                  CONTENTS, READONLY, DEBUGGING, OCTETS
 15 .debug_info   00000999  00000000  00000000  00008309  2**0
                  CONTENTS, READONLY, DEBUGGING, OCTETS
 16 .debug_abbrev 000001fc  00000000  00000000  00008ca2  2**0
                  CONTENTS, READONLY, DEBUGGING, OCTETS
 17 .debug_aranges 00000040  00000000  00000000  00008ea0  2**3
                  CONTENTS, READONLY, DEBUGGING, OCTETS
 18 .debug_str    00000613  00000000  00000000  00008ee0  2**0
                  CONTENTS, READONLY, DEBUGGING, OCTETS
 19 .debug_loc    000000a3  00000000  00000000  000094f3  2**0
                  CONTENTS, READONLY, DEBUGGING, OCTETS
 20 .debug_frame  00000028  00000000  00000000  00009598  2**2
                  CONTENTS, READONLY, DEBUGGING, OCTETS

/home/prrtchr/pico/RPIPICO-M2OSPORT-TFG/build/helloworld.elf:     file format elf32-littlearm


Disassembly of section .boot2:

10000000 <__boot2_start__>:
10000000:	4b32b500 	.word	0x4b32b500
10000004:	60582021 	.word	0x60582021
10000008:	21026898 	.word	0x21026898
1000000c:	60984388 	.word	0x60984388
10000010:	611860d8 	.word	0x611860d8
10000014:	4b2e6158 	.word	0x4b2e6158
10000018:	60992100 	.word	0x60992100
1000001c:	61592102 	.word	0x61592102
10000020:	22f02101 	.word	0x22f02101
10000024:	492b5099 	.word	0x492b5099
10000028:	21016019 	.word	0x21016019
1000002c:	20356099 	.word	0x20356099
10000030:	f844f000 	.word	0xf844f000
10000034:	42902202 	.word	0x42902202
10000038:	2106d014 	.word	0x2106d014
1000003c:	f0006619 	.word	0xf0006619
10000040:	6e19f834 	.word	0x6e19f834
10000044:	66192101 	.word	0x66192101
10000048:	66182000 	.word	0x66182000
1000004c:	f000661a 	.word	0xf000661a
10000050:	6e19f82c 	.word	0x6e19f82c
10000054:	6e196e19 	.word	0x6e196e19
10000058:	f0002005 	.word	0xf0002005
1000005c:	2101f82f 	.word	0x2101f82f
10000060:	d1f94208 	.word	0xd1f94208
10000064:	60992100 	.word	0x60992100
10000068:	6019491b 	.word	0x6019491b
1000006c:	60592100 	.word	0x60592100
10000070:	481b491a 	.word	0x481b491a
10000074:	21016001 	.word	0x21016001
10000078:	21eb6099 	.word	0x21eb6099
1000007c:	21a06619 	.word	0x21a06619
10000080:	f0006619 	.word	0xf0006619
10000084:	2100f812 	.word	0x2100f812
10000088:	49166099 	.word	0x49166099
1000008c:	60014814 	.word	0x60014814
10000090:	60992101 	.word	0x60992101
10000094:	2800bc01 	.word	0x2800bc01
10000098:	4700d000 	.word	0x4700d000
1000009c:	49134812 	.word	0x49134812
100000a0:	c8036008 	.word	0xc8036008
100000a4:	8808f380 	.word	0x8808f380
100000a8:	b5034708 	.word	0xb5034708
100000ac:	20046a99 	.word	0x20046a99
100000b0:	d0fb4201 	.word	0xd0fb4201
100000b4:	42012001 	.word	0x42012001
100000b8:	bd03d1f8 	.word	0xbd03d1f8
100000bc:	6618b502 	.word	0x6618b502
100000c0:	f7ff6618 	.word	0xf7ff6618
100000c4:	6e18fff2 	.word	0x6e18fff2
100000c8:	bd026e18 	.word	0xbd026e18
100000cc:	40020000 	.word	0x40020000
100000d0:	18000000 	.word	0x18000000
100000d4:	00070000 	.word	0x00070000
100000d8:	005f0300 	.word	0x005f0300
100000dc:	00002221 	.word	0x00002221
100000e0:	180000f4 	.word	0x180000f4
100000e4:	a0002022 	.word	0xa0002022
100000e8:	10000100 	.word	0x10000100
100000ec:	e000ed08 	.word	0xe000ed08
	...
100000fc:	7a4eb274 	.word	0x7a4eb274

Disassembly of section .text:

10000100 <__VECTOR_TABLE>:
10000100:	20042000 	.word	0x20042000
10000104:	100001f7 	.word	0x100001f7
10000108:	100001c3 	.word	0x100001c3
1000010c:	100001c5 	.word	0x100001c5
10000110:	100001c1 	.word	0x100001c1
10000114:	100001c1 	.word	0x100001c1
10000118:	100001c1 	.word	0x100001c1
1000011c:	100001c1 	.word	0x100001c1
10000120:	100001c1 	.word	0x100001c1
10000124:	100001c1 	.word	0x100001c1
10000128:	100001c1 	.word	0x100001c1
1000012c:	100001c7 	.word	0x100001c7
10000130:	100001c1 	.word	0x100001c1
10000134:	100001c1 	.word	0x100001c1
10000138:	100001c9 	.word	0x100001c9
1000013c:	100001cb 	.word	0x100001cb
10000140:	100001cd 	.word	0x100001cd
10000144:	100001cd 	.word	0x100001cd
10000148:	100001cd 	.word	0x100001cd
1000014c:	100001cd 	.word	0x100001cd
10000150:	100001cd 	.word	0x100001cd
10000154:	100001cd 	.word	0x100001cd
10000158:	100001cd 	.word	0x100001cd
1000015c:	100001cd 	.word	0x100001cd
10000160:	100001cd 	.word	0x100001cd
10000164:	100001cd 	.word	0x100001cd
10000168:	100001cd 	.word	0x100001cd
1000016c:	100001cd 	.word	0x100001cd
10000170:	100001cd 	.word	0x100001cd
10000174:	100001cd 	.word	0x100001cd
10000178:	100001cd 	.word	0x100001cd
1000017c:	100001cd 	.word	0x100001cd
10000180:	100001cd 	.word	0x100001cd
10000184:	100001cd 	.word	0x100001cd
10000188:	100001cd 	.word	0x100001cd
1000018c:	100001cd 	.word	0x100001cd
10000190:	100001cd 	.word	0x100001cd
10000194:	100001cd 	.word	0x100001cd
10000198:	100001cd 	.word	0x100001cd
1000019c:	100001cd 	.word	0x100001cd
100001a0:	100001cd 	.word	0x100001cd
100001a4:	100001cd 	.word	0x100001cd
100001a8:	100001cd 	.word	0x100001cd
100001ac:	100001cd 	.word	0x100001cd
100001b0:	100001cd 	.word	0x100001cd
100001b4:	100001cd 	.word	0x100001cd
100001b8:	100001cd 	.word	0x100001cd
100001bc:	100001cd 	.word	0x100001cd

100001c0 <isr_invalid>:
100001c0:	be00      	bkpt	0x0000

100001c2 <isr_nmi>:
100001c2:	be00      	bkpt	0x0000

100001c4 <isr_hardfault>:
100001c4:	be00      	bkpt	0x0000

100001c6 <isr_svcall>:
100001c6:	be00      	bkpt	0x0000

100001c8 <isr_pendsv>:
100001c8:	be00      	bkpt	0x0000

100001ca <isr_systick>:
100001ca:	be00      	bkpt	0x0000

100001cc <__unhandled_user_irq>:
100001cc:	f3ef 8005 	mrs	r0, IPSR
100001d0:	3810      	subs	r0, #16

100001d2 <unhandled_user_irq_num_in_r0>:
100001d2:	be00      	bkpt	0x0000

100001d4 <binary_info_header>:
100001d4:	7188ebf2 	.word	0x7188ebf2
100001d8:	10004ce4 	.word	0x10004ce4
100001dc:	10004d04 	.word	0x10004d04
100001e0:	10000234 	.word	0x10000234
100001e4:	e71aa390 	.word	0xe71aa390

100001e8 <_entry_point>:
100001e8:	2000      	movs	r0, #0
100001ea:	491f      	ldr	r1, [pc, #124]	; (10000268 <hold_non_core0_in_bootrom+0xa>)
100001ec:	6008      	str	r0, [r1, #0]
100001ee:	c806      	ldmia	r0!, {r1, r2}
100001f0:	f381 8808 	msr	MSP, r1
100001f4:	4710      	bx	r2

100001f6 <_reset_handler>:
100001f6:	481d      	ldr	r0, [pc, #116]	; (1000026c <hold_non_core0_in_bootrom+0xe>)
100001f8:	6800      	ldr	r0, [r0, #0]
100001fa:	2800      	cmp	r0, #0
100001fc:	d12f      	bne.n	1000025e <hold_non_core0_in_bootrom>
100001fe:	a40d      	add	r4, pc, #52	; (adr r4, 10000234 <data_cpy_table>)
10000200:	cc0e      	ldmia	r4!, {r1, r2, r3}
10000202:	2900      	cmp	r1, #0
10000204:	d002      	beq.n	1000020c <_reset_handler+0x16>
10000206:	f000 f812 	bl	1000022e <data_cpy>
1000020a:	e7f9      	b.n	10000200 <_reset_handler+0xa>
1000020c:	4918      	ldr	r1, [pc, #96]	; (10000270 <hold_non_core0_in_bootrom+0x12>)
1000020e:	4a19      	ldr	r2, [pc, #100]	; (10000274 <hold_non_core0_in_bootrom+0x16>)
10000210:	2000      	movs	r0, #0
10000212:	e000      	b.n	10000216 <bss_fill_test>

10000214 <bss_fill_loop>:
10000214:	c101      	stmia	r1!, {r0}

10000216 <bss_fill_test>:
10000216:	4291      	cmp	r1, r2
10000218:	d1fc      	bne.n	10000214 <bss_fill_loop>

1000021a <platform_entry>:
1000021a:	4917      	ldr	r1, [pc, #92]	; (10000278 <hold_non_core0_in_bootrom+0x1a>)
1000021c:	4788      	blx	r1
1000021e:	4917      	ldr	r1, [pc, #92]	; (1000027c <hold_non_core0_in_bootrom+0x1e>)
10000220:	4788      	blx	r1
10000222:	4917      	ldr	r1, [pc, #92]	; (10000280 <hold_non_core0_in_bootrom+0x22>)
10000224:	4788      	blx	r1
10000226:	be00      	bkpt	0x0000
10000228:	e7fd      	b.n	10000226 <platform_entry+0xc>

1000022a <data_cpy_loop>:
1000022a:	c901      	ldmia	r1!, {r0}
1000022c:	c201      	stmia	r2!, {r0}

1000022e <data_cpy>:
1000022e:	429a      	cmp	r2, r3
10000230:	d3fb      	bcc.n	1000022a <data_cpy_loop>
10000232:	4770      	bx	lr

10000234 <data_cpy_table>:
10000234:	10004d04 	.word	0x10004d04
10000238:	200000c0 	.word	0x200000c0
1000023c:	20000f50 	.word	0x20000f50
10000240:	10005b94 	.word	0x10005b94
10000244:	20040000 	.word	0x20040000
10000248:	20040000 	.word	0x20040000
1000024c:	10005b94 	.word	0x10005b94
10000250:	20041000 	.word	0x20041000
10000254:	20041000 	.word	0x20041000
10000258:	00000000 	.word	0x00000000
1000025c:	4770      	bx	lr

1000025e <hold_non_core0_in_bootrom>:
1000025e:	4809      	ldr	r0, [pc, #36]	; (10000284 <hold_non_core0_in_bootrom+0x26>)
10000260:	f001 fece 	bl	10002000 <rom_func_lookup>
10000264:	4700      	bx	r0
10000266:	0000      	.short	0x0000
10000268:	e000ed08 	.word	0xe000ed08
1000026c:	d0000000 	.word	0xd0000000
10000270:	20000f50 	.word	0x20000f50
10000274:	20001cd8 	.word	0x20001cd8
10000278:	10001e75 	.word	0x10001e75
1000027c:	10000355 	.word	0x10000355
10000280:	10001f6d 	.word	0x10001f6d
10000284:	00005657 	.word	0x00005657

10000288 <__bi_50>:
10000288:	50520006 5360b3ab 10004ac8              ..RP..`S.J..

10000294 <__bi_38>:
10000294:	50520006 02031c86 10004ad8              ..RP.....J..

100002a0 <__bi_30>:
100002a0:	50520006 9da22254 10004ae4              ..RPT"...J..

100002ac <__bi_22>:
100002ac:	50520005 68f465de 10005b94              ..RP.e.h.[..

100002b8 <_init>:
100002b8:	b5f8      	push	{r3, r4, r5, r6, r7, lr}
100002ba:	46c0      	nop			; (mov r8, r8)

100002bc <deregister_tm_clones>:
100002bc:	4804      	ldr	r0, [pc, #16]	; (100002d0 <deregister_tm_clones+0x14>)
100002be:	4b05      	ldr	r3, [pc, #20]	; (100002d4 <deregister_tm_clones+0x18>)
100002c0:	b510      	push	{r4, lr}
100002c2:	4283      	cmp	r3, r0
100002c4:	d003      	beq.n	100002ce <deregister_tm_clones+0x12>
100002c6:	4b04      	ldr	r3, [pc, #16]	; (100002d8 <deregister_tm_clones+0x1c>)
100002c8:	2b00      	cmp	r3, #0
100002ca:	d000      	beq.n	100002ce <deregister_tm_clones+0x12>
100002cc:	4798      	blx	r3
100002ce:	bd10      	pop	{r4, pc}
100002d0:	20000f50 	.word	0x20000f50
100002d4:	20000f50 	.word	0x20000f50
100002d8:	00000000 	.word	0x00000000

100002dc <register_tm_clones>:
100002dc:	4806      	ldr	r0, [pc, #24]	; (100002f8 <register_tm_clones+0x1c>)
100002de:	4907      	ldr	r1, [pc, #28]	; (100002fc <register_tm_clones+0x20>)
100002e0:	1a09      	subs	r1, r1, r0
100002e2:	1089      	asrs	r1, r1, #2
100002e4:	0fcb      	lsrs	r3, r1, #31
100002e6:	1859      	adds	r1, r3, r1
100002e8:	b510      	push	{r4, lr}
100002ea:	1049      	asrs	r1, r1, #1
100002ec:	d003      	beq.n	100002f6 <register_tm_clones+0x1a>
100002ee:	4b04      	ldr	r3, [pc, #16]	; (10000300 <register_tm_clones+0x24>)
100002f0:	2b00      	cmp	r3, #0
100002f2:	d000      	beq.n	100002f6 <register_tm_clones+0x1a>
100002f4:	4798      	blx	r3
100002f6:	bd10      	pop	{r4, pc}
100002f8:	20000f50 	.word	0x20000f50
100002fc:	20000f50 	.word	0x20000f50
10000300:	00000000 	.word	0x00000000

10000304 <__do_global_dtors_aux>:
10000304:	b510      	push	{r4, lr}
10000306:	4c07      	ldr	r4, [pc, #28]	; (10000324 <__do_global_dtors_aux+0x20>)
10000308:	7823      	ldrb	r3, [r4, #0]
1000030a:	2b00      	cmp	r3, #0
1000030c:	d109      	bne.n	10000322 <__do_global_dtors_aux+0x1e>
1000030e:	f7ff ffd5 	bl	100002bc <deregister_tm_clones>
10000312:	4b05      	ldr	r3, [pc, #20]	; (10000328 <__do_global_dtors_aux+0x24>)
10000314:	2b00      	cmp	r3, #0
10000316:	d002      	beq.n	1000031e <__do_global_dtors_aux+0x1a>
10000318:	4804      	ldr	r0, [pc, #16]	; (1000032c <__do_global_dtors_aux+0x28>)
1000031a:	e000      	b.n	1000031e <__do_global_dtors_aux+0x1a>
1000031c:	bf00      	nop
1000031e:	2301      	movs	r3, #1
10000320:	7023      	strb	r3, [r4, #0]
10000322:	bd10      	pop	{r4, pc}
10000324:	20001058 	.word	0x20001058
10000328:	00000000 	.word	0x00000000
1000032c:	10004a00 	.word	0x10004a00

10000330 <frame_dummy>:
10000330:	4b05      	ldr	r3, [pc, #20]	; (10000348 <frame_dummy+0x18>)
10000332:	b510      	push	{r4, lr}
10000334:	2b00      	cmp	r3, #0
10000336:	d003      	beq.n	10000340 <frame_dummy+0x10>
10000338:	4904      	ldr	r1, [pc, #16]	; (1000034c <frame_dummy+0x1c>)
1000033a:	4805      	ldr	r0, [pc, #20]	; (10000350 <frame_dummy+0x20>)
1000033c:	e000      	b.n	10000340 <frame_dummy+0x10>
1000033e:	bf00      	nop
10000340:	f7ff ffcc 	bl	100002dc <register_tm_clones>
10000344:	bd10      	pop	{r4, pc}
10000346:	46c0      	nop			; (mov r8, r8)
10000348:	00000000 	.word	0x00000000
1000034c:	2000105c 	.word	0x2000105c
10000350:	10004a00 	.word	0x10004a00

10000354 <main>:
10000354:	b510      	push	{r4, lr}
10000356:	f002 f8f5 	bl	10002544 <stdio_init_all>
1000035a:	4c04      	ldr	r4, [pc, #16]	; (1000036c <main+0x18>)
1000035c:	0020      	movs	r0, r4
1000035e:	f002 f8bb 	bl	100024d8 <__wrap_puts>
10000362:	20fa      	movs	r0, #250	; 0xfa
10000364:	0080      	lsls	r0, r0, #2
10000366:	f000 fe93 	bl	10001090 <sleep_ms>
1000036a:	e7f7      	b.n	1000035c <main+0x8>
1000036c:	10004a00 	.word	0x10004a00

10000370 <running_on_fpga>:
10000370:	4b02      	ldr	r3, [pc, #8]	; (1000037c <running_on_fpga+0xc>)
10000372:	6818      	ldr	r0, [r3, #0]
10000374:	0780      	lsls	r0, r0, #30
10000376:	0fc0      	lsrs	r0, r0, #31
10000378:	4770      	bx	lr
1000037a:	46c0      	nop			; (mov r8, r8)
1000037c:	4006c000 	.word	0x4006c000

10000380 <hw_claim_or_assert>:
10000380:	b5f8      	push	{r3, r4, r5, r6, r7, lr}
10000382:	f3ef 8710 	mrs	r7, PRIMASK
10000386:	b672      	cpsid	i
10000388:	4e0d      	ldr	r6, [pc, #52]	; (100003c0 <hw_claim_or_assert+0x40>)
1000038a:	6833      	ldr	r3, [r6, #0]
1000038c:	2b00      	cmp	r3, #0
1000038e:	d0fc      	beq.n	1000038a <hw_claim_or_assert+0xa>
10000390:	f3bf 8f5f 	dmb	sy
10000394:	2507      	movs	r5, #7
10000396:	08cb      	lsrs	r3, r1, #3
10000398:	18c0      	adds	r0, r0, r3
1000039a:	2301      	movs	r3, #1
1000039c:	400d      	ands	r5, r1
1000039e:	40ab      	lsls	r3, r5
100003a0:	001d      	movs	r5, r3
100003a2:	7804      	ldrb	r4, [r0, #0]
100003a4:	4025      	ands	r5, r4
100003a6:	d107      	bne.n	100003b8 <hw_claim_or_assert+0x38>
100003a8:	4323      	orrs	r3, r4
100003aa:	7003      	strb	r3, [r0, #0]
100003ac:	f3bf 8f5f 	dmb	sy
100003b0:	6035      	str	r5, [r6, #0]
100003b2:	f387 8810 	msr	PRIMASK, r7
100003b6:	bdf8      	pop	{r3, r4, r5, r6, r7, pc}
100003b8:	0010      	movs	r0, r2
100003ba:	f001 fddb 	bl	10001f74 <panic>
100003be:	46c0      	nop			; (mov r8, r8)
100003c0:	d000012c 	.word	0xd000012c

100003c4 <hw_claim_unused_from_range>:
100003c4:	b5f8      	push	{r3, r4, r5, r6, r7, lr}
100003c6:	46ce      	mov	lr, r9
100003c8:	4647      	mov	r7, r8
100003ca:	468c      	mov	ip, r1
100003cc:	b580      	push	{r7, lr}
100003ce:	f3ef 8810 	mrs	r8, PRIMASK
100003d2:	b672      	cpsid	i
100003d4:	4d21      	ldr	r5, [pc, #132]	; (1000045c <hw_claim_unused_from_range+0x98>)
100003d6:	682c      	ldr	r4, [r5, #0]
100003d8:	2c00      	cmp	r4, #0
100003da:	d0fc      	beq.n	100003d6 <hw_claim_unused_from_range+0x12>
100003dc:	f3bf 8f5f 	dmb	sy
100003e0:	429a      	cmp	r2, r3
100003e2:	d82c      	bhi.n	1000043e <hw_claim_unused_from_range+0x7a>
100003e4:	2107      	movs	r1, #7
100003e6:	2501      	movs	r5, #1
100003e8:	4011      	ands	r1, r2
100003ea:	408d      	lsls	r5, r1
100003ec:	08d4      	lsrs	r4, r2, #3
100003ee:	1904      	adds	r4, r0, r4
100003f0:	7826      	ldrb	r6, [r4, #0]
100003f2:	4235      	tst	r5, r6
100003f4:	d01f      	beq.n	10000436 <hw_claim_unused_from_range+0x72>
100003f6:	2107      	movs	r1, #7
100003f8:	4689      	mov	r9, r1
100003fa:	3906      	subs	r1, #6
100003fc:	e009      	b.n	10000412 <hw_claim_unused_from_range+0x4e>
100003fe:	464d      	mov	r5, r9
10000400:	000f      	movs	r7, r1
10000402:	4015      	ands	r5, r2
10000404:	40af      	lsls	r7, r5
10000406:	08d4      	lsrs	r4, r2, #3
10000408:	1904      	adds	r4, r0, r4
1000040a:	7826      	ldrb	r6, [r4, #0]
1000040c:	003d      	movs	r5, r7
1000040e:	4237      	tst	r7, r6
10000410:	d011      	beq.n	10000436 <hw_claim_unused_from_range+0x72>
10000412:	3201      	adds	r2, #1
10000414:	4293      	cmp	r3, r2
10000416:	d2f2      	bcs.n	100003fe <hw_claim_unused_from_range+0x3a>
10000418:	2001      	movs	r0, #1
1000041a:	4240      	negs	r0, r0
1000041c:	f3bf 8f5f 	dmb	sy
10000420:	2200      	movs	r2, #0
10000422:	4b0e      	ldr	r3, [pc, #56]	; (1000045c <hw_claim_unused_from_range+0x98>)
10000424:	601a      	str	r2, [r3, #0]
10000426:	f388 8810 	msr	PRIMASK, r8
1000042a:	2800      	cmp	r0, #0
1000042c:	db0f      	blt.n	1000044e <hw_claim_unused_from_range+0x8a>
1000042e:	bc0c      	pop	{r2, r3}
10000430:	4690      	mov	r8, r2
10000432:	4699      	mov	r9, r3
10000434:	bdf8      	pop	{r3, r4, r5, r6, r7, pc}
10000436:	4335      	orrs	r5, r6
10000438:	7025      	strb	r5, [r4, #0]
1000043a:	0010      	movs	r0, r2
1000043c:	e7ee      	b.n	1000041c <hw_claim_unused_from_range+0x58>
1000043e:	f3bf 8f5f 	dmb	sy
10000442:	2300      	movs	r3, #0
10000444:	602b      	str	r3, [r5, #0]
10000446:	f388 8810 	msr	PRIMASK, r8
1000044a:	2001      	movs	r0, #1
1000044c:	4240      	negs	r0, r0
1000044e:	4663      	mov	r3, ip
10000450:	2b00      	cmp	r3, #0
10000452:	d0ec      	beq.n	1000042e <hw_claim_unused_from_range+0x6a>
10000454:	9808      	ldr	r0, [sp, #32]
10000456:	f001 fd8d 	bl	10001f74 <panic>
1000045a:	46c0      	nop			; (mov r8, r8)
1000045c:	d000012c 	.word	0xd000012c

10000460 <spin_locks_reset>:
10000460:	2100      	movs	r1, #0
10000462:	4b04      	ldr	r3, [pc, #16]	; (10000474 <spin_locks_reset+0x14>)
10000464:	4a04      	ldr	r2, [pc, #16]	; (10000478 <spin_locks_reset+0x18>)
10000466:	f3bf 8f5f 	dmb	sy
1000046a:	c302      	stmia	r3!, {r1}
1000046c:	4293      	cmp	r3, r2
1000046e:	d1fa      	bne.n	10000466 <spin_locks_reset+0x6>
10000470:	4770      	bx	lr
10000472:	46c0      	nop			; (mov r8, r8)
10000474:	d0000100 	.word	0xd0000100
10000478:	d0000180 	.word	0xd0000180

1000047c <next_striped_spin_lock_num>:
1000047c:	4a04      	ldr	r2, [pc, #16]	; (10000490 <next_striped_spin_lock_num+0x14>)
1000047e:	7810      	ldrb	r0, [r2, #0]
10000480:	1c43      	adds	r3, r0, #1
10000482:	b2db      	uxtb	r3, r3
10000484:	2b17      	cmp	r3, #23
10000486:	d900      	bls.n	1000048a <next_striped_spin_lock_num+0xe>
10000488:	2310      	movs	r3, #16
1000048a:	7013      	strb	r3, [r2, #0]
1000048c:	4770      	bx	lr
1000048e:	46c0      	nop			; (mov r8, r8)
10000490:	20000e50 	.word	0x20000e50

10000494 <spin_lock_claim_unused>:
10000494:	b500      	push	{lr}
10000496:	4b05      	ldr	r3, [pc, #20]	; (100004ac <spin_lock_claim_unused+0x18>)
10000498:	b083      	sub	sp, #12
1000049a:	0001      	movs	r1, r0
1000049c:	9300      	str	r3, [sp, #0]
1000049e:	2218      	movs	r2, #24
100004a0:	231f      	movs	r3, #31
100004a2:	4803      	ldr	r0, [pc, #12]	; (100004b0 <spin_lock_claim_unused+0x1c>)
100004a4:	f7ff ff8e 	bl	100003c4 <hw_claim_unused_from_range>
100004a8:	b003      	add	sp, #12
100004aa:	bd00      	pop	{pc}
100004ac:	10004a10 	.word	0x10004a10
100004b0:	20001510 	.word	0x20001510

100004b4 <irq_set_enabled>:
100004b4:	2301      	movs	r3, #1
100004b6:	4083      	lsls	r3, r0
100004b8:	2900      	cmp	r1, #0
100004ba:	d004      	beq.n	100004c6 <irq_set_enabled+0x12>
100004bc:	4a03      	ldr	r2, [pc, #12]	; (100004cc <irq_set_enabled+0x18>)
100004be:	6013      	str	r3, [r2, #0]
100004c0:	4a03      	ldr	r2, [pc, #12]	; (100004d0 <irq_set_enabled+0x1c>)
100004c2:	6013      	str	r3, [r2, #0]
100004c4:	4770      	bx	lr
100004c6:	4a03      	ldr	r2, [pc, #12]	; (100004d4 <irq_set_enabled+0x20>)
100004c8:	6013      	str	r3, [r2, #0]
100004ca:	e7fb      	b.n	100004c4 <irq_set_enabled+0x10>
100004cc:	e000e280 	.word	0xe000e280
100004d0:	e000e100 	.word	0xe000e100
100004d4:	e000e180 	.word	0xe000e180

100004d8 <irq_set_pending>:
100004d8:	2301      	movs	r3, #1
100004da:	4083      	lsls	r3, r0
100004dc:	4a01      	ldr	r2, [pc, #4]	; (100004e4 <irq_set_pending+0xc>)
100004de:	6013      	str	r3, [r2, #0]
100004e0:	4770      	bx	lr
100004e2:	46c0      	nop			; (mov r8, r8)
100004e4:	e000e200 	.word	0xe000e200

100004e8 <irq_has_shared_handler>:
100004e8:	4b08      	ldr	r3, [pc, #32]	; (1000050c <irq_has_shared_handler+0x24>)
100004ea:	3010      	adds	r0, #16
100004ec:	689b      	ldr	r3, [r3, #8]
100004ee:	0080      	lsls	r0, r0, #2
100004f0:	58c3      	ldr	r3, [r0, r3]
100004f2:	2b00      	cmp	r3, #0
100004f4:	d007      	beq.n	10000506 <irq_has_shared_handler+0x1e>
100004f6:	4a06      	ldr	r2, [pc, #24]	; (10000510 <irq_has_shared_handler+0x28>)
100004f8:	2000      	movs	r0, #0
100004fa:	1a9b      	subs	r3, r3, r2
100004fc:	222f      	movs	r2, #47	; 0x2f
100004fe:	429a      	cmp	r2, r3
10000500:	4140      	adcs	r0, r0
10000502:	b2c0      	uxtb	r0, r0
10000504:	4770      	bx	lr
10000506:	2000      	movs	r0, #0
10000508:	e7fc      	b.n	10000504 <irq_has_shared_handler+0x1c>
1000050a:	46c0      	nop			; (mov r8, r8)
1000050c:	e000ed00 	.word	0xe000ed00
10000510:	20000e54 	.word	0x20000e54

10000514 <irq_get_vtable_handler>:
10000514:	4b02      	ldr	r3, [pc, #8]	; (10000520 <irq_get_vtable_handler+0xc>)
10000516:	3010      	adds	r0, #16
10000518:	689b      	ldr	r3, [r3, #8]
1000051a:	0080      	lsls	r0, r0, #2
1000051c:	58c0      	ldr	r0, [r0, r3]
1000051e:	4770      	bx	lr
10000520:	e000ed00 	.word	0xe000ed00

10000524 <irq_set_exclusive_handler>:
10000524:	b570      	push	{r4, r5, r6, lr}
10000526:	000d      	movs	r5, r1
10000528:	f3ef 8610 	mrs	r6, PRIMASK
1000052c:	b672      	cpsid	i
1000052e:	4a0f      	ldr	r2, [pc, #60]	; (1000056c <irq_set_exclusive_handler+0x48>)
10000530:	6813      	ldr	r3, [r2, #0]
10000532:	2b00      	cmp	r3, #0
10000534:	d0fc      	beq.n	10000530 <irq_set_exclusive_handler+0xc>
10000536:	f3bf 8f5f 	dmb	sy
1000053a:	4b0d      	ldr	r3, [pc, #52]	; (10000570 <irq_set_exclusive_handler+0x4c>)
1000053c:	3010      	adds	r0, #16
1000053e:	689b      	ldr	r3, [r3, #8]
10000540:	0084      	lsls	r4, r0, #2
10000542:	591b      	ldr	r3, [r3, r4]
10000544:	4a0b      	ldr	r2, [pc, #44]	; (10000574 <irq_set_exclusive_handler+0x50>)
10000546:	4293      	cmp	r3, r2
10000548:	d003      	beq.n	10000552 <irq_set_exclusive_handler+0x2e>
1000054a:	429d      	cmp	r5, r3
1000054c:	d001      	beq.n	10000552 <irq_set_exclusive_handler+0x2e>
1000054e:	f001 fd29 	bl	10001fa4 <hard_assertion_failure>
10000552:	4b07      	ldr	r3, [pc, #28]	; (10000570 <irq_set_exclusive_handler+0x4c>)
10000554:	689b      	ldr	r3, [r3, #8]
10000556:	511d      	str	r5, [r3, r4]
10000558:	f3bf 8f5f 	dmb	sy
1000055c:	f3bf 8f5f 	dmb	sy
10000560:	2200      	movs	r2, #0
10000562:	4b02      	ldr	r3, [pc, #8]	; (1000056c <irq_set_exclusive_handler+0x48>)
10000564:	601a      	str	r2, [r3, #0]
10000566:	f386 8810 	msr	PRIMASK, r6
1000056a:	bd70      	pop	{r4, r5, r6, pc}
1000056c:	d0000124 	.word	0xd0000124
10000570:	e000ed00 	.word	0xe000ed00
10000574:	100001cd 	.word	0x100001cd

10000578 <irq_add_shared_handler>:
10000578:	b5f8      	push	{r3, r4, r5, r6, r7, lr}
1000057a:	4657      	mov	r7, sl
1000057c:	4645      	mov	r5, r8
1000057e:	46de      	mov	lr, fp
10000580:	464e      	mov	r6, r9
10000582:	468a      	mov	sl, r1
10000584:	b5e0      	push	{r5, r6, r7, lr}
10000586:	4690      	mov	r8, r2
10000588:	0007      	movs	r7, r0
1000058a:	f3ef 8910 	mrs	r9, PRIMASK
1000058e:	b672      	cpsid	i
10000590:	4a5f      	ldr	r2, [pc, #380]	; (10000710 <irq_add_shared_handler+0x198>)
10000592:	6813      	ldr	r3, [r2, #0]
10000594:	2b00      	cmp	r3, #0
10000596:	d0fc      	beq.n	10000592 <irq_add_shared_handler+0x1a>
10000598:	f3bf 8f5f 	dmb	sy
1000059c:	2000      	movs	r0, #0
1000059e:	4b5d      	ldr	r3, [pc, #372]	; (10000714 <irq_add_shared_handler+0x19c>)
100005a0:	5618      	ldrsb	r0, [r3, r0]
100005a2:	469b      	mov	fp, r3
100005a4:	2800      	cmp	r0, #0
100005a6:	da00      	bge.n	100005aa <irq_add_shared_handler+0x32>
100005a8:	e0a2      	b.n	100006f0 <irq_add_shared_handler+0x178>
100005aa:	465a      	mov	r2, fp
100005ac:	0044      	lsls	r4, r0, #1
100005ae:	4d5a      	ldr	r5, [pc, #360]	; (10000718 <irq_add_shared_handler+0x1a0>)
100005b0:	1824      	adds	r4, r4, r0
100005b2:	00a4      	lsls	r4, r4, #2
100005b4:	192e      	adds	r6, r5, r4
100005b6:	79b3      	ldrb	r3, [r6, #6]
100005b8:	3710      	adds	r7, #16
100005ba:	7013      	strb	r3, [r2, #0]
100005bc:	4b57      	ldr	r3, [pc, #348]	; (1000071c <irq_add_shared_handler+0x1a4>)
100005be:	00ba      	lsls	r2, r7, #2
100005c0:	689b      	ldr	r3, [r3, #8]
100005c2:	4693      	mov	fp, r2
100005c4:	5899      	ldr	r1, [r3, r2]
100005c6:	1b4b      	subs	r3, r1, r5
100005c8:	2b2f      	cmp	r3, #47	; 0x2f
100005ca:	d841      	bhi.n	10000650 <irq_add_shared_handler+0xd8>
100005cc:	2301      	movs	r3, #1
100005ce:	000a      	movs	r2, r1
100005d0:	439a      	bics	r2, r3
100005d2:	79d3      	ldrb	r3, [r2, #7]
100005d4:	4694      	mov	ip, r2
100005d6:	4543      	cmp	r3, r8
100005d8:	d914      	bls.n	10000604 <irq_add_shared_handler+0x8c>
100005da:	2706      	movs	r7, #6
100005dc:	57d7      	ldrsb	r7, [r2, r7]
100005de:	0013      	movs	r3, r2
100005e0:	2f00      	cmp	r7, #0
100005e2:	da06      	bge.n	100005f2 <irq_add_shared_handler+0x7a>
100005e4:	e08d      	b.n	10000702 <irq_add_shared_handler+0x18a>
100005e6:	2706      	movs	r7, #6
100005e8:	57df      	ldrsb	r7, [r3, r7]
100005ea:	001a      	movs	r2, r3
100005ec:	2f00      	cmp	r7, #0
100005ee:	da00      	bge.n	100005f2 <irq_add_shared_handler+0x7a>
100005f0:	e087      	b.n	10000702 <irq_add_shared_handler+0x18a>
100005f2:	007b      	lsls	r3, r7, #1
100005f4:	19db      	adds	r3, r3, r7
100005f6:	009b      	lsls	r3, r3, #2
100005f8:	18eb      	adds	r3, r5, r3
100005fa:	79df      	ldrb	r7, [r3, #7]
100005fc:	4547      	cmp	r7, r8
100005fe:	d8f2      	bhi.n	100005e6 <irq_add_shared_handler+0x6e>
10000600:	2a00      	cmp	r2, #0
10000602:	d151      	bne.n	100006a8 <irq_add_shared_handler+0x130>
10000604:	4a46      	ldr	r2, [pc, #280]	; (10000720 <irq_add_shared_handler+0x1a8>)
10000606:	4663      	mov	r3, ip
10000608:	1b5b      	subs	r3, r3, r5
1000060a:	415b      	adcs	r3, r3
1000060c:	435a      	muls	r2, r3
1000060e:	0d12      	lsrs	r2, r2, #20
10000610:	4b44      	ldr	r3, [pc, #272]	; (10000724 <irq_add_shared_handler+0x1ac>)
10000612:	1ca1      	adds	r1, r4, #2
10000614:	8033      	strh	r3, [r6, #0]
10000616:	4b44      	ldr	r3, [pc, #272]	; (10000728 <irq_add_shared_handler+0x1b0>)
10000618:	1869      	adds	r1, r5, r1
1000061a:	3b04      	subs	r3, #4
1000061c:	1a5b      	subs	r3, r3, r1
1000061e:	051b      	lsls	r3, r3, #20
10000620:	4942      	ldr	r1, [pc, #264]	; (1000072c <irq_add_shared_handler+0x1b4>)
10000622:	0d5b      	lsrs	r3, r3, #21
10000624:	430b      	orrs	r3, r1
10000626:	8073      	strh	r3, [r6, #2]
10000628:	4663      	mov	r3, ip
1000062a:	3404      	adds	r4, #4
1000062c:	3b04      	subs	r3, #4
1000062e:	192d      	adds	r5, r5, r4
10000630:	1b5d      	subs	r5, r3, r5
10000632:	4643      	mov	r3, r8
10000634:	052d      	lsls	r5, r5, #20
10000636:	71f3      	strb	r3, [r6, #7]
10000638:	0d6d      	lsrs	r5, r5, #21
1000063a:	4653      	mov	r3, sl
1000063c:	4329      	orrs	r1, r5
1000063e:	80b1      	strh	r1, [r6, #4]
10000640:	71b2      	strb	r2, [r6, #6]
10000642:	2101      	movs	r1, #1
10000644:	4662      	mov	r2, ip
10000646:	60b3      	str	r3, [r6, #8]
10000648:	4b39      	ldr	r3, [pc, #228]	; (10000730 <irq_add_shared_handler+0x1b8>)
1000064a:	4331      	orrs	r1, r6
1000064c:	6013      	str	r3, [r2, #0]
1000064e:	e018      	b.n	10000682 <irq_add_shared_handler+0x10a>
10000650:	4b38      	ldr	r3, [pc, #224]	; (10000734 <irq_add_shared_handler+0x1bc>)
10000652:	4299      	cmp	r1, r3
10000654:	d152      	bne.n	100006fc <irq_add_shared_handler+0x184>
10000656:	4b33      	ldr	r3, [pc, #204]	; (10000724 <irq_add_shared_handler+0x1ac>)
10000658:	3402      	adds	r4, #2
1000065a:	8033      	strh	r3, [r6, #0]
1000065c:	4b32      	ldr	r3, [pc, #200]	; (10000728 <irq_add_shared_handler+0x1b0>)
1000065e:	192d      	adds	r5, r5, r4
10000660:	3b04      	subs	r3, #4
10000662:	1b5d      	subs	r5, r3, r5
10000664:	052d      	lsls	r5, r5, #20
10000666:	4b31      	ldr	r3, [pc, #196]	; (1000072c <irq_add_shared_handler+0x1b4>)
10000668:	0d6d      	lsrs	r5, r5, #21
1000066a:	431d      	orrs	r5, r3
1000066c:	4b32      	ldr	r3, [pc, #200]	; (10000738 <irq_add_shared_handler+0x1c0>)
1000066e:	2101      	movs	r1, #1
10000670:	80b3      	strh	r3, [r6, #4]
10000672:	23ff      	movs	r3, #255	; 0xff
10000674:	71b3      	strb	r3, [r6, #6]
10000676:	4643      	mov	r3, r8
10000678:	71f3      	strb	r3, [r6, #7]
1000067a:	4653      	mov	r3, sl
1000067c:	8075      	strh	r5, [r6, #2]
1000067e:	60b3      	str	r3, [r6, #8]
10000680:	4331      	orrs	r1, r6
10000682:	465a      	mov	r2, fp
10000684:	4b25      	ldr	r3, [pc, #148]	; (1000071c <irq_add_shared_handler+0x1a4>)
10000686:	689b      	ldr	r3, [r3, #8]
10000688:	5099      	str	r1, [r3, r2]
1000068a:	f3bf 8f5f 	dmb	sy
1000068e:	f3bf 8f5f 	dmb	sy
10000692:	2200      	movs	r2, #0
10000694:	4b1e      	ldr	r3, [pc, #120]	; (10000710 <irq_add_shared_handler+0x198>)
10000696:	601a      	str	r2, [r3, #0]
10000698:	f389 8810 	msr	PRIMASK, r9
1000069c:	bc3c      	pop	{r2, r3, r4, r5}
1000069e:	4690      	mov	r8, r2
100006a0:	4699      	mov	r9, r3
100006a2:	46a2      	mov	sl, r4
100006a4:	46ab      	mov	fp, r5
100006a6:	bdf8      	pop	{r3, r4, r5, r6, r7, pc}
100006a8:	2706      	movs	r7, #6
100006aa:	57d7      	ldrsb	r7, [r2, r7]
100006ac:	1d13      	adds	r3, r2, #4
100006ae:	469c      	mov	ip, r3
100006b0:	2f00      	cmp	r7, #0
100006b2:	db2b      	blt.n	1000070c <irq_add_shared_handler+0x194>
100006b4:	3404      	adds	r4, #4
100006b6:	192d      	adds	r5, r5, r4
100006b8:	24e0      	movs	r4, #224	; 0xe0
100006ba:	8893      	ldrh	r3, [r2, #4]
100006bc:	0224      	lsls	r4, r4, #8
100006be:	055b      	lsls	r3, r3, #21
100006c0:	151b      	asrs	r3, r3, #20
100006c2:	4463      	add	r3, ip
100006c4:	1b5b      	subs	r3, r3, r5
100006c6:	051b      	lsls	r3, r3, #20
100006c8:	0d5b      	lsrs	r3, r3, #21
100006ca:	4323      	orrs	r3, r4
100006cc:	4665      	mov	r5, ip
100006ce:	1f34      	subs	r4, r6, #4
100006d0:	1b64      	subs	r4, r4, r5
100006d2:	0524      	lsls	r4, r4, #20
100006d4:	4d15      	ldr	r5, [pc, #84]	; (1000072c <irq_add_shared_handler+0x1b4>)
100006d6:	0d64      	lsrs	r4, r4, #21
100006d8:	432c      	orrs	r4, r5
100006da:	8094      	strh	r4, [r2, #4]
100006dc:	7190      	strb	r0, [r2, #6]
100006de:	80b3      	strh	r3, [r6, #4]
100006e0:	4643      	mov	r3, r8
100006e2:	71f3      	strb	r3, [r6, #7]
100006e4:	4653      	mov	r3, sl
100006e6:	4a12      	ldr	r2, [pc, #72]	; (10000730 <irq_add_shared_handler+0x1b8>)
100006e8:	71b7      	strb	r7, [r6, #6]
100006ea:	6032      	str	r2, [r6, #0]
100006ec:	60b3      	str	r3, [r6, #8]
100006ee:	e7c8      	b.n	10000682 <irq_add_shared_handler+0x10a>
100006f0:	f001 fc58 	bl	10001fa4 <hard_assertion_failure>
100006f4:	465b      	mov	r3, fp
100006f6:	2000      	movs	r0, #0
100006f8:	5618      	ldrsb	r0, [r3, r0]
100006fa:	e756      	b.n	100005aa <irq_add_shared_handler+0x32>
100006fc:	f001 fc52 	bl	10001fa4 <hard_assertion_failure>
10000700:	e7a9      	b.n	10000656 <irq_add_shared_handler+0xde>
10000702:	1d1a      	adds	r2, r3, #4
10000704:	4694      	mov	ip, r2
10000706:	001a      	movs	r2, r3
10000708:	4b0c      	ldr	r3, [pc, #48]	; (1000073c <irq_add_shared_handler+0x1c4>)
1000070a:	e7df      	b.n	100006cc <irq_add_shared_handler+0x154>
1000070c:	4b0b      	ldr	r3, [pc, #44]	; (1000073c <irq_add_shared_handler+0x1c4>)
1000070e:	e7dd      	b.n	100006cc <irq_add_shared_handler+0x154>
10000710:	d0000124 	.word	0xd0000124
10000714:	20001a11 	.word	0x20001a11
10000718:	20000e54 	.word	0x20000e54
1000071c:	e000ed00 	.word	0xe000ed00
10000720:	0000aaaa 	.word	0x0000aaaa
10000724:	ffffa100 	.word	0xffffa100
10000728:	20000e84 	.word	0x20000e84
1000072c:	ffffe000 	.word	0xffffe000
10000730:	47804801 	.word	0x47804801
10000734:	100001cd 	.word	0x100001cd
10000738:	ffffbd01 	.word	0xffffbd01
1000073c:	0000bd01 	.word	0x0000bd01

10000740 <irq_remove_handler>:
10000740:	b5f0      	push	{r4, r5, r6, r7, lr}
10000742:	4645      	mov	r5, r8
10000744:	46de      	mov	lr, fp
10000746:	4657      	mov	r7, sl
10000748:	464e      	mov	r6, r9
1000074a:	b5e0      	push	{r5, r6, r7, lr}
1000074c:	000d      	movs	r5, r1
1000074e:	b083      	sub	sp, #12
10000750:	f3ef 8910 	mrs	r9, PRIMASK
10000754:	b672      	cpsid	i
10000756:	4a58      	ldr	r2, [pc, #352]	; (100008b8 <irq_remove_handler+0x178>)
10000758:	6813      	ldr	r3, [r2, #0]
1000075a:	2b00      	cmp	r3, #0
1000075c:	d0fc      	beq.n	10000758 <irq_remove_handler+0x18>
1000075e:	f3bf 8f5f 	dmb	sy
10000762:	4b56      	ldr	r3, [pc, #344]	; (100008bc <irq_remove_handler+0x17c>)
10000764:	689a      	ldr	r2, [r3, #8]
10000766:	0003      	movs	r3, r0
10000768:	3310      	adds	r3, #16
1000076a:	009f      	lsls	r7, r3, #2
1000076c:	59d4      	ldr	r4, [r2, r7]
1000076e:	4a54      	ldr	r2, [pc, #336]	; (100008c0 <irq_remove_handler+0x180>)
10000770:	4690      	mov	r8, r2
10000772:	4294      	cmp	r4, r2
10000774:	d034      	beq.n	100007e0 <irq_remove_handler+0xa0>
10000776:	42ac      	cmp	r4, r5
10000778:	d045      	beq.n	10000806 <irq_remove_handler+0xc6>
1000077a:	4e52      	ldr	r6, [pc, #328]	; (100008c4 <irq_remove_handler+0x184>)
1000077c:	1ba2      	subs	r2, r4, r6
1000077e:	2a2f      	cmp	r2, #47	; 0x2f
10000780:	d82e      	bhi.n	100007e0 <irq_remove_handler+0xa0>
10000782:	2201      	movs	r2, #1
10000784:	4082      	lsls	r2, r0
10000786:	4692      	mov	sl, r2
10000788:	4651      	mov	r1, sl
1000078a:	4a4f      	ldr	r2, [pc, #316]	; (100008c8 <irq_remove_handler+0x188>)
1000078c:	6812      	ldr	r2, [r2, #0]
1000078e:	4011      	ands	r1, r2
10000790:	9101      	str	r1, [sp, #4]
10000792:	4651      	mov	r1, sl
10000794:	4a4d      	ldr	r2, [pc, #308]	; (100008cc <irq_remove_handler+0x18c>)
10000796:	6011      	str	r1, [r2, #0]
10000798:	f3bf 8f5f 	dmb	sy
1000079c:	f3ef 8205 	mrs	r2, IPSR
100007a0:	4693      	mov	fp, r2
100007a2:	2a00      	cmp	r2, #0
100007a4:	d135      	bne.n	10000812 <irq_remove_handler+0xd2>
100007a6:	2301      	movs	r3, #1
100007a8:	0022      	movs	r2, r4
100007aa:	2106      	movs	r1, #6
100007ac:	439a      	bics	r2, r3
100007ae:	6893      	ldr	r3, [r2, #8]
100007b0:	5651      	ldrsb	r1, [r2, r1]
100007b2:	429d      	cmp	r5, r3
100007b4:	d10a      	bne.n	100007cc <irq_remove_handler+0x8c>
100007b6:	e06a      	b.n	1000088e <irq_remove_handler+0x14e>
100007b8:	004b      	lsls	r3, r1, #1
100007ba:	185b      	adds	r3, r3, r1
100007bc:	2106      	movs	r1, #6
100007be:	009b      	lsls	r3, r3, #2
100007c0:	18f3      	adds	r3, r6, r3
100007c2:	6898      	ldr	r0, [r3, #8]
100007c4:	5659      	ldrsb	r1, [r3, r1]
100007c6:	42a8      	cmp	r0, r5
100007c8:	d028      	beq.n	1000081c <irq_remove_handler+0xdc>
100007ca:	001a      	movs	r2, r3
100007cc:	2900      	cmp	r1, #0
100007ce:	daf3      	bge.n	100007b8 <irq_remove_handler+0x78>
100007d0:	9b01      	ldr	r3, [sp, #4]
100007d2:	2b00      	cmp	r3, #0
100007d4:	d019      	beq.n	1000080a <irq_remove_handler+0xca>
100007d6:	4652      	mov	r2, sl
100007d8:	4b3d      	ldr	r3, [pc, #244]	; (100008d0 <irq_remove_handler+0x190>)
100007da:	601a      	str	r2, [r3, #0]
100007dc:	4b3a      	ldr	r3, [pc, #232]	; (100008c8 <irq_remove_handler+0x188>)
100007de:	601a      	str	r2, [r3, #0]
100007e0:	4b36      	ldr	r3, [pc, #216]	; (100008bc <irq_remove_handler+0x17c>)
100007e2:	689b      	ldr	r3, [r3, #8]
100007e4:	51dc      	str	r4, [r3, r7]
100007e6:	f3bf 8f5f 	dmb	sy
100007ea:	f3bf 8f5f 	dmb	sy
100007ee:	2200      	movs	r2, #0
100007f0:	4b31      	ldr	r3, [pc, #196]	; (100008b8 <irq_remove_handler+0x178>)
100007f2:	601a      	str	r2, [r3, #0]
100007f4:	f389 8810 	msr	PRIMASK, r9
100007f8:	b003      	add	sp, #12
100007fa:	bc3c      	pop	{r2, r3, r4, r5}
100007fc:	4690      	mov	r8, r2
100007fe:	4699      	mov	r9, r3
10000800:	46a2      	mov	sl, r4
10000802:	46ab      	mov	fp, r5
10000804:	bdf0      	pop	{r4, r5, r6, r7, pc}
10000806:	0014      	movs	r4, r2
10000808:	e7ea      	b.n	100007e0 <irq_remove_handler+0xa0>
1000080a:	4652      	mov	r2, sl
1000080c:	4b2f      	ldr	r3, [pc, #188]	; (100008cc <irq_remove_handler+0x18c>)
1000080e:	601a      	str	r2, [r3, #0]
10000810:	e7e6      	b.n	100007e0 <irq_remove_handler+0xa0>
10000812:	4293      	cmp	r3, r2
10000814:	d0c7      	beq.n	100007a6 <irq_remove_handler+0x66>
10000816:	f001 fbc5 	bl	10001fa4 <hard_assertion_failure>
1000081a:	e7c4      	b.n	100007a6 <irq_remove_handler+0x66>
1000081c:	2900      	cmp	r1, #0
1000081e:	db21      	blt.n	10000864 <irq_remove_handler+0x124>
10000820:	004a      	lsls	r2, r1, #1
10000822:	1850      	adds	r0, r2, r1
10000824:	0080      	lsls	r0, r0, #2
10000826:	1835      	adds	r5, r6, r0
10000828:	4680      	mov	r8, r0
1000082a:	68a8      	ldr	r0, [r5, #8]
1000082c:	6098      	str	r0, [r3, #8]
1000082e:	79e8      	ldrb	r0, [r5, #7]
10000830:	71d8      	strb	r0, [r3, #7]
10000832:	2006      	movs	r0, #6
10000834:	5628      	ldrsb	r0, [r5, r0]
10000836:	7198      	strb	r0, [r3, #6]
10000838:	2800      	cmp	r0, #0
1000083a:	db26      	blt.n	1000088a <irq_remove_handler+0x14a>
1000083c:	88ad      	ldrh	r5, [r5, #4]
1000083e:	1af0      	subs	r0, r6, r3
10000840:	056d      	lsls	r5, r5, #21
10000842:	152d      	asrs	r5, r5, #20
10000844:	4445      	add	r5, r8
10000846:	1940      	adds	r0, r0, r5
10000848:	25e0      	movs	r5, #224	; 0xe0
1000084a:	0500      	lsls	r0, r0, #20
1000084c:	0d40      	lsrs	r0, r0, #21
1000084e:	022d      	lsls	r5, r5, #8
10000850:	4328      	orrs	r0, r5
10000852:	8098      	strh	r0, [r3, #4]
10000854:	1852      	adds	r2, r2, r1
10000856:	4b1f      	ldr	r3, [pc, #124]	; (100008d4 <irq_remove_handler+0x194>)
10000858:	0092      	lsls	r2, r2, #2
1000085a:	18b6      	adds	r6, r6, r2
1000085c:	781a      	ldrb	r2, [r3, #0]
1000085e:	7019      	strb	r1, [r3, #0]
10000860:	71b2      	strb	r2, [r6, #6]
10000862:	e7b5      	b.n	100007d0 <irq_remove_handler+0x90>
10000864:	4659      	mov	r1, fp
10000866:	2900      	cmp	r1, #0
10000868:	d117      	bne.n	1000089a <irq_remove_handler+0x15a>
1000086a:	2a00      	cmp	r2, #0
1000086c:	d022      	beq.n	100008b4 <irq_remove_handler+0x174>
1000086e:	31ff      	adds	r1, #255	; 0xff
10000870:	7191      	strb	r1, [r2, #6]
10000872:	4919      	ldr	r1, [pc, #100]	; (100008d8 <irq_remove_handler+0x198>)
10000874:	8091      	strh	r1, [r2, #4]
10000876:	4917      	ldr	r1, [pc, #92]	; (100008d4 <irq_remove_handler+0x194>)
10000878:	780a      	ldrb	r2, [r1, #0]
1000087a:	719a      	strb	r2, [r3, #6]
1000087c:	4a17      	ldr	r2, [pc, #92]	; (100008dc <irq_remove_handler+0x19c>)
1000087e:	1b9b      	subs	r3, r3, r6
10000880:	415b      	adcs	r3, r3
10000882:	435a      	muls	r2, r3
10000884:	0d12      	lsrs	r2, r2, #20
10000886:	700a      	strb	r2, [r1, #0]
10000888:	e7a2      	b.n	100007d0 <irq_remove_handler+0x90>
1000088a:	4815      	ldr	r0, [pc, #84]	; (100008e0 <irq_remove_handler+0x1a0>)
1000088c:	e7e1      	b.n	10000852 <irq_remove_handler+0x112>
1000088e:	0013      	movs	r3, r2
10000890:	2900      	cmp	r1, #0
10000892:	dac5      	bge.n	10000820 <irq_remove_handler+0xe0>
10000894:	465a      	mov	r2, fp
10000896:	2a00      	cmp	r2, #0
10000898:	d00c      	beq.n	100008b4 <irq_remove_handler+0x174>
1000089a:	4a12      	ldr	r2, [pc, #72]	; (100008e4 <irq_remove_handler+0x1a4>)
1000089c:	4912      	ldr	r1, [pc, #72]	; (100008e8 <irq_remove_handler+0x1a8>)
1000089e:	1ad2      	subs	r2, r2, r3
100008a0:	3a08      	subs	r2, #8
100008a2:	0250      	lsls	r0, r2, #9
100008a4:	0d40      	lsrs	r0, r0, #21
100008a6:	4301      	orrs	r1, r0
100008a8:	8099      	strh	r1, [r3, #4]
100008aa:	4910      	ldr	r1, [pc, #64]	; (100008ec <irq_remove_handler+0x1ac>)
100008ac:	0852      	lsrs	r2, r2, #1
100008ae:	430a      	orrs	r2, r1
100008b0:	80da      	strh	r2, [r3, #6]
100008b2:	e78d      	b.n	100007d0 <irq_remove_handler+0x90>
100008b4:	4644      	mov	r4, r8
100008b6:	e7de      	b.n	10000876 <irq_remove_handler+0x136>
100008b8:	d0000124 	.word	0xd0000124
100008bc:	e000ed00 	.word	0xe000ed00
100008c0:	100001cd 	.word	0x100001cd
100008c4:	20000e54 	.word	0x20000e54
100008c8:	e000e100 	.word	0xe000e100
100008cc:	e000e180 	.word	0xe000e180
100008d0:	e000e280 	.word	0xe000e280
100008d4:	20001a11 	.word	0x20001a11
100008d8:	ffffbd01 	.word	0xffffbd01
100008dc:	0000aaaa 	.word	0x0000aaaa
100008e0:	0000bd01 	.word	0x0000bd01
100008e4:	20000e8e 	.word	0x20000e8e
100008e8:	fffff000 	.word	0xfffff000
100008ec:	fffff800 	.word	0xfffff800

100008f0 <irq_add_tail_to_free_list>:
100008f0:	b5f0      	push	{r4, r5, r6, r7, lr}
100008f2:	f3ef 8105 	mrs	r1, IPSR
100008f6:	2401      	movs	r4, #1
100008f8:	4304      	orrs	r4, r0
100008fa:	f3ef 8610 	mrs	r6, PRIMASK
100008fe:	b672      	cpsid	i
10000900:	4a21      	ldr	r2, [pc, #132]	; (10000988 <irq_add_tail_to_free_list+0x98>)
10000902:	6813      	ldr	r3, [r2, #0]
10000904:	2b00      	cmp	r3, #0
10000906:	d0fc      	beq.n	10000902 <irq_add_tail_to_free_list+0x12>
10000908:	f3bf 8f5f 	dmb	sy
1000090c:	4b1f      	ldr	r3, [pc, #124]	; (1000098c <irq_add_tail_to_free_list+0x9c>)
1000090e:	4a20      	ldr	r2, [pc, #128]	; (10000990 <irq_add_tail_to_free_list+0xa0>)
10000910:	0005      	movs	r5, r0
10000912:	1aed      	subs	r5, r5, r3
10000914:	416d      	adcs	r5, r5
10000916:	436a      	muls	r2, r5
10000918:	0d12      	lsrs	r2, r2, #20
1000091a:	4d1e      	ldr	r5, [pc, #120]	; (10000994 <irq_add_tail_to_free_list+0xa4>)
1000091c:	0089      	lsls	r1, r1, #2
1000091e:	68af      	ldr	r7, [r5, #8]
10000920:	b252      	sxtb	r2, r2
10000922:	587f      	ldr	r7, [r7, r1]
10000924:	42a7      	cmp	r7, r4
10000926:	d01c      	beq.n	10000962 <irq_add_tail_to_free_list+0x72>
10000928:	2106      	movs	r1, #6
1000092a:	5659      	ldrsb	r1, [r3, r1]
1000092c:	4291      	cmp	r1, r2
1000092e:	d01c      	beq.n	1000096a <irq_add_tail_to_free_list+0x7a>
10000930:	2112      	movs	r1, #18
10000932:	5659      	ldrsb	r1, [r3, r1]
10000934:	4291      	cmp	r1, r2
10000936:	d022      	beq.n	1000097e <irq_add_tail_to_free_list+0x8e>
10000938:	211e      	movs	r1, #30
1000093a:	5659      	ldrsb	r1, [r3, r1]
1000093c:	4291      	cmp	r1, r2
1000093e:	d020      	beq.n	10000982 <irq_add_tail_to_free_list+0x92>
10000940:	212a      	movs	r1, #42	; 0x2a
10000942:	5659      	ldrsb	r1, [r3, r1]
10000944:	2403      	movs	r4, #3
10000946:	4291      	cmp	r1, r2
10000948:	d010      	beq.n	1000096c <irq_add_tail_to_free_list+0x7c>
1000094a:	4b13      	ldr	r3, [pc, #76]	; (10000998 <irq_add_tail_to_free_list+0xa8>)
1000094c:	7819      	ldrb	r1, [r3, #0]
1000094e:	701a      	strb	r2, [r3, #0]
10000950:	7181      	strb	r1, [r0, #6]
10000952:	f3bf 8f5f 	dmb	sy
10000956:	2200      	movs	r2, #0
10000958:	4b0b      	ldr	r3, [pc, #44]	; (10000988 <irq_add_tail_to_free_list+0x98>)
1000095a:	601a      	str	r2, [r3, #0]
1000095c:	f386 8810 	msr	PRIMASK, r6
10000960:	bdf0      	pop	{r4, r5, r6, r7, pc}
10000962:	68ab      	ldr	r3, [r5, #8]
10000964:	4c0d      	ldr	r4, [pc, #52]	; (1000099c <irq_add_tail_to_free_list+0xac>)
10000966:	505c      	str	r4, [r3, r1]
10000968:	e7ef      	b.n	1000094a <irq_add_tail_to_free_list+0x5a>
1000096a:	2400      	movs	r4, #0
1000096c:	0061      	lsls	r1, r4, #1
1000096e:	1909      	adds	r1, r1, r4
10000970:	0089      	lsls	r1, r1, #2
10000972:	185b      	adds	r3, r3, r1
10000974:	21ff      	movs	r1, #255	; 0xff
10000976:	7199      	strb	r1, [r3, #6]
10000978:	4909      	ldr	r1, [pc, #36]	; (100009a0 <irq_add_tail_to_free_list+0xb0>)
1000097a:	8099      	strh	r1, [r3, #4]
1000097c:	e7e5      	b.n	1000094a <irq_add_tail_to_free_list+0x5a>
1000097e:	2401      	movs	r4, #1
10000980:	e7f4      	b.n	1000096c <irq_add_tail_to_free_list+0x7c>
10000982:	2402      	movs	r4, #2
10000984:	e7f2      	b.n	1000096c <irq_add_tail_to_free_list+0x7c>
10000986:	46c0      	nop			; (mov r8, r8)
10000988:	d0000124 	.word	0xd0000124
1000098c:	20000e54 	.word	0x20000e54
10000990:	0000aaaa 	.word	0x0000aaaa
10000994:	e000ed00 	.word	0xe000ed00
10000998:	20001a11 	.word	0x20001a11
1000099c:	100001cd 	.word	0x100001cd
100009a0:	ffffbd01 	.word	0xffffbd01

100009a4 <irq_init_priorities>:
100009a4:	4b05      	ldr	r3, [pc, #20]	; (100009bc <irq_init_priorities+0x18>)
100009a6:	4a06      	ldr	r2, [pc, #24]	; (100009c0 <irq_init_priorities+0x1c>)
100009a8:	6013      	str	r3, [r2, #0]
100009aa:	4a06      	ldr	r2, [pc, #24]	; (100009c4 <irq_init_priorities+0x20>)
100009ac:	6013      	str	r3, [r2, #0]
100009ae:	6053      	str	r3, [r2, #4]
100009b0:	6093      	str	r3, [r2, #8]
100009b2:	60d3      	str	r3, [r2, #12]
100009b4:	6113      	str	r3, [r2, #16]
100009b6:	6153      	str	r3, [r2, #20]
100009b8:	6193      	str	r3, [r2, #24]
100009ba:	4770      	bx	lr
100009bc:	80808080 	.word	0x80808080
100009c0:	e000e400 	.word	0xe000e400
100009c4:	e000e404 	.word	0xe000e404

100009c8 <user_irq_claim_unused>:
100009c8:	b500      	push	{lr}
100009ca:	4b07      	ldr	r3, [pc, #28]	; (100009e8 <user_irq_claim_unused+0x20>)
100009cc:	b083      	sub	sp, #12
100009ce:	0001      	movs	r1, r0
100009d0:	9300      	str	r3, [sp, #0]
100009d2:	2200      	movs	r2, #0
100009d4:	2305      	movs	r3, #5
100009d6:	4805      	ldr	r0, [pc, #20]	; (100009ec <user_irq_claim_unused+0x24>)
100009d8:	f7ff fcf4 	bl	100003c4 <hw_claim_unused_from_range>
100009dc:	2800      	cmp	r0, #0
100009de:	db01      	blt.n	100009e4 <user_irq_claim_unused+0x1c>
100009e0:	231f      	movs	r3, #31
100009e2:	1a18      	subs	r0, r3, r0
100009e4:	b003      	add	sp, #12
100009e6:	bd00      	pop	{pc}
100009e8:	10004a2c 	.word	0x10004a2c
100009ec:	20001a16 	.word	0x20001a16

100009f0 <lock_init>:
100009f0:	4b02      	ldr	r3, [pc, #8]	; (100009fc <lock_init+0xc>)
100009f2:	469c      	mov	ip, r3
100009f4:	4461      	add	r1, ip
100009f6:	0089      	lsls	r1, r1, #2
100009f8:	6001      	str	r1, [r0, #0]
100009fa:	4770      	bx	lr
100009fc:	34000040 	.word	0x34000040

10000a00 <mutex_init>:
10000a00:	b510      	push	{r4, lr}
10000a02:	0004      	movs	r4, r0
10000a04:	f7ff fd3a 	bl	1000047c <next_striped_spin_lock_num>
10000a08:	0001      	movs	r1, r0
10000a0a:	0020      	movs	r0, r4
10000a0c:	f7ff fff0 	bl	100009f0 <lock_init>
10000a10:	23ff      	movs	r3, #255	; 0xff
10000a12:	7123      	strb	r3, [r4, #4]
10000a14:	f3bf 8f5f 	dmb	sy
10000a18:	bd10      	pop	{r4, pc}
10000a1a:	46c0      	nop			; (mov r8, r8)

10000a1c <recursive_mutex_init>:
10000a1c:	b510      	push	{r4, lr}
10000a1e:	0004      	movs	r4, r0
10000a20:	f7ff fd2c 	bl	1000047c <next_striped_spin_lock_num>
10000a24:	0001      	movs	r1, r0
10000a26:	0020      	movs	r0, r4
10000a28:	f7ff ffe2 	bl	100009f0 <lock_init>
10000a2c:	23ff      	movs	r3, #255	; 0xff
10000a2e:	80a3      	strh	r3, [r4, #4]
10000a30:	f3bf 8f5f 	dmb	sy
10000a34:	bd10      	pop	{r4, pc}
10000a36:	46c0      	nop			; (mov r8, r8)

10000a38 <critical_section_init>:
10000a38:	b510      	push	{r4, lr}
10000a3a:	0004      	movs	r4, r0
10000a3c:	2001      	movs	r0, #1
10000a3e:	f7ff fd29 	bl	10000494 <spin_lock_claim_unused>
10000a42:	4b04      	ldr	r3, [pc, #16]	; (10000a54 <critical_section_init+0x1c>)
10000a44:	469c      	mov	ip, r3
10000a46:	4460      	add	r0, ip
10000a48:	0080      	lsls	r0, r0, #2
10000a4a:	6020      	str	r0, [r4, #0]
10000a4c:	f3bf 8f5f 	dmb	sy
10000a50:	bd10      	pop	{r4, pc}
10000a52:	46c0      	nop			; (mov r8, r8)
10000a54:	34000040 	.word	0x34000040

10000a58 <critical_section_init_with_lock_num>:
10000a58:	4b03      	ldr	r3, [pc, #12]	; (10000a68 <critical_section_init_with_lock_num+0x10>)
10000a5a:	469c      	mov	ip, r3
10000a5c:	4461      	add	r1, ip
10000a5e:	0089      	lsls	r1, r1, #2
10000a60:	6001      	str	r1, [r0, #0]
10000a62:	f3bf 8f5f 	dmb	sy
10000a66:	4770      	bx	lr
10000a68:	34000040 	.word	0x34000040

10000a6c <ph_merge_nodes>:
10000a6c:	b570      	push	{r4, r5, r6, lr}
10000a6e:	0006      	movs	r6, r0
10000a70:	000d      	movs	r5, r1
10000a72:	0014      	movs	r4, r2
10000a74:	2900      	cmp	r1, #0
10000a76:	d01e      	beq.n	10000ab6 <ph_merge_nodes+0x4a>
10000a78:	2a00      	cmp	r2, #0
10000a7a:	d01e      	beq.n	10000aba <ph_merge_nodes+0x4e>
10000a7c:	6873      	ldr	r3, [r6, #4]
10000a7e:	6880      	ldr	r0, [r0, #8]
10000a80:	4798      	blx	r3
10000a82:	0063      	lsls	r3, r4, #1
10000a84:	006a      	lsls	r2, r5, #1
10000a86:	191b      	adds	r3, r3, r4
10000a88:	1952      	adds	r2, r2, r5
10000a8a:	3b03      	subs	r3, #3
10000a8c:	3a03      	subs	r2, #3
10000a8e:	6831      	ldr	r1, [r6, #0]
10000a90:	2800      	cmp	r0, #0
10000a92:	d008      	beq.n	10000aa6 <ph_merge_nodes+0x3a>
10000a94:	18cb      	adds	r3, r1, r3
10000a96:	188a      	adds	r2, r1, r2
10000a98:	709d      	strb	r5, [r3, #2]
10000a9a:	7811      	ldrb	r1, [r2, #0]
10000a9c:	2900      	cmp	r1, #0
10000a9e:	d10e      	bne.n	10000abe <ph_merge_nodes+0x52>
10000aa0:	7014      	strb	r4, [r2, #0]
10000aa2:	0028      	movs	r0, r5
10000aa4:	e008      	b.n	10000ab8 <ph_merge_nodes+0x4c>
10000aa6:	188a      	adds	r2, r1, r2
10000aa8:	18cb      	adds	r3, r1, r3
10000aaa:	7094      	strb	r4, [r2, #2]
10000aac:	7819      	ldrb	r1, [r3, #0]
10000aae:	2900      	cmp	r1, #0
10000ab0:	d000      	beq.n	10000ab4 <ph_merge_nodes+0x48>
10000ab2:	7051      	strb	r1, [r2, #1]
10000ab4:	701d      	strb	r5, [r3, #0]
10000ab6:	0020      	movs	r0, r4
10000ab8:	bd70      	pop	{r4, r5, r6, pc}
10000aba:	0008      	movs	r0, r1
10000abc:	e7fc      	b.n	10000ab8 <ph_merge_nodes+0x4c>
10000abe:	7059      	strb	r1, [r3, #1]
10000ac0:	0028      	movs	r0, r5
10000ac2:	7014      	strb	r4, [r2, #0]
10000ac4:	e7f8      	b.n	10000ab8 <ph_merge_nodes+0x4c>
10000ac6:	46c0      	nop			; (mov r8, r8)

10000ac8 <timer_pool_entry_comparator>:
10000ac8:	6883      	ldr	r3, [r0, #8]
10000aca:	480b      	ldr	r0, [pc, #44]	; (10000af8 <timer_pool_entry_comparator+0x30>)
10000acc:	b510      	push	{r4, lr}
10000ace:	4684      	mov	ip, r0
10000ad0:	4461      	add	r1, ip
10000ad2:	4462      	add	r2, ip
10000ad4:	0109      	lsls	r1, r1, #4
10000ad6:	0112      	lsls	r2, r2, #4
10000ad8:	189a      	adds	r2, r3, r2
10000ada:	1859      	adds	r1, r3, r1
10000adc:	6854      	ldr	r4, [r2, #4]
10000ade:	684b      	ldr	r3, [r1, #4]
10000ae0:	2001      	movs	r0, #1
10000ae2:	429c      	cmp	r4, r3
10000ae4:	d801      	bhi.n	10000aea <timer_pool_entry_comparator+0x22>
10000ae6:	d002      	beq.n	10000aee <timer_pool_entry_comparator+0x26>
10000ae8:	2000      	movs	r0, #0
10000aea:	b2c0      	uxtb	r0, r0
10000aec:	bd10      	pop	{r4, pc}
10000aee:	6812      	ldr	r2, [r2, #0]
10000af0:	680b      	ldr	r3, [r1, #0]
10000af2:	429a      	cmp	r2, r3
10000af4:	d8f9      	bhi.n	10000aea <timer_pool_entry_comparator+0x22>
10000af6:	e7f7      	b.n	10000ae8 <timer_pool_entry_comparator+0x20>
10000af8:	0fffffff 	.word	0x0fffffff

10000afc <sleep_until_callback>:
10000afc:	4b0a      	ldr	r3, [pc, #40]	; (10000b28 <sleep_until_callback+0x2c>)
10000afe:	6819      	ldr	r1, [r3, #0]
10000b00:	f3ef 8010 	mrs	r0, PRIMASK
10000b04:	b672      	cpsid	i
10000b06:	680a      	ldr	r2, [r1, #0]
10000b08:	2a00      	cmp	r2, #0
10000b0a:	d0fc      	beq.n	10000b06 <sleep_until_callback+0xa>
10000b0c:	f3bf 8f5f 	dmb	sy
10000b10:	681b      	ldr	r3, [r3, #0]
10000b12:	f3bf 8f5f 	dmb	sy
10000b16:	2200      	movs	r2, #0
10000b18:	601a      	str	r2, [r3, #0]
10000b1a:	f380 8810 	msr	PRIMASK, r0
10000b1e:	bf40      	sev
10000b20:	2000      	movs	r0, #0
10000b22:	2100      	movs	r1, #0
10000b24:	4770      	bx	lr
10000b26:	46c0      	nop			; (mov r8, r8)
10000b28:	200019e0 	.word	0x200019e0

10000b2c <add_alarm_under_lock>:
10000b2c:	b5f8      	push	{r3, r4, r5, r6, r7, lr}
10000b2e:	4647      	mov	r7, r8
10000b30:	46ce      	mov	lr, r9
10000b32:	b580      	push	{r7, lr}
10000b34:	0014      	movs	r4, r2
10000b36:	001d      	movs	r5, r3
10000b38:	aa0b      	add	r2, sp, #44	; 0x2c
10000b3a:	ab0a      	add	r3, sp, #40	; 0x28
10000b3c:	7812      	ldrb	r2, [r2, #0]
10000b3e:	781b      	ldrb	r3, [r3, #0]
10000b40:	4680      	mov	r8, r0
10000b42:	4691      	mov	r9, r2
10000b44:	6807      	ldr	r7, [r0, #0]
10000b46:	2b00      	cmp	r3, #0
10000b48:	d112      	bne.n	10000b70 <add_alarm_under_lock+0x44>
10000b4a:	7bbe      	ldrb	r6, [r7, #14]
10000b4c:	2e00      	cmp	r6, #0
10000b4e:	d044      	beq.n	10000bda <add_alarm_under_lock+0xae>
10000b50:	0072      	lsls	r2, r6, #1
10000b52:	1992      	adds	r2, r2, r6
10000b54:	6839      	ldr	r1, [r7, #0]
10000b56:	3a03      	subs	r2, #3
10000b58:	1889      	adds	r1, r1, r2
10000b5a:	7848      	ldrb	r0, [r1, #1]
10000b5c:	0033      	movs	r3, r6
10000b5e:	73b8      	strb	r0, [r7, #14]
10000b60:	2800      	cmp	r0, #0
10000b62:	d100      	bne.n	10000b66 <add_alarm_under_lock+0x3a>
10000b64:	73f8      	strb	r0, [r7, #15]
10000b66:	2000      	movs	r0, #0
10000b68:	7088      	strb	r0, [r1, #2]
10000b6a:	7048      	strb	r0, [r1, #1]
10000b6c:	7008      	strb	r0, [r1, #0]
10000b6e:	e003      	b.n	10000b78 <add_alarm_under_lock+0x4c>
10000b70:	001e      	movs	r6, r3
10000b72:	005a      	lsls	r2, r3, #1
10000b74:	18d2      	adds	r2, r2, r3
10000b76:	3a03      	subs	r2, #3
10000b78:	491a      	ldr	r1, [pc, #104]	; (10000be4 <add_alarm_under_lock+0xb8>)
10000b7a:	0038      	movs	r0, r7
10000b7c:	468c      	mov	ip, r1
10000b7e:	4641      	mov	r1, r8
10000b80:	6889      	ldr	r1, [r1, #8]
10000b82:	4463      	add	r3, ip
10000b84:	468c      	mov	ip, r1
10000b86:	011b      	lsls	r3, r3, #4
10000b88:	9908      	ldr	r1, [sp, #32]
10000b8a:	4463      	add	r3, ip
10000b8c:	6099      	str	r1, [r3, #8]
10000b8e:	9909      	ldr	r1, [sp, #36]	; 0x24
10000b90:	601c      	str	r4, [r3, #0]
10000b92:	605d      	str	r5, [r3, #4]
10000b94:	60d9      	str	r1, [r3, #12]
10000b96:	683b      	ldr	r3, [r7, #0]
10000b98:	469c      	mov	ip, r3
10000b9a:	2300      	movs	r3, #0
10000b9c:	4462      	add	r2, ip
10000b9e:	7093      	strb	r3, [r2, #2]
10000ba0:	7053      	strb	r3, [r2, #1]
10000ba2:	7013      	strb	r3, [r2, #0]
10000ba4:	7b79      	ldrb	r1, [r7, #13]
10000ba6:	0032      	movs	r2, r6
10000ba8:	f7ff ff60 	bl	10000a6c <ph_merge_nodes>
10000bac:	7378      	strb	r0, [r7, #13]
10000bae:	42b0      	cmp	r0, r6
10000bb0:	d113      	bne.n	10000bda <add_alarm_under_lock+0xae>
10000bb2:	4643      	mov	r3, r8
10000bb4:	0022      	movs	r2, r4
10000bb6:	7d18      	ldrb	r0, [r3, #20]
10000bb8:	002b      	movs	r3, r5
10000bba:	f000 fb7b 	bl	100012b4 <hardware_alarm_set_target>
10000bbe:	1e04      	subs	r4, r0, #0
10000bc0:	d007      	beq.n	10000bd2 <add_alarm_under_lock+0xa6>
10000bc2:	464b      	mov	r3, r9
10000bc4:	2b00      	cmp	r3, #0
10000bc6:	d104      	bne.n	10000bd2 <add_alarm_under_lock+0xa6>
10000bc8:	4643      	mov	r3, r8
10000bca:	0031      	movs	r1, r6
10000bcc:	6818      	ldr	r0, [r3, #0]
10000bce:	f000 fef7 	bl	100019c0 <ph_remove_and_free_node>
10000bd2:	9b0c      	ldr	r3, [sp, #48]	; 0x30
10000bd4:	2b00      	cmp	r3, #0
10000bd6:	d000      	beq.n	10000bda <add_alarm_under_lock+0xae>
10000bd8:	701c      	strb	r4, [r3, #0]
10000bda:	0030      	movs	r0, r6
10000bdc:	bc0c      	pop	{r2, r3}
10000bde:	4690      	mov	r8, r2
10000be0:	4699      	mov	r9, r3
10000be2:	bdf8      	pop	{r3, r4, r5, r6, r7, pc}
10000be4:	0fffffff 	.word	0x0fffffff

10000be8 <alarm_pool_alarm_callback>:
10000be8:	b5f0      	push	{r4, r5, r6, r7, lr}
10000bea:	46de      	mov	lr, fp
10000bec:	4657      	mov	r7, sl
10000bee:	464e      	mov	r6, r9
10000bf0:	4645      	mov	r5, r8
10000bf2:	2300      	movs	r3, #0
10000bf4:	b5e0      	push	{r5, r6, r7, lr}
10000bf6:	b08b      	sub	sp, #44	; 0x2c
10000bf8:	9308      	str	r3, [sp, #32]
10000bfa:	4b67      	ldr	r3, [pc, #412]	; (10000d98 <alarm_pool_alarm_callback+0x1b0>)
10000bfc:	0082      	lsls	r2, r0, #2
10000bfe:	58d4      	ldr	r4, [r2, r3]
10000c00:	2300      	movs	r3, #0
10000c02:	469b      	mov	fp, r3
10000c04:	9009      	str	r0, [sp, #36]	; 0x24
10000c06:	f000 faf3 	bl	100011f0 <time_us_64>
10000c0a:	6862      	ldr	r2, [r4, #4]
10000c0c:	f3ef 8510 	mrs	r5, PRIMASK
10000c10:	b672      	cpsid	i
10000c12:	6813      	ldr	r3, [r2, #0]
10000c14:	2b00      	cmp	r3, #0
10000c16:	d0fc      	beq.n	10000c12 <alarm_pool_alarm_callback+0x2a>
10000c18:	f3bf 8f5f 	dmb	sy
10000c1c:	6823      	ldr	r3, [r4, #0]
10000c1e:	469c      	mov	ip, r3
10000c20:	7b5b      	ldrb	r3, [r3, #13]
10000c22:	4699      	mov	r9, r3
10000c24:	2b00      	cmp	r3, #0
10000c26:	d06c      	beq.n	10000d02 <alarm_pool_alarm_callback+0x11a>
10000c28:	68a2      	ldr	r2, [r4, #8]
10000c2a:	4b5c      	ldr	r3, [pc, #368]	; (10000d9c <alarm_pool_alarm_callback+0x1b4>)
10000c2c:	4690      	mov	r8, r2
10000c2e:	444b      	add	r3, r9
10000c30:	011b      	lsls	r3, r3, #4
10000c32:	4498      	add	r8, r3
10000c34:	4643      	mov	r3, r8
10000c36:	681e      	ldr	r6, [r3, #0]
10000c38:	685f      	ldr	r7, [r3, #4]
10000c3a:	0032      	movs	r2, r6
10000c3c:	003b      	movs	r3, r7
10000c3e:	1a12      	subs	r2, r2, r0
10000c40:	418b      	sbcs	r3, r1
10000c42:	2b00      	cmp	r3, #0
10000c44:	dd67      	ble.n	10000d16 <alarm_pool_alarm_callback+0x12e>
10000c46:	0032      	movs	r2, r6
10000c48:	003b      	movs	r3, r7
10000c4a:	9809      	ldr	r0, [sp, #36]	; 0x24
10000c4c:	f000 fb32 	bl	100012b4 <hardware_alarm_set_target>
10000c50:	2300      	movs	r3, #0
10000c52:	2200      	movs	r2, #0
10000c54:	4698      	mov	r8, r3
10000c56:	2300      	movs	r3, #0
10000c58:	9206      	str	r2, [sp, #24]
10000c5a:	9307      	str	r3, [sp, #28]
10000c5c:	2300      	movs	r3, #0
10000c5e:	469a      	mov	sl, r3
10000c60:	6863      	ldr	r3, [r4, #4]
10000c62:	f3bf 8f5f 	dmb	sy
10000c66:	465a      	mov	r2, fp
10000c68:	601a      	str	r2, [r3, #0]
10000c6a:	f385 8810 	msr	PRIMASK, r5
10000c6e:	4653      	mov	r3, sl
10000c70:	2b00      	cmp	r3, #0
10000c72:	d108      	bne.n	10000c86 <alarm_pool_alarm_callback+0x9e>
10000c74:	2800      	cmp	r0, #0
10000c76:	d1c6      	bne.n	10000c06 <alarm_pool_alarm_callback+0x1e>
10000c78:	b00b      	add	sp, #44	; 0x2c
10000c7a:	bc3c      	pop	{r2, r3, r4, r5}
10000c7c:	4690      	mov	r8, r2
10000c7e:	4699      	mov	r9, r3
10000c80:	46a2      	mov	sl, r4
10000c82:	46ab      	mov	fp, r5
10000c84:	bdf0      	pop	{r4, r5, r6, r7, pc}
10000c86:	9b08      	ldr	r3, [sp, #32]
10000c88:	4641      	mov	r1, r8
10000c8a:	0218      	lsls	r0, r3, #8
10000c8c:	464b      	mov	r3, r9
10000c8e:	4318      	orrs	r0, r3
10000c90:	47d0      	blx	sl
10000c92:	6862      	ldr	r2, [r4, #4]
10000c94:	0006      	movs	r6, r0
10000c96:	000f      	movs	r7, r1
10000c98:	f3ef 8510 	mrs	r5, PRIMASK
10000c9c:	b672      	cpsid	i
10000c9e:	6813      	ldr	r3, [r2, #0]
10000ca0:	2b00      	cmp	r3, #0
10000ca2:	d0fc      	beq.n	10000c9e <alarm_pool_alarm_callback+0xb6>
10000ca4:	f3bf 8f5f 	dmb	sy
10000ca8:	2f00      	cmp	r7, #0
10000caa:	db51      	blt.n	10000d50 <alarm_pool_alarm_callback+0x168>
10000cac:	0033      	movs	r3, r6
10000cae:	433b      	orrs	r3, r7
10000cb0:	d002      	beq.n	10000cb8 <alarm_pool_alarm_callback+0xd0>
10000cb2:	6923      	ldr	r3, [r4, #16]
10000cb4:	2b00      	cmp	r3, #0
10000cb6:	d162      	bne.n	10000d7e <alarm_pool_alarm_callback+0x196>
10000cb8:	6823      	ldr	r3, [r4, #0]
10000cba:	7bda      	ldrb	r2, [r3, #15]
10000cbc:	2a00      	cmp	r2, #0
10000cbe:	d007      	beq.n	10000cd0 <alarm_pool_alarm_callback+0xe8>
10000cc0:	0051      	lsls	r1, r2, #1
10000cc2:	188a      	adds	r2, r1, r2
10000cc4:	6819      	ldr	r1, [r3, #0]
10000cc6:	468c      	mov	ip, r1
10000cc8:	4649      	mov	r1, r9
10000cca:	4462      	add	r2, ip
10000ccc:	3a03      	subs	r2, #3
10000cce:	7051      	strb	r1, [r2, #1]
10000cd0:	7b9a      	ldrb	r2, [r3, #14]
10000cd2:	2a00      	cmp	r2, #0
10000cd4:	d101      	bne.n	10000cda <alarm_pool_alarm_callback+0xf2>
10000cd6:	464a      	mov	r2, r9
10000cd8:	739a      	strb	r2, [r3, #14]
10000cda:	464a      	mov	r2, r9
10000cdc:	73da      	strb	r2, [r3, #15]
10000cde:	68e2      	ldr	r2, [r4, #12]
10000ce0:	464b      	mov	r3, r9
10000ce2:	4694      	mov	ip, r2
10000ce4:	3b01      	subs	r3, #1
10000ce6:	4463      	add	r3, ip
10000ce8:	781a      	ldrb	r2, [r3, #0]
10000cea:	3201      	adds	r2, #1
10000cec:	701a      	strb	r2, [r3, #0]
10000cee:	465b      	mov	r3, fp
10000cf0:	6123      	str	r3, [r4, #16]
10000cf2:	6863      	ldr	r3, [r4, #4]
10000cf4:	f3bf 8f5f 	dmb	sy
10000cf8:	465a      	mov	r2, fp
10000cfa:	601a      	str	r2, [r3, #0]
10000cfc:	f385 8810 	msr	PRIMASK, r5
10000d00:	e781      	b.n	10000c06 <alarm_pool_alarm_callback+0x1e>
10000d02:	2300      	movs	r3, #0
10000d04:	2200      	movs	r2, #0
10000d06:	4698      	mov	r8, r3
10000d08:	2300      	movs	r3, #0
10000d0a:	9206      	str	r2, [sp, #24]
10000d0c:	9307      	str	r3, [sp, #28]
10000d0e:	2300      	movs	r3, #0
10000d10:	2000      	movs	r0, #0
10000d12:	469a      	mov	sl, r3
10000d14:	e7a4      	b.n	10000c60 <alarm_pool_alarm_callback+0x78>
10000d16:	2b00      	cmp	r3, #0
10000d18:	d101      	bne.n	10000d1e <alarm_pool_alarm_callback+0x136>
10000d1a:	2a00      	cmp	r2, #0
10000d1c:	d193      	bne.n	10000c46 <alarm_pool_alarm_callback+0x5e>
10000d1e:	2100      	movs	r1, #0
10000d20:	4660      	mov	r0, ip
10000d22:	f000 fd6b 	bl	100017fc <ph_remove_head>
10000d26:	4643      	mov	r3, r8
10000d28:	681a      	ldr	r2, [r3, #0]
10000d2a:	685b      	ldr	r3, [r3, #4]
10000d2c:	9206      	str	r2, [sp, #24]
10000d2e:	9307      	str	r3, [sp, #28]
10000d30:	4643      	mov	r3, r8
10000d32:	689b      	ldr	r3, [r3, #8]
10000d34:	469a      	mov	sl, r3
10000d36:	4643      	mov	r3, r8
10000d38:	68db      	ldr	r3, [r3, #12]
10000d3a:	4698      	mov	r8, r3
10000d3c:	68e3      	ldr	r3, [r4, #12]
10000d3e:	444b      	add	r3, r9
10000d40:	3b01      	subs	r3, #1
10000d42:	781b      	ldrb	r3, [r3, #0]
10000d44:	9308      	str	r3, [sp, #32]
10000d46:	021b      	lsls	r3, r3, #8
10000d48:	4303      	orrs	r3, r0
10000d4a:	6123      	str	r3, [r4, #16]
10000d4c:	2000      	movs	r0, #0
10000d4e:	e787      	b.n	10000c60 <alarm_pool_alarm_callback+0x78>
10000d50:	6923      	ldr	r3, [r4, #16]
10000d52:	2b00      	cmp	r3, #0
10000d54:	d0b0      	beq.n	10000cb8 <alarm_pool_alarm_callback+0xd0>
10000d56:	9a06      	ldr	r2, [sp, #24]
10000d58:	9b07      	ldr	r3, [sp, #28]
10000d5a:	1b92      	subs	r2, r2, r6
10000d5c:	41bb      	sbcs	r3, r7
10000d5e:	2b00      	cmp	r3, #0
10000d60:	db15      	blt.n	10000d8e <alarm_pool_alarm_callback+0x1a6>
10000d62:	4659      	mov	r1, fp
10000d64:	9104      	str	r1, [sp, #16]
10000d66:	2101      	movs	r1, #1
10000d68:	9103      	str	r1, [sp, #12]
10000d6a:	4649      	mov	r1, r9
10000d6c:	9102      	str	r1, [sp, #8]
10000d6e:	4641      	mov	r1, r8
10000d70:	9101      	str	r1, [sp, #4]
10000d72:	4651      	mov	r1, sl
10000d74:	0020      	movs	r0, r4
10000d76:	9100      	str	r1, [sp, #0]
10000d78:	f7ff fed8 	bl	10000b2c <add_alarm_under_lock>
10000d7c:	e7b7      	b.n	10000cee <alarm_pool_alarm_callback+0x106>
10000d7e:	f000 fa37 	bl	100011f0 <time_us_64>
10000d82:	0032      	movs	r2, r6
10000d84:	003b      	movs	r3, r7
10000d86:	1812      	adds	r2, r2, r0
10000d88:	414b      	adcs	r3, r1
10000d8a:	2b00      	cmp	r3, #0
10000d8c:	dae9      	bge.n	10000d62 <alarm_pool_alarm_callback+0x17a>
10000d8e:	2201      	movs	r2, #1
10000d90:	4b03      	ldr	r3, [pc, #12]	; (10000da0 <alarm_pool_alarm_callback+0x1b8>)
10000d92:	4252      	negs	r2, r2
10000d94:	e7e5      	b.n	10000d62 <alarm_pool_alarm_callback+0x17a>
10000d96:	46c0      	nop			; (mov r8, r8)
10000d98:	200019c4 	.word	0x200019c4
10000d9c:	0fffffff 	.word	0x0fffffff
10000da0:	7fffffff 	.word	0x7fffffff

10000da4 <alarm_pool_init_default>:
10000da4:	b510      	push	{r4, lr}
10000da6:	4c14      	ldr	r4, [pc, #80]	; (10000df8 <alarm_pool_init_default+0x54>)
10000da8:	6863      	ldr	r3, [r4, #4]
10000daa:	2b00      	cmp	r3, #0
10000dac:	d004      	beq.n	10000db8 <alarm_pool_init_default+0x14>
10000dae:	210a      	movs	r1, #10
10000db0:	4812      	ldr	r0, [pc, #72]	; (10000dfc <alarm_pool_init_default+0x58>)
10000db2:	f7ff fe1d 	bl	100009f0 <lock_init>
10000db6:	bd10      	pop	{r4, pc}
10000db8:	0023      	movs	r3, r4
10000dba:	4a11      	ldr	r2, [pc, #68]	; (10000e00 <alarm_pool_init_default+0x5c>)
10000dbc:	2110      	movs	r1, #16
10000dbe:	6820      	ldr	r0, [r4, #0]
10000dc0:	f000 fb3a 	bl	10001438 <ph_post_alloc_init>
10000dc4:	2003      	movs	r0, #3
10000dc6:	f000 fa07 	bl	100011d8 <hardware_alarm_claim>
10000dca:	2003      	movs	r0, #3
10000dcc:	f000 fae6 	bl	1000139c <hardware_alarm_cancel>
10000dd0:	490c      	ldr	r1, [pc, #48]	; (10000e04 <alarm_pool_init_default+0x60>)
10000dd2:	2003      	movs	r0, #3
10000dd4:	f000 fa28 	bl	10001228 <hardware_alarm_set_callback>
10000dd8:	f7ff fb50 	bl	1000047c <next_striped_spin_lock_num>
10000ddc:	4b0a      	ldr	r3, [pc, #40]	; (10000e08 <alarm_pool_init_default+0x64>)
10000dde:	469c      	mov	ip, r3
10000de0:	2303      	movs	r3, #3
10000de2:	7523      	strb	r3, [r4, #20]
10000de4:	23d0      	movs	r3, #208	; 0xd0
10000de6:	061b      	lsls	r3, r3, #24
10000de8:	681b      	ldr	r3, [r3, #0]
10000dea:	4460      	add	r0, ip
10000dec:	7563      	strb	r3, [r4, #21]
10000dee:	4b07      	ldr	r3, [pc, #28]	; (10000e0c <alarm_pool_init_default+0x68>)
10000df0:	0080      	lsls	r0, r0, #2
10000df2:	6060      	str	r0, [r4, #4]
10000df4:	60dc      	str	r4, [r3, #12]
10000df6:	e7da      	b.n	10000dae <alarm_pool_init_default+0xa>
10000df8:	20000e9c 	.word	0x20000e9c
10000dfc:	200019e0 	.word	0x200019e0
10000e00:	10000ac9 	.word	0x10000ac9
10000e04:	10000be9 	.word	0x10000be9
10000e08:	34000040 	.word	0x34000040
10000e0c:	200019c4 	.word	0x200019c4

10000e10 <alarm_pool_get_default>:
10000e10:	4800      	ldr	r0, [pc, #0]	; (10000e14 <alarm_pool_get_default+0x4>)
10000e12:	4770      	bx	lr
10000e14:	20000e9c 	.word	0x20000e9c

10000e18 <alarm_pool_add_alarm_at>:
10000e18:	b5f0      	push	{r4, r5, r6, r7, lr}
10000e1a:	4657      	mov	r7, sl
10000e1c:	464e      	mov	r6, r9
10000e1e:	46de      	mov	lr, fp
10000e20:	4645      	mov	r5, r8
10000e22:	b5e0      	push	{r5, r6, r7, lr}
10000e24:	b083      	sub	sp, #12
10000e26:	9200      	str	r2, [sp, #0]
10000e28:	9301      	str	r3, [sp, #4]
10000e2a:	9b0c      	ldr	r3, [sp, #48]	; 0x30
10000e2c:	0006      	movs	r6, r0
10000e2e:	469b      	mov	fp, r3
10000e30:	ab0e      	add	r3, sp, #56	; 0x38
10000e32:	781b      	ldrb	r3, [r3, #0]
10000e34:	2700      	movs	r7, #0
10000e36:	4699      	mov	r9, r3
10000e38:	2300      	movs	r3, #0
10000e3a:	469a      	mov	sl, r3
10000e3c:	6872      	ldr	r2, [r6, #4]
10000e3e:	f3ef 8810 	mrs	r8, PRIMASK
10000e42:	b672      	cpsid	i
10000e44:	6813      	ldr	r3, [r2, #0]
10000e46:	2b00      	cmp	r3, #0
10000e48:	d0fc      	beq.n	10000e44 <alarm_pool_add_alarm_at+0x2c>
10000e4a:	f3bf 8f5f 	dmb	sy
10000e4e:	6835      	ldr	r5, [r6, #0]
10000e50:	7bac      	ldrb	r4, [r5, #14]
10000e52:	2c00      	cmp	r4, #0
10000e54:	d063      	beq.n	10000f1e <alarm_pool_add_alarm_at+0x106>
10000e56:	0063      	lsls	r3, r4, #1
10000e58:	191b      	adds	r3, r3, r4
10000e5a:	682a      	ldr	r2, [r5, #0]
10000e5c:	3b03      	subs	r3, #3
10000e5e:	18d2      	adds	r2, r2, r3
10000e60:	7851      	ldrb	r1, [r2, #1]
10000e62:	73a9      	strb	r1, [r5, #14]
10000e64:	2900      	cmp	r1, #0
10000e66:	d100      	bne.n	10000e6a <alarm_pool_add_alarm_at+0x52>
10000e68:	73e9      	strb	r1, [r5, #15]
10000e6a:	7097      	strb	r7, [r2, #2]
10000e6c:	7057      	strb	r7, [r2, #1]
10000e6e:	7017      	strb	r7, [r2, #0]
10000e70:	68b1      	ldr	r1, [r6, #8]
10000e72:	4a37      	ldr	r2, [pc, #220]	; (10000f50 <alarm_pool_add_alarm_at+0x138>)
10000e74:	468c      	mov	ip, r1
10000e76:	9800      	ldr	r0, [sp, #0]
10000e78:	9901      	ldr	r1, [sp, #4]
10000e7a:	18a2      	adds	r2, r4, r2
10000e7c:	0112      	lsls	r2, r2, #4
10000e7e:	4462      	add	r2, ip
10000e80:	6010      	str	r0, [r2, #0]
10000e82:	6051      	str	r1, [r2, #4]
10000e84:	4659      	mov	r1, fp
10000e86:	6091      	str	r1, [r2, #8]
10000e88:	990d      	ldr	r1, [sp, #52]	; 0x34
10000e8a:	0028      	movs	r0, r5
10000e8c:	60d1      	str	r1, [r2, #12]
10000e8e:	682a      	ldr	r2, [r5, #0]
10000e90:	4694      	mov	ip, r2
10000e92:	4463      	add	r3, ip
10000e94:	709f      	strb	r7, [r3, #2]
10000e96:	705f      	strb	r7, [r3, #1]
10000e98:	701f      	strb	r7, [r3, #0]
10000e9a:	7b69      	ldrb	r1, [r5, #13]
10000e9c:	0022      	movs	r2, r4
10000e9e:	f7ff fde5 	bl	10000a6c <ph_merge_nodes>
10000ea2:	7368      	strb	r0, [r5, #13]
10000ea4:	4284      	cmp	r4, r0
10000ea6:	d045      	beq.n	10000f34 <alarm_pool_add_alarm_at+0x11c>
10000ea8:	68f3      	ldr	r3, [r6, #12]
10000eaa:	191b      	adds	r3, r3, r4
10000eac:	3b01      	subs	r3, #1
10000eae:	7818      	ldrb	r0, [r3, #0]
10000eb0:	6873      	ldr	r3, [r6, #4]
10000eb2:	f3bf 8f5f 	dmb	sy
10000eb6:	601f      	str	r7, [r3, #0]
10000eb8:	f388 8810 	msr	PRIMASK, r8
10000ebc:	4653      	mov	r3, sl
10000ebe:	2b00      	cmp	r3, #0
10000ec0:	d108      	bne.n	10000ed4 <alarm_pool_add_alarm_at+0xbc>
10000ec2:	0200      	lsls	r0, r0, #8
10000ec4:	4320      	orrs	r0, r4
10000ec6:	b003      	add	sp, #12
10000ec8:	bc3c      	pop	{r2, r3, r4, r5}
10000eca:	4690      	mov	r8, r2
10000ecc:	4699      	mov	r9, r3
10000ece:	46a2      	mov	sl, r4
10000ed0:	46ab      	mov	fp, r5
10000ed2:	bdf0      	pop	{r4, r5, r6, r7, pc}
10000ed4:	464b      	mov	r3, r9
10000ed6:	2b00      	cmp	r3, #0
10000ed8:	d02a      	beq.n	10000f30 <alarm_pool_add_alarm_at+0x118>
10000eda:	990d      	ldr	r1, [sp, #52]	; 0x34
10000edc:	2000      	movs	r0, #0
10000ede:	47d8      	blx	fp
10000ee0:	0003      	movs	r3, r0
10000ee2:	430b      	orrs	r3, r1
10000ee4:	d024      	beq.n	10000f30 <alarm_pool_add_alarm_at+0x118>
10000ee6:	0004      	movs	r4, r0
10000ee8:	1e0d      	subs	r5, r1, #0
10000eea:	da09      	bge.n	10000f00 <alarm_pool_add_alarm_at+0xe8>
10000eec:	9a00      	ldr	r2, [sp, #0]
10000eee:	9b01      	ldr	r3, [sp, #4]
10000ef0:	1b12      	subs	r2, r2, r4
10000ef2:	41ab      	sbcs	r3, r5
10000ef4:	9200      	str	r2, [sp, #0]
10000ef6:	9301      	str	r3, [sp, #4]
10000ef8:	2b00      	cmp	r3, #0
10000efa:	db09      	blt.n	10000f10 <alarm_pool_add_alarm_at+0xf8>
10000efc:	46ca      	mov	sl, r9
10000efe:	e79d      	b.n	10000e3c <alarm_pool_add_alarm_at+0x24>
10000f00:	f000 f976 	bl	100011f0 <time_us_64>
10000f04:	1824      	adds	r4, r4, r0
10000f06:	414d      	adcs	r5, r1
10000f08:	9400      	str	r4, [sp, #0]
10000f0a:	9501      	str	r5, [sp, #4]
10000f0c:	2d00      	cmp	r5, #0
10000f0e:	daf5      	bge.n	10000efc <alarm_pool_add_alarm_at+0xe4>
10000f10:	2301      	movs	r3, #1
10000f12:	4c10      	ldr	r4, [pc, #64]	; (10000f54 <alarm_pool_add_alarm_at+0x13c>)
10000f14:	425b      	negs	r3, r3
10000f16:	9300      	str	r3, [sp, #0]
10000f18:	9401      	str	r4, [sp, #4]
10000f1a:	46ca      	mov	sl, r9
10000f1c:	e78e      	b.n	10000e3c <alarm_pool_add_alarm_at+0x24>
10000f1e:	6873      	ldr	r3, [r6, #4]
10000f20:	f3bf 8f5f 	dmb	sy
10000f24:	601c      	str	r4, [r3, #0]
10000f26:	f388 8810 	msr	PRIMASK, r8
10000f2a:	2001      	movs	r0, #1
10000f2c:	4240      	negs	r0, r0
10000f2e:	e7ca      	b.n	10000ec6 <alarm_pool_add_alarm_at+0xae>
10000f30:	2000      	movs	r0, #0
10000f32:	e7c8      	b.n	10000ec6 <alarm_pool_add_alarm_at+0xae>
10000f34:	7d30      	ldrb	r0, [r6, #20]
10000f36:	9a00      	ldr	r2, [sp, #0]
10000f38:	9b01      	ldr	r3, [sp, #4]
10000f3a:	f000 f9bb 	bl	100012b4 <hardware_alarm_set_target>
10000f3e:	4682      	mov	sl, r0
10000f40:	2800      	cmp	r0, #0
10000f42:	d0b1      	beq.n	10000ea8 <alarm_pool_add_alarm_at+0x90>
10000f44:	0021      	movs	r1, r4
10000f46:	6830      	ldr	r0, [r6, #0]
10000f48:	f000 fd3a 	bl	100019c0 <ph_remove_and_free_node>
10000f4c:	e7ac      	b.n	10000ea8 <alarm_pool_add_alarm_at+0x90>
10000f4e:	46c0      	nop			; (mov r8, r8)
10000f50:	0fffffff 	.word	0x0fffffff
10000f54:	7fffffff 	.word	0x7fffffff

10000f58 <alarm_pool_cancel_alarm>:
10000f58:	b5f8      	push	{r3, r4, r5, r6, r7, lr}
10000f5a:	6842      	ldr	r2, [r0, #4]
10000f5c:	0004      	movs	r4, r0
10000f5e:	f3ef 8510 	mrs	r5, PRIMASK
10000f62:	b672      	cpsid	i
10000f64:	6813      	ldr	r3, [r2, #0]
10000f66:	2b00      	cmp	r3, #0
10000f68:	d0fc      	beq.n	10000f64 <alarm_pool_cancel_alarm+0xc>
10000f6a:	f3bf 8f5f 	dmb	sy
10000f6e:	23ff      	movs	r3, #255	; 0xff
10000f70:	6820      	ldr	r0, [r4, #0]
10000f72:	b2ce      	uxtb	r6, r1
10000f74:	7b42      	ldrb	r2, [r0, #13]
10000f76:	400b      	ands	r3, r1
10000f78:	42b2      	cmp	r2, r6
10000f7a:	d008      	beq.n	10000f8e <alarm_pool_cancel_alarm+0x36>
10000f7c:	6807      	ldr	r7, [r0, #0]
10000f7e:	005a      	lsls	r2, r3, #1
10000f80:	46bc      	mov	ip, r7
10000f82:	18d2      	adds	r2, r2, r3
10000f84:	4462      	add	r2, ip
10000f86:	3a03      	subs	r2, #3
10000f88:	7892      	ldrb	r2, [r2, #2]
10000f8a:	2a00      	cmp	r2, #0
10000f8c:	d011      	beq.n	10000fb2 <alarm_pool_cancel_alarm+0x5a>
10000f8e:	68e2      	ldr	r2, [r4, #12]
10000f90:	0a09      	lsrs	r1, r1, #8
10000f92:	4694      	mov	ip, r2
10000f94:	4463      	add	r3, ip
10000f96:	3b01      	subs	r3, #1
10000f98:	781b      	ldrb	r3, [r3, #0]
10000f9a:	b2c9      	uxtb	r1, r1
10000f9c:	428b      	cmp	r3, r1
10000f9e:	d00e      	beq.n	10000fbe <alarm_pool_cancel_alarm+0x66>
10000fa0:	2000      	movs	r0, #0
10000fa2:	6863      	ldr	r3, [r4, #4]
10000fa4:	f3bf 8f5f 	dmb	sy
10000fa8:	2200      	movs	r2, #0
10000faa:	601a      	str	r2, [r3, #0]
10000fac:	f385 8810 	msr	PRIMASK, r5
10000fb0:	bdf8      	pop	{r3, r4, r5, r6, r7, pc}
10000fb2:	6923      	ldr	r3, [r4, #16]
10000fb4:	428b      	cmp	r3, r1
10000fb6:	d1f3      	bne.n	10000fa0 <alarm_pool_cancel_alarm+0x48>
10000fb8:	6122      	str	r2, [r4, #16]
10000fba:	2000      	movs	r0, #0
10000fbc:	e7f1      	b.n	10000fa2 <alarm_pool_cancel_alarm+0x4a>
10000fbe:	0031      	movs	r1, r6
10000fc0:	f000 fcfe 	bl	100019c0 <ph_remove_and_free_node>
10000fc4:	e7ed      	b.n	10000fa2 <alarm_pool_cancel_alarm+0x4a>
10000fc6:	46c0      	nop			; (mov r8, r8)

10000fc8 <alarm_pool_core_num>:
10000fc8:	7d40      	ldrb	r0, [r0, #21]
10000fca:	4770      	bx	lr

10000fcc <sleep_until>:
10000fcc:	b5f0      	push	{r4, r5, r6, r7, lr}
10000fce:	0004      	movs	r4, r0
10000fd0:	000d      	movs	r5, r1
10000fd2:	2606      	movs	r6, #6
10000fd4:	4276      	negs	r6, r6
10000fd6:	17f7      	asrs	r7, r6, #31
10000fd8:	46c6      	mov	lr, r8
10000fda:	1936      	adds	r6, r6, r4
10000fdc:	416f      	adcs	r7, r5
10000fde:	b500      	push	{lr}
10000fe0:	b084      	sub	sp, #16
10000fe2:	428f      	cmp	r7, r1
10000fe4:	d814      	bhi.n	10001010 <sleep_until+0x44>
10000fe6:	d011      	beq.n	1000100c <sleep_until+0x40>
10000fe8:	f000 f902 	bl	100011f0 <time_us_64>
10000fec:	0032      	movs	r2, r6
10000fee:	003b      	movs	r3, r7
10000ff0:	1a12      	subs	r2, r2, r0
10000ff2:	418b      	sbcs	r3, r1
10000ff4:	2b00      	cmp	r3, #0
10000ff6:	dc15      	bgt.n	10001024 <sleep_until+0x58>
10000ff8:	2b00      	cmp	r3, #0
10000ffa:	d03e      	beq.n	1000107a <sleep_until+0xae>
10000ffc:	0020      	movs	r0, r4
10000ffe:	0029      	movs	r1, r5
10001000:	f000 f902 	bl	10001208 <busy_wait_until>
10001004:	b004      	add	sp, #16
10001006:	bc04      	pop	{r2}
10001008:	4690      	mov	r8, r2
1000100a:	bdf0      	pop	{r4, r5, r6, r7, pc}
1000100c:	4286      	cmp	r6, r0
1000100e:	d9eb      	bls.n	10000fe8 <sleep_until+0x1c>
10001010:	2600      	movs	r6, #0
10001012:	2700      	movs	r7, #0
10001014:	f000 f8ec 	bl	100011f0 <time_us_64>
10001018:	0032      	movs	r2, r6
1000101a:	003b      	movs	r3, r7
1000101c:	1a12      	subs	r2, r2, r0
1000101e:	418b      	sbcs	r3, r1
10001020:	2b00      	cmp	r3, #0
10001022:	dde9      	ble.n	10000ff8 <sleep_until+0x2c>
10001024:	2300      	movs	r3, #0
10001026:	9302      	str	r3, [sp, #8]
10001028:	9301      	str	r3, [sp, #4]
1000102a:	4b15      	ldr	r3, [pc, #84]	; (10001080 <sleep_until+0xb4>)
1000102c:	0032      	movs	r2, r6
1000102e:	9300      	str	r3, [sp, #0]
10001030:	4814      	ldr	r0, [pc, #80]	; (10001084 <sleep_until+0xb8>)
10001032:	003b      	movs	r3, r7
10001034:	f7ff fef0 	bl	10000e18 <alarm_pool_add_alarm_at>
10001038:	2800      	cmp	r0, #0
1000103a:	dbdf      	blt.n	10000ffc <sleep_until+0x30>
1000103c:	2300      	movs	r3, #0
1000103e:	4698      	mov	r8, r3
10001040:	46bc      	mov	ip, r7
10001042:	4a11      	ldr	r2, [pc, #68]	; (10001088 <sleep_until+0xbc>)
10001044:	4f11      	ldr	r7, [pc, #68]	; (1000108c <sleep_until+0xc0>)
10001046:	6a7b      	ldr	r3, [r7, #36]	; 0x24
10001048:	459c      	cmp	ip, r3
1000104a:	d804      	bhi.n	10001056 <sleep_until+0x8a>
1000104c:	6ab9      	ldr	r1, [r7, #40]	; 0x28
1000104e:	42b1      	cmp	r1, r6
10001050:	d2d4      	bcs.n	10000ffc <sleep_until+0x30>
10001052:	459c      	cmp	ip, r3
10001054:	d1d2      	bne.n	10000ffc <sleep_until+0x30>
10001056:	6811      	ldr	r1, [r2, #0]
10001058:	f3ef 8010 	mrs	r0, PRIMASK
1000105c:	b672      	cpsid	i
1000105e:	680b      	ldr	r3, [r1, #0]
10001060:	2b00      	cmp	r3, #0
10001062:	d0fc      	beq.n	1000105e <sleep_until+0x92>
10001064:	f3bf 8f5f 	dmb	sy
10001068:	6813      	ldr	r3, [r2, #0]
1000106a:	f3bf 8f5f 	dmb	sy
1000106e:	4641      	mov	r1, r8
10001070:	6019      	str	r1, [r3, #0]
10001072:	f380 8810 	msr	PRIMASK, r0
10001076:	bf20      	wfe
10001078:	e7e5      	b.n	10001046 <sleep_until+0x7a>
1000107a:	2a00      	cmp	r2, #0
1000107c:	d0be      	beq.n	10000ffc <sleep_until+0x30>
1000107e:	e7d1      	b.n	10001024 <sleep_until+0x58>
10001080:	10000afd 	.word	0x10000afd
10001084:	20000e9c 	.word	0x20000e9c
10001088:	200019e0 	.word	0x200019e0
1000108c:	40054000 	.word	0x40054000

10001090 <sleep_ms>:
10001090:	b570      	push	{r4, r5, r6, lr}
10001092:	0006      	movs	r6, r0
10001094:	f000 f8ac 	bl	100011f0 <time_us_64>
10001098:	22fa      	movs	r2, #250	; 0xfa
1000109a:	0004      	movs	r4, r0
1000109c:	000d      	movs	r5, r1
1000109e:	0092      	lsls	r2, r2, #2
100010a0:	2300      	movs	r3, #0
100010a2:	0030      	movs	r0, r6
100010a4:	2100      	movs	r1, #0
100010a6:	f001 f873 	bl	10002190 <__wrap___aeabi_lmul>
100010aa:	1900      	adds	r0, r0, r4
100010ac:	4169      	adcs	r1, r5
100010ae:	2900      	cmp	r1, #0
100010b0:	db02      	blt.n	100010b8 <sleep_ms+0x28>
100010b2:	f7ff ff8b 	bl	10000fcc <sleep_until>
100010b6:	bd70      	pop	{r4, r5, r6, pc}
100010b8:	2001      	movs	r0, #1
100010ba:	4901      	ldr	r1, [pc, #4]	; (100010c0 <sleep_ms+0x30>)
100010bc:	4240      	negs	r0, r0
100010be:	e7f8      	b.n	100010b2 <sleep_ms+0x22>
100010c0:	7fffffff 	.word	0x7fffffff

100010c4 <best_effort_wfe_or_timeout>:
100010c4:	b570      	push	{r4, r5, r6, lr}
100010c6:	f3ef 8305 	mrs	r3, IPSR
100010ca:	b084      	sub	sp, #16
100010cc:	0005      	movs	r5, r0
100010ce:	000c      	movs	r4, r1
100010d0:	2b00      	cmp	r3, #0
100010d2:	d00e      	beq.n	100010f2 <best_effort_wfe_or_timeout+0x2e>
100010d4:	4a10      	ldr	r2, [pc, #64]	; (10001118 <best_effort_wfe_or_timeout+0x54>)
100010d6:	2000      	movs	r0, #0
100010d8:	6a53      	ldr	r3, [r2, #36]	; 0x24
100010da:	42a3      	cmp	r3, r4
100010dc:	d307      	bcc.n	100010ee <best_effort_wfe_or_timeout+0x2a>
100010de:	6a92      	ldr	r2, [r2, #40]	; 0x28
100010e0:	3001      	adds	r0, #1
100010e2:	42aa      	cmp	r2, r5
100010e4:	d203      	bcs.n	100010ee <best_effort_wfe_or_timeout+0x2a>
100010e6:	1b1c      	subs	r4, r3, r4
100010e8:	1e60      	subs	r0, r4, #1
100010ea:	4184      	sbcs	r4, r0
100010ec:	b2e0      	uxtb	r0, r4
100010ee:	b004      	add	sp, #16
100010f0:	bd70      	pop	{r4, r5, r6, pc}
100010f2:	4e0a      	ldr	r6, [pc, #40]	; (1000111c <best_effort_wfe_or_timeout+0x58>)
100010f4:	9302      	str	r3, [sp, #8]
100010f6:	9301      	str	r3, [sp, #4]
100010f8:	4b09      	ldr	r3, [pc, #36]	; (10001120 <best_effort_wfe_or_timeout+0x5c>)
100010fa:	0002      	movs	r2, r0
100010fc:	9300      	str	r3, [sp, #0]
100010fe:	0030      	movs	r0, r6
10001100:	000b      	movs	r3, r1
10001102:	f7ff fe89 	bl	10000e18 <alarm_pool_add_alarm_at>
10001106:	2800      	cmp	r0, #0
10001108:	dde4      	ble.n	100010d4 <best_effort_wfe_or_timeout+0x10>
1000110a:	bf20      	wfe
1000110c:	0001      	movs	r1, r0
1000110e:	0030      	movs	r0, r6
10001110:	f7ff ff22 	bl	10000f58 <alarm_pool_cancel_alarm>
10001114:	e7de      	b.n	100010d4 <best_effort_wfe_or_timeout+0x10>
10001116:	46c0      	nop			; (mov r8, r8)
10001118:	40054000 	.word	0x40054000
1000111c:	20000e9c 	.word	0x20000e9c
10001120:	10000afd 	.word	0x10000afd

10001124 <hardware_alarm_irq_handler>:
10001124:	b5f8      	push	{r3, r4, r5, r6, r7, lr}
10001126:	f3ef 8205 	mrs	r2, IPSR
1000112a:	46ce      	mov	lr, r9
1000112c:	4647      	mov	r7, r8
1000112e:	0010      	movs	r0, r2
10001130:	b580      	push	{r7, lr}
10001132:	3810      	subs	r0, #16
10001134:	f3ef 8c10 	mrs	ip, PRIMASK
10001138:	b672      	cpsid	i
1000113a:	4c20      	ldr	r4, [pc, #128]	; (100011bc <hardware_alarm_irq_handler+0x98>)
1000113c:	6823      	ldr	r3, [r4, #0]
1000113e:	2b00      	cmp	r3, #0
10001140:	d0fc      	beq.n	1000113c <hardware_alarm_irq_handler+0x18>
10001142:	f3bf 8f5f 	dmb	sy
10001146:	2301      	movs	r3, #1
10001148:	0019      	movs	r1, r3
1000114a:	4081      	lsls	r1, r0
1000114c:	4d1c      	ldr	r5, [pc, #112]	; (100011c0 <hardware_alarm_irq_handler+0x9c>)
1000114e:	4e1d      	ldr	r6, [pc, #116]	; (100011c4 <hardware_alarm_irq_handler+0xa0>)
10001150:	6371      	str	r1, [r6, #52]	; 0x34
10001152:	6029      	str	r1, [r5, #0]
10001154:	4d1c      	ldr	r5, [pc, #112]	; (100011c8 <hardware_alarm_irq_handler+0xa4>)
10001156:	46a9      	mov	r9, r5
10001158:	782d      	ldrb	r5, [r5, #0]
1000115a:	002f      	movs	r7, r5
1000115c:	40c7      	lsrs	r7, r0
1000115e:	403b      	ands	r3, r7
10001160:	d015      	beq.n	1000118e <hardware_alarm_irq_handler+0x6a>
10001162:	6a73      	ldr	r3, [r6, #36]	; 0x24
10001164:	4e19      	ldr	r6, [pc, #100]	; (100011cc <hardware_alarm_irq_handler+0xa8>)
10001166:	4698      	mov	r8, r3
10001168:	0083      	lsls	r3, r0, #2
1000116a:	599e      	ldr	r6, [r3, r6]
1000116c:	45b0      	cmp	r8, r6
1000116e:	d317      	bcc.n	100011a0 <hardware_alarm_irq_handler+0x7c>
10001170:	4a17      	ldr	r2, [pc, #92]	; (100011d0 <hardware_alarm_irq_handler+0xac>)
10001172:	438d      	bics	r5, r1
10001174:	589b      	ldr	r3, [r3, r2]
10001176:	464a      	mov	r2, r9
10001178:	7015      	strb	r5, [r2, #0]
1000117a:	f3bf 8f5f 	dmb	sy
1000117e:	2200      	movs	r2, #0
10001180:	6022      	str	r2, [r4, #0]
10001182:	f38c 8810 	msr	PRIMASK, ip
10001186:	2b00      	cmp	r3, #0
10001188:	d006      	beq.n	10001198 <hardware_alarm_irq_handler+0x74>
1000118a:	4798      	blx	r3
1000118c:	e004      	b.n	10001198 <hardware_alarm_irq_handler+0x74>
1000118e:	f3bf 8f5f 	dmb	sy
10001192:	6023      	str	r3, [r4, #0]
10001194:	f38c 8810 	msr	PRIMASK, ip
10001198:	bc0c      	pop	{r2, r3}
1000119a:	4690      	mov	r8, r2
1000119c:	4699      	mov	r9, r3
1000119e:	bdf8      	pop	{r3, r4, r5, r6, r7, pc}
100011a0:	4b0c      	ldr	r3, [pc, #48]	; (100011d4 <hardware_alarm_irq_handler+0xb0>)
100011a2:	0092      	lsls	r2, r2, #2
100011a4:	4698      	mov	r8, r3
100011a6:	4442      	add	r2, r8
100011a8:	6813      	ldr	r3, [r2, #0]
100011aa:	6013      	str	r3, [r2, #0]
100011ac:	f3bf 8f5f 	dmb	sy
100011b0:	2300      	movs	r3, #0
100011b2:	6023      	str	r3, [r4, #0]
100011b4:	f38c 8810 	msr	PRIMASK, ip
100011b8:	e7ee      	b.n	10001198 <hardware_alarm_irq_handler+0x74>
100011ba:	46c0      	nop			; (mov r8, r8)
100011bc:	d0000128 	.word	0xd0000128
100011c0:	4005703c 	.word	0x4005703c
100011c4:	40054000 	.word	0x40054000
100011c8:	20001a15 	.word	0x20001a15
100011cc:	200019ec 	.word	0x200019ec
100011d0:	200013f8 	.word	0x200013f8
100011d4:	40053fd0 	.word	0x40053fd0

100011d8 <hardware_alarm_claim>:
100011d8:	b510      	push	{r4, lr}
100011da:	0001      	movs	r1, r0
100011dc:	4a02      	ldr	r2, [pc, #8]	; (100011e8 <hardware_alarm_claim+0x10>)
100011de:	4803      	ldr	r0, [pc, #12]	; (100011ec <hardware_alarm_claim+0x14>)
100011e0:	f7ff f8ce 	bl	10000380 <hw_claim_or_assert>
100011e4:	bd10      	pop	{r4, pc}
100011e6:	46c0      	nop			; (mov r8, r8)
100011e8:	10004a48 	.word	0x10004a48
100011ec:	20001a10 	.word	0x20001a10

100011f0 <time_us_64>:
100011f0:	4a04      	ldr	r2, [pc, #16]	; (10001204 <time_us_64+0x14>)
100011f2:	6a51      	ldr	r1, [r2, #36]	; 0x24
100011f4:	e000      	b.n	100011f8 <time_us_64+0x8>
100011f6:	0019      	movs	r1, r3
100011f8:	6a90      	ldr	r0, [r2, #40]	; 0x28
100011fa:	6a53      	ldr	r3, [r2, #36]	; 0x24
100011fc:	4299      	cmp	r1, r3
100011fe:	d1fa      	bne.n	100011f6 <time_us_64+0x6>
10001200:	4770      	bx	lr
10001202:	46c0      	nop			; (mov r8, r8)
10001204:	40054000 	.word	0x40054000

10001208 <busy_wait_until>:
10001208:	4a06      	ldr	r2, [pc, #24]	; (10001224 <busy_wait_until+0x1c>)
1000120a:	6a53      	ldr	r3, [r2, #36]	; 0x24
1000120c:	4299      	cmp	r1, r3
1000120e:	d8fc      	bhi.n	1000120a <busy_wait_until+0x2>
10001210:	d107      	bne.n	10001222 <busy_wait_until+0x1a>
10001212:	4b04      	ldr	r3, [pc, #16]	; (10001224 <busy_wait_until+0x1c>)
10001214:	e002      	b.n	1000121c <busy_wait_until+0x14>
10001216:	6a5a      	ldr	r2, [r3, #36]	; 0x24
10001218:	4291      	cmp	r1, r2
1000121a:	d102      	bne.n	10001222 <busy_wait_until+0x1a>
1000121c:	6a9a      	ldr	r2, [r3, #40]	; 0x28
1000121e:	4282      	cmp	r2, r0
10001220:	d3f9      	bcc.n	10001216 <busy_wait_until+0xe>
10001222:	4770      	bx	lr
10001224:	40054000 	.word	0x40054000

10001228 <hardware_alarm_set_callback>:
10001228:	b570      	push	{r4, r5, r6, lr}
1000122a:	0004      	movs	r4, r0
1000122c:	000d      	movs	r5, r1
1000122e:	f3ef 8610 	mrs	r6, PRIMASK
10001232:	b672      	cpsid	i
10001234:	4a1a      	ldr	r2, [pc, #104]	; (100012a0 <hardware_alarm_set_callback+0x78>)
10001236:	6813      	ldr	r3, [r2, #0]
10001238:	2b00      	cmp	r3, #0
1000123a:	d0fc      	beq.n	10001236 <hardware_alarm_set_callback+0xe>
1000123c:	f3bf 8f5f 	dmb	sy
10001240:	2d00      	cmp	r5, #0
10001242:	d01b      	beq.n	1000127c <hardware_alarm_set_callback+0x54>
10001244:	0020      	movs	r0, r4
10001246:	f7ff f965 	bl	10000514 <irq_get_vtable_handler>
1000124a:	4916      	ldr	r1, [pc, #88]	; (100012a4 <hardware_alarm_set_callback+0x7c>)
1000124c:	4288      	cmp	r0, r1
1000124e:	d00a      	beq.n	10001266 <hardware_alarm_set_callback+0x3e>
10001250:	0020      	movs	r0, r4
10001252:	f7ff f967 	bl	10000524 <irq_set_exclusive_handler>
10001256:	2101      	movs	r1, #1
10001258:	0020      	movs	r0, r4
1000125a:	f7ff f92b 	bl	100004b4 <irq_set_enabled>
1000125e:	2301      	movs	r3, #1
10001260:	40a3      	lsls	r3, r4
10001262:	4a11      	ldr	r2, [pc, #68]	; (100012a8 <hardware_alarm_set_callback+0x80>)
10001264:	6013      	str	r3, [r2, #0]
10001266:	4b11      	ldr	r3, [pc, #68]	; (100012ac <hardware_alarm_set_callback+0x84>)
10001268:	00a4      	lsls	r4, r4, #2
1000126a:	50e5      	str	r5, [r4, r3]
1000126c:	f3bf 8f5f 	dmb	sy
10001270:	2200      	movs	r2, #0
10001272:	4b0b      	ldr	r3, [pc, #44]	; (100012a0 <hardware_alarm_set_callback+0x78>)
10001274:	601a      	str	r2, [r3, #0]
10001276:	f386 8810 	msr	PRIMASK, r6
1000127a:	bd70      	pop	{r4, r5, r6, pc}
1000127c:	4b0b      	ldr	r3, [pc, #44]	; (100012ac <hardware_alarm_set_callback+0x84>)
1000127e:	00a2      	lsls	r2, r4, #2
10001280:	50d5      	str	r5, [r2, r3]
10001282:	2201      	movs	r2, #1
10001284:	40a2      	lsls	r2, r4
10001286:	490a      	ldr	r1, [pc, #40]	; (100012b0 <hardware_alarm_set_callback+0x88>)
10001288:	0020      	movs	r0, r4
1000128a:	780b      	ldrb	r3, [r1, #0]
1000128c:	4393      	bics	r3, r2
1000128e:	700b      	strb	r3, [r1, #0]
10001290:	4904      	ldr	r1, [pc, #16]	; (100012a4 <hardware_alarm_set_callback+0x7c>)
10001292:	f7ff fa55 	bl	10000740 <irq_remove_handler>
10001296:	2100      	movs	r1, #0
10001298:	0020      	movs	r0, r4
1000129a:	f7ff f90b 	bl	100004b4 <irq_set_enabled>
1000129e:	e7e5      	b.n	1000126c <hardware_alarm_set_callback+0x44>
100012a0:	d0000128 	.word	0xd0000128
100012a4:	10001125 	.word	0x10001125
100012a8:	40056038 	.word	0x40056038
100012ac:	200013f8 	.word	0x200013f8
100012b0:	20001a15 	.word	0x20001a15

100012b4 <hardware_alarm_set_target>:
100012b4:	b5f0      	push	{r4, r5, r6, r7, lr}
100012b6:	46d6      	mov	lr, sl
100012b8:	464f      	mov	r7, r9
100012ba:	4646      	mov	r6, r8
100012bc:	4c32      	ldr	r4, [pc, #200]	; (10001388 <hardware_alarm_set_target+0xd4>)
100012be:	b5c0      	push	{r6, r7, lr}
100012c0:	6a65      	ldr	r5, [r4, #36]	; 0x24
100012c2:	e000      	b.n	100012c6 <hardware_alarm_set_target+0x12>
100012c4:	000d      	movs	r5, r1
100012c6:	6aa6      	ldr	r6, [r4, #40]	; 0x28
100012c8:	6a61      	ldr	r1, [r4, #36]	; 0x24
100012ca:	42a9      	cmp	r1, r5
100012cc:	d1fa      	bne.n	100012c4 <hardware_alarm_set_target+0x10>
100012ce:	42ab      	cmp	r3, r5
100012d0:	d809      	bhi.n	100012e6 <hardware_alarm_set_target+0x32>
100012d2:	d006      	beq.n	100012e2 <hardware_alarm_set_target+0x2e>
100012d4:	2401      	movs	r4, #1
100012d6:	0020      	movs	r0, r4
100012d8:	bc1c      	pop	{r2, r3, r4}
100012da:	4690      	mov	r8, r2
100012dc:	4699      	mov	r9, r3
100012de:	46a2      	mov	sl, r4
100012e0:	bdf0      	pop	{r4, r5, r6, r7, pc}
100012e2:	42b2      	cmp	r2, r6
100012e4:	d9f6      	bls.n	100012d4 <hardware_alarm_set_target+0x20>
100012e6:	f3ef 8910 	mrs	r9, PRIMASK
100012ea:	b672      	cpsid	i
100012ec:	4c27      	ldr	r4, [pc, #156]	; (1000138c <hardware_alarm_set_target+0xd8>)
100012ee:	6821      	ldr	r1, [r4, #0]
100012f0:	2900      	cmp	r1, #0
100012f2:	d0fc      	beq.n	100012ee <hardware_alarm_set_target+0x3a>
100012f4:	f3bf 8f5f 	dmb	sy
100012f8:	2601      	movs	r6, #1
100012fa:	4925      	ldr	r1, [pc, #148]	; (10001390 <hardware_alarm_set_target+0xdc>)
100012fc:	4086      	lsls	r6, r0
100012fe:	468c      	mov	ip, r1
10001300:	7809      	ldrb	r1, [r1, #0]
10001302:	4d24      	ldr	r5, [pc, #144]	; (10001394 <hardware_alarm_set_target+0xe0>)
10001304:	000f      	movs	r7, r1
10001306:	4337      	orrs	r7, r6
10001308:	4688      	mov	r8, r1
1000130a:	b2f9      	uxtb	r1, r7
1000130c:	468a      	mov	sl, r1
1000130e:	4661      	mov	r1, ip
10001310:	4654      	mov	r4, sl
10001312:	700c      	strb	r4, [r1, #0]
10001314:	491c      	ldr	r1, [pc, #112]	; (10001388 <hardware_alarm_set_target+0xd4>)
10001316:	1d04      	adds	r4, r0, #4
10001318:	00a4      	lsls	r4, r4, #2
1000131a:	634e      	str	r6, [r1, #52]	; 0x34
1000131c:	5062      	str	r2, [r4, r1]
1000131e:	0084      	lsls	r4, r0, #2
10001320:	5163      	str	r3, [r4, r5]
10001322:	6a0d      	ldr	r5, [r1, #32]
10001324:	2400      	movs	r4, #0
10001326:	4235      	tst	r5, r6
10001328:	d01a      	beq.n	10001360 <hardware_alarm_set_target+0xac>
1000132a:	6a4d      	ldr	r5, [r1, #36]	; 0x24
1000132c:	e000      	b.n	10001330 <hardware_alarm_set_target+0x7c>
1000132e:	0025      	movs	r5, r4
10001330:	6a8f      	ldr	r7, [r1, #40]	; 0x28
10001332:	6a4c      	ldr	r4, [r1, #36]	; 0x24
10001334:	42ac      	cmp	r4, r5
10001336:	d1fa      	bne.n	1000132e <hardware_alarm_set_target+0x7a>
10001338:	42ab      	cmp	r3, r5
1000133a:	d819      	bhi.n	10001370 <hardware_alarm_set_target+0xbc>
1000133c:	d101      	bne.n	10001342 <hardware_alarm_set_target+0x8e>
1000133e:	42ba      	cmp	r2, r7
10001340:	d816      	bhi.n	10001370 <hardware_alarm_set_target+0xbc>
10001342:	45c2      	cmp	sl, r8
10001344:	d01d      	beq.n	10001382 <hardware_alarm_set_target+0xce>
10001346:	4b10      	ldr	r3, [pc, #64]	; (10001388 <hardware_alarm_set_target+0xd4>)
10001348:	4a13      	ldr	r2, [pc, #76]	; (10001398 <hardware_alarm_set_target+0xe4>)
1000134a:	621e      	str	r6, [r3, #32]
1000134c:	635e      	str	r6, [r3, #52]	; 0x34
1000134e:	231f      	movs	r3, #31
10001350:	4018      	ands	r0, r3
10001352:	3b1e      	subs	r3, #30
10001354:	4083      	lsls	r3, r0
10001356:	6013      	str	r3, [r2, #0]
10001358:	4663      	mov	r3, ip
1000135a:	4642      	mov	r2, r8
1000135c:	2401      	movs	r4, #1
1000135e:	701a      	strb	r2, [r3, #0]
10001360:	f3bf 8f5f 	dmb	sy
10001364:	2200      	movs	r2, #0
10001366:	4b09      	ldr	r3, [pc, #36]	; (1000138c <hardware_alarm_set_target+0xd8>)
10001368:	601a      	str	r2, [r3, #0]
1000136a:	f389 8810 	msr	PRIMASK, r9
1000136e:	e7b2      	b.n	100012d6 <hardware_alarm_set_target+0x22>
10001370:	2400      	movs	r4, #0
10001372:	f3bf 8f5f 	dmb	sy
10001376:	2200      	movs	r2, #0
10001378:	4b04      	ldr	r3, [pc, #16]	; (1000138c <hardware_alarm_set_target+0xd8>)
1000137a:	601a      	str	r2, [r3, #0]
1000137c:	f389 8810 	msr	PRIMASK, r9
10001380:	e7a9      	b.n	100012d6 <hardware_alarm_set_target+0x22>
10001382:	2401      	movs	r4, #1
10001384:	e7ec      	b.n	10001360 <hardware_alarm_set_target+0xac>
10001386:	46c0      	nop			; (mov r8, r8)
10001388:	40054000 	.word	0x40054000
1000138c:	d0000128 	.word	0xd0000128
10001390:	20001a15 	.word	0x20001a15
10001394:	200019ec 	.word	0x200019ec
10001398:	e000e280 	.word	0xe000e280

1000139c <hardware_alarm_cancel>:
1000139c:	b510      	push	{r4, lr}
1000139e:	f3ef 8410 	mrs	r4, PRIMASK
100013a2:	b672      	cpsid	i
100013a4:	490a      	ldr	r1, [pc, #40]	; (100013d0 <hardware_alarm_cancel+0x34>)
100013a6:	680b      	ldr	r3, [r1, #0]
100013a8:	2b00      	cmp	r3, #0
100013aa:	d0fc      	beq.n	100013a6 <hardware_alarm_cancel+0xa>
100013ac:	f3bf 8f5f 	dmb	sy
100013b0:	2301      	movs	r3, #1
100013b2:	4083      	lsls	r3, r0
100013b4:	4a07      	ldr	r2, [pc, #28]	; (100013d4 <hardware_alarm_cancel+0x38>)
100013b6:	4808      	ldr	r0, [pc, #32]	; (100013d8 <hardware_alarm_cancel+0x3c>)
100013b8:	6213      	str	r3, [r2, #32]
100013ba:	7802      	ldrb	r2, [r0, #0]
100013bc:	439a      	bics	r2, r3
100013be:	7002      	strb	r2, [r0, #0]
100013c0:	f3bf 8f5f 	dmb	sy
100013c4:	2300      	movs	r3, #0
100013c6:	600b      	str	r3, [r1, #0]
100013c8:	f384 8810 	msr	PRIMASK, r4
100013cc:	bd10      	pop	{r4, pc}
100013ce:	46c0      	nop			; (mov r8, r8)
100013d0:	d0000128 	.word	0xd0000128
100013d4:	40054000 	.word	0x40054000
100013d8:	20001a15 	.word	0x20001a15

100013dc <ph_merge_nodes>:
100013dc:	b570      	push	{r4, r5, r6, lr}
100013de:	0006      	movs	r6, r0
100013e0:	000d      	movs	r5, r1
100013e2:	0014      	movs	r4, r2
100013e4:	2900      	cmp	r1, #0
100013e6:	d01e      	beq.n	10001426 <ph_merge_nodes+0x4a>
100013e8:	2a00      	cmp	r2, #0
100013ea:	d01e      	beq.n	1000142a <ph_merge_nodes+0x4e>
100013ec:	6873      	ldr	r3, [r6, #4]
100013ee:	6880      	ldr	r0, [r0, #8]
100013f0:	4798      	blx	r3
100013f2:	0063      	lsls	r3, r4, #1
100013f4:	006a      	lsls	r2, r5, #1
100013f6:	191b      	adds	r3, r3, r4
100013f8:	1952      	adds	r2, r2, r5
100013fa:	3b03      	subs	r3, #3
100013fc:	3a03      	subs	r2, #3
100013fe:	6831      	ldr	r1, [r6, #0]
10001400:	2800      	cmp	r0, #0
10001402:	d008      	beq.n	10001416 <ph_merge_nodes+0x3a>
10001404:	18cb      	adds	r3, r1, r3
10001406:	188a      	adds	r2, r1, r2
10001408:	709d      	strb	r5, [r3, #2]
1000140a:	7811      	ldrb	r1, [r2, #0]
1000140c:	2900      	cmp	r1, #0
1000140e:	d10e      	bne.n	1000142e <ph_merge_nodes+0x52>
10001410:	7014      	strb	r4, [r2, #0]
10001412:	0028      	movs	r0, r5
10001414:	e008      	b.n	10001428 <ph_merge_nodes+0x4c>
10001416:	188a      	adds	r2, r1, r2
10001418:	18cb      	adds	r3, r1, r3
1000141a:	7094      	strb	r4, [r2, #2]
1000141c:	7819      	ldrb	r1, [r3, #0]
1000141e:	2900      	cmp	r1, #0
10001420:	d000      	beq.n	10001424 <ph_merge_nodes+0x48>
10001422:	7051      	strb	r1, [r2, #1]
10001424:	701d      	strb	r5, [r3, #0]
10001426:	0020      	movs	r0, r4
10001428:	bd70      	pop	{r4, r5, r6, pc}
1000142a:	0008      	movs	r0, r1
1000142c:	e7fc      	b.n	10001428 <ph_merge_nodes+0x4c>
1000142e:	7059      	strb	r1, [r3, #1]
10001430:	0028      	movs	r0, r5
10001432:	7014      	strb	r4, [r2, #0]
10001434:	e7f8      	b.n	10001428 <ph_merge_nodes+0x4c>
10001436:	46c0      	nop			; (mov r8, r8)

10001438 <ph_post_alloc_init>:
10001438:	b5f0      	push	{r4, r5, r6, r7, lr}
1000143a:	46de      	mov	lr, fp
1000143c:	4657      	mov	r7, sl
1000143e:	464e      	mov	r6, r9
10001440:	4645      	mov	r5, r8
10001442:	b5e0      	push	{r5, r6, r7, lr}
10001444:	6083      	str	r3, [r0, #8]
10001446:	2300      	movs	r3, #0
10001448:	b089      	sub	sp, #36	; 0x24
1000144a:	6042      	str	r2, [r0, #4]
1000144c:	6802      	ldr	r2, [r0, #0]
1000144e:	9106      	str	r1, [sp, #24]
10001450:	7343      	strb	r3, [r0, #13]
10001452:	b2c9      	uxtb	r1, r1
10001454:	3301      	adds	r3, #1
10001456:	9105      	str	r1, [sp, #20]
10001458:	7301      	strb	r1, [r0, #12]
1000145a:	7383      	strb	r3, [r0, #14]
1000145c:	73c1      	strb	r1, [r0, #15]
1000145e:	9204      	str	r2, [sp, #16]
10001460:	2901      	cmp	r1, #1
10001462:	d800      	bhi.n	10001466 <ph_post_alloc_init+0x2e>
10001464:	e0a4      	b.n	100015b0 <ph_post_alloc_init+0x178>
10001466:	000a      	movs	r2, r1
10001468:	1e4b      	subs	r3, r1, #1
1000146a:	b2d9      	uxtb	r1, r3
1000146c:	1e93      	subs	r3, r2, #2
1000146e:	9107      	str	r1, [sp, #28]
10001470:	2b07      	cmp	r3, #7
10001472:	d800      	bhi.n	10001476 <ph_post_alloc_init+0x3e>
10001474:	e0ae      	b.n	100015d4 <ph_post_alloc_init+0x19c>
10001476:	2500      	movs	r5, #0
10001478:	08cb      	lsrs	r3, r1, #3
1000147a:	9303      	str	r3, [sp, #12]
1000147c:	9b04      	ldr	r3, [sp, #16]
1000147e:	4c56      	ldr	r4, [pc, #344]	; (100015d8 <ph_post_alloc_init+0x1a0>)
10001480:	1c59      	adds	r1, r3, #1
10001482:	4b56      	ldr	r3, [pc, #344]	; (100015dc <ph_post_alloc_init+0x1a4>)
10001484:	4856      	ldr	r0, [pc, #344]	; (100015e0 <ph_post_alloc_init+0x1a8>)
10001486:	469b      	mov	fp, r3
10001488:	4b56      	ldr	r3, [pc, #344]	; (100015e4 <ph_post_alloc_init+0x1ac>)
1000148a:	469a      	mov	sl, r3
1000148c:	4b56      	ldr	r3, [pc, #344]	; (100015e8 <ph_post_alloc_init+0x1b0>)
1000148e:	469c      	mov	ip, r3
10001490:	4b56      	ldr	r3, [pc, #344]	; (100015ec <ph_post_alloc_init+0x1b4>)
10001492:	9302      	str	r3, [sp, #8]
10001494:	4652      	mov	r2, sl
10001496:	4663      	mov	r3, ip
10001498:	465f      	mov	r7, fp
1000149a:	465e      	mov	r6, fp
1000149c:	4062      	eors	r2, r4
1000149e:	401a      	ands	r2, r3
100014a0:	4b50      	ldr	r3, [pc, #320]	; (100015e4 <ph_post_alloc_init+0x1ac>)
100014a2:	4027      	ands	r7, r4
100014a4:	18fb      	adds	r3, r7, r3
100014a6:	405a      	eors	r2, r3
100014a8:	4006      	ands	r6, r0
100014aa:	4653      	mov	r3, sl
100014ac:	9601      	str	r6, [sp, #4]
100014ae:	4666      	mov	r6, ip
100014b0:	4043      	eors	r3, r0
100014b2:	4033      	ands	r3, r6
100014b4:	4e4b      	ldr	r6, [pc, #300]	; (100015e4 <ph_post_alloc_init+0x1ac>)
100014b6:	700a      	strb	r2, [r1, #0]
100014b8:	46b0      	mov	r8, r6
100014ba:	9e01      	ldr	r6, [sp, #4]
100014bc:	3501      	adds	r5, #1
100014be:	46b1      	mov	r9, r6
100014c0:	44c8      	add	r8, r9
100014c2:	4646      	mov	r6, r8
100014c4:	4073      	eors	r3, r6
100014c6:	0416      	lsls	r6, r2, #16
100014c8:	0e36      	lsrs	r6, r6, #24
100014ca:	70ce      	strb	r6, [r1, #3]
100014cc:	0216      	lsls	r6, r2, #8
100014ce:	0e12      	lsrs	r2, r2, #24
100014d0:	724a      	strb	r2, [r1, #9]
100014d2:	041a      	lsls	r2, r3, #16
100014d4:	0e12      	lsrs	r2, r2, #24
100014d6:	730b      	strb	r3, [r1, #12]
100014d8:	73ca      	strb	r2, [r1, #15]
100014da:	021a      	lsls	r2, r3, #8
100014dc:	0e1b      	lsrs	r3, r3, #24
100014de:	754b      	strb	r3, [r1, #21]
100014e0:	9b02      	ldr	r3, [sp, #8]
100014e2:	0e36      	lsrs	r6, r6, #24
100014e4:	405c      	eors	r4, r3
100014e6:	4663      	mov	r3, ip
100014e8:	401c      	ands	r4, r3
100014ea:	4b40      	ldr	r3, [pc, #256]	; (100015ec <ph_post_alloc_init+0x1b4>)
100014ec:	0e12      	lsrs	r2, r2, #24
100014ee:	4698      	mov	r8, r3
100014f0:	9b02      	ldr	r3, [sp, #8]
100014f2:	4447      	add	r7, r8
100014f4:	4058      	eors	r0, r3
100014f6:	4663      	mov	r3, ip
100014f8:	4018      	ands	r0, r3
100014fa:	464b      	mov	r3, r9
100014fc:	4443      	add	r3, r8
100014fe:	4058      	eors	r0, r3
10001500:	9b03      	ldr	r3, [sp, #12]
10001502:	b2ed      	uxtb	r5, r5
10001504:	718e      	strb	r6, [r1, #6]
10001506:	748a      	strb	r2, [r1, #18]
10001508:	407c      	eors	r4, r7
1000150a:	3118      	adds	r1, #24
1000150c:	42ab      	cmp	r3, r5
1000150e:	d1c1      	bne.n	10001494 <ph_post_alloc_init+0x5c>
10001510:	9907      	ldr	r1, [sp, #28]
10001512:	2307      	movs	r3, #7
10001514:	000a      	movs	r2, r1
10001516:	439a      	bics	r2, r3
10001518:	1c53      	adds	r3, r2, #1
1000151a:	b2db      	uxtb	r3, r3
1000151c:	4291      	cmp	r1, r2
1000151e:	d047      	beq.n	100015b0 <ph_post_alloc_init+0x178>
10001520:	9c04      	ldr	r4, [sp, #16]
10001522:	005a      	lsls	r2, r3, #1
10001524:	46a4      	mov	ip, r4
10001526:	18d2      	adds	r2, r2, r3
10001528:	1c59      	adds	r1, r3, #1
1000152a:	4462      	add	r2, ip
1000152c:	9d05      	ldr	r5, [sp, #20]
1000152e:	b2c9      	uxtb	r1, r1
10001530:	3a03      	subs	r2, #3
10001532:	7051      	strb	r1, [r2, #1]
10001534:	428d      	cmp	r5, r1
10001536:	d93b      	bls.n	100015b0 <ph_post_alloc_init+0x178>
10001538:	004a      	lsls	r2, r1, #1
1000153a:	1852      	adds	r2, r2, r1
1000153c:	1c98      	adds	r0, r3, #2
1000153e:	4462      	add	r2, ip
10001540:	b2c0      	uxtb	r0, r0
10001542:	3a03      	subs	r2, #3
10001544:	7050      	strb	r0, [r2, #1]
10001546:	4285      	cmp	r5, r0
10001548:	d932      	bls.n	100015b0 <ph_post_alloc_init+0x178>
1000154a:	0042      	lsls	r2, r0, #1
1000154c:	1812      	adds	r2, r2, r0
1000154e:	1cd9      	adds	r1, r3, #3
10001550:	4462      	add	r2, ip
10001552:	b2c9      	uxtb	r1, r1
10001554:	3a03      	subs	r2, #3
10001556:	7051      	strb	r1, [r2, #1]
10001558:	428d      	cmp	r5, r1
1000155a:	d929      	bls.n	100015b0 <ph_post_alloc_init+0x178>
1000155c:	004a      	lsls	r2, r1, #1
1000155e:	1852      	adds	r2, r2, r1
10001560:	1d18      	adds	r0, r3, #4
10001562:	4462      	add	r2, ip
10001564:	b2c0      	uxtb	r0, r0
10001566:	3a03      	subs	r2, #3
10001568:	7050      	strb	r0, [r2, #1]
1000156a:	4285      	cmp	r5, r0
1000156c:	d920      	bls.n	100015b0 <ph_post_alloc_init+0x178>
1000156e:	0042      	lsls	r2, r0, #1
10001570:	1812      	adds	r2, r2, r0
10001572:	1d59      	adds	r1, r3, #5
10001574:	4462      	add	r2, ip
10001576:	b2c9      	uxtb	r1, r1
10001578:	3a03      	subs	r2, #3
1000157a:	7051      	strb	r1, [r2, #1]
1000157c:	428d      	cmp	r5, r1
1000157e:	d917      	bls.n	100015b0 <ph_post_alloc_init+0x178>
10001580:	004a      	lsls	r2, r1, #1
10001582:	1852      	adds	r2, r2, r1
10001584:	1d98      	adds	r0, r3, #6
10001586:	4462      	add	r2, ip
10001588:	b2c0      	uxtb	r0, r0
1000158a:	3a03      	subs	r2, #3
1000158c:	7050      	strb	r0, [r2, #1]
1000158e:	4285      	cmp	r5, r0
10001590:	d90e      	bls.n	100015b0 <ph_post_alloc_init+0x178>
10001592:	0042      	lsls	r2, r0, #1
10001594:	1812      	adds	r2, r2, r0
10001596:	1dd9      	adds	r1, r3, #7
10001598:	4462      	add	r2, ip
1000159a:	b2c9      	uxtb	r1, r1
1000159c:	3a03      	subs	r2, #3
1000159e:	7051      	strb	r1, [r2, #1]
100015a0:	428d      	cmp	r5, r1
100015a2:	d905      	bls.n	100015b0 <ph_post_alloc_init+0x178>
100015a4:	004a      	lsls	r2, r1, #1
100015a6:	1852      	adds	r2, r2, r1
100015a8:	4462      	add	r2, ip
100015aa:	3a03      	subs	r2, #3
100015ac:	3308      	adds	r3, #8
100015ae:	7053      	strb	r3, [r2, #1]
100015b0:	23ff      	movs	r3, #255	; 0xff
100015b2:	9a06      	ldr	r2, [sp, #24]
100015b4:	4013      	ands	r3, r2
100015b6:	0059      	lsls	r1, r3, #1
100015b8:	18c9      	adds	r1, r1, r3
100015ba:	9b04      	ldr	r3, [sp, #16]
100015bc:	469c      	mov	ip, r3
100015be:	2300      	movs	r3, #0
100015c0:	4461      	add	r1, ip
100015c2:	3903      	subs	r1, #3
100015c4:	704b      	strb	r3, [r1, #1]
100015c6:	b009      	add	sp, #36	; 0x24
100015c8:	bc3c      	pop	{r2, r3, r4, r5}
100015ca:	4690      	mov	r8, r2
100015cc:	4699      	mov	r9, r3
100015ce:	46a2      	mov	sl, r4
100015d0:	46ab      	mov	fp, r5
100015d2:	bdf0      	pop	{r4, r5, r6, r7, pc}
100015d4:	2301      	movs	r3, #1
100015d6:	e7a3      	b.n	10001520 <ph_post_alloc_init+0xe8>
100015d8:	04030201 	.word	0x04030201
100015dc:	7f7f7f7f 	.word	0x7f7f7f7f
100015e0:	08070605 	.word	0x08070605
100015e4:	01010101 	.word	0x01010101
100015e8:	80808080 	.word	0x80808080
100015ec:	08080808 	.word	0x08080808

100015f0 <ph_merge_two_pass>:
100015f0:	b570      	push	{r4, r5, r6, lr}
100015f2:	0004      	movs	r4, r0
100015f4:	2900      	cmp	r1, #0
100015f6:	d007      	beq.n	10001608 <ph_merge_two_pass+0x18>
100015f8:	004b      	lsls	r3, r1, #1
100015fa:	6800      	ldr	r0, [r0, #0]
100015fc:	185b      	adds	r3, r3, r1
100015fe:	3b03      	subs	r3, #3
10001600:	18c3      	adds	r3, r0, r3
10001602:	785a      	ldrb	r2, [r3, #1]
10001604:	2a00      	cmp	r2, #0
10001606:	d101      	bne.n	1000160c <ph_merge_two_pass+0x1c>
10001608:	0008      	movs	r0, r1
1000160a:	bd70      	pop	{r4, r5, r6, pc}
1000160c:	0055      	lsls	r5, r2, #1
1000160e:	18ad      	adds	r5, r5, r2
10001610:	3d03      	subs	r5, #3
10001612:	1940      	adds	r0, r0, r5
10001614:	2500      	movs	r5, #0
10001616:	7846      	ldrb	r6, [r0, #1]
10001618:	7045      	strb	r5, [r0, #1]
1000161a:	705d      	strb	r5, [r3, #1]
1000161c:	0020      	movs	r0, r4
1000161e:	f7ff fedd 	bl	100013dc <ph_merge_nodes>
10001622:	0031      	movs	r1, r6
10001624:	0005      	movs	r5, r0
10001626:	0020      	movs	r0, r4
10001628:	f7ff ffe2 	bl	100015f0 <ph_merge_two_pass>
1000162c:	0029      	movs	r1, r5
1000162e:	0002      	movs	r2, r0
10001630:	0020      	movs	r0, r4
10001632:	f7ff fed3 	bl	100013dc <ph_merge_nodes>
10001636:	0001      	movs	r1, r0
10001638:	e7e6      	b.n	10001608 <ph_merge_two_pass+0x18>
1000163a:	46c0      	nop			; (mov r8, r8)

1000163c <ph_remove_any_head>:
1000163c:	b5f0      	push	{r4, r5, r6, r7, lr}
1000163e:	464e      	mov	r6, r9
10001640:	4645      	mov	r5, r8
10001642:	46de      	mov	lr, fp
10001644:	4657      	mov	r7, sl
10001646:	b5e0      	push	{r5, r6, r7, lr}
10001648:	000e      	movs	r6, r1
1000164a:	0074      	lsls	r4, r6, #1
1000164c:	6801      	ldr	r1, [r0, #0]
1000164e:	19a4      	adds	r4, r4, r6
10001650:	b085      	sub	sp, #20
10001652:	3c03      	subs	r4, #3
10001654:	9201      	str	r2, [sp, #4]
10001656:	190a      	adds	r2, r1, r4
10001658:	0005      	movs	r5, r0
1000165a:	7810      	ldrb	r0, [r2, #0]
1000165c:	2800      	cmp	r0, #0
1000165e:	d050      	beq.n	10001702 <ph_remove_any_head+0xc6>
10001660:	0043      	lsls	r3, r0, #1
10001662:	181b      	adds	r3, r3, r0
10001664:	3b03      	subs	r3, #3
10001666:	18cb      	adds	r3, r1, r3
10001668:	785f      	ldrb	r7, [r3, #1]
1000166a:	46bc      	mov	ip, r7
1000166c:	2f00      	cmp	r7, #0
1000166e:	d11a      	bne.n	100016a6 <ph_remove_any_head+0x6a>
10001670:	9c01      	ldr	r4, [sp, #4]
10001672:	2c00      	cmp	r4, #0
10001674:	d042      	beq.n	100016fc <ph_remove_any_head+0xc0>
10001676:	7bec      	ldrb	r4, [r5, #15]
10001678:	2c00      	cmp	r4, #0
1000167a:	d004      	beq.n	10001686 <ph_remove_any_head+0x4a>
1000167c:	0063      	lsls	r3, r4, #1
1000167e:	191b      	adds	r3, r3, r4
10001680:	18cb      	adds	r3, r1, r3
10001682:	3b03      	subs	r3, #3
10001684:	705e      	strb	r6, [r3, #1]
10001686:	7bab      	ldrb	r3, [r5, #14]
10001688:	2b00      	cmp	r3, #0
1000168a:	d100      	bne.n	1000168e <ph_remove_any_head+0x52>
1000168c:	73ae      	strb	r6, [r5, #14]
1000168e:	73ee      	strb	r6, [r5, #15]
10001690:	2800      	cmp	r0, #0
10001692:	d12f      	bne.n	100016f4 <ph_remove_any_head+0xb8>
10001694:	2300      	movs	r3, #0
10001696:	7053      	strb	r3, [r2, #1]
10001698:	b005      	add	sp, #20
1000169a:	bc3c      	pop	{r2, r3, r4, r5}
1000169c:	4690      	mov	r8, r2
1000169e:	4699      	mov	r9, r3
100016a0:	46a2      	mov	sl, r4
100016a2:	46ab      	mov	fp, r5
100016a4:	bdf0      	pop	{r4, r5, r6, r7, pc}
100016a6:	007a      	lsls	r2, r7, #1
100016a8:	4462      	add	r2, ip
100016aa:	3a03      	subs	r2, #3
100016ac:	1889      	adds	r1, r1, r2
100016ae:	784a      	ldrb	r2, [r1, #1]
100016b0:	4693      	mov	fp, r2
100016b2:	2200      	movs	r2, #0
100016b4:	704a      	strb	r2, [r1, #1]
100016b6:	4690      	mov	r8, r2
100016b8:	705a      	strb	r2, [r3, #1]
100016ba:	0001      	movs	r1, r0
100016bc:	003a      	movs	r2, r7
100016be:	0028      	movs	r0, r5
100016c0:	f7ff fe8c 	bl	100013dc <ph_merge_nodes>
100016c4:	465b      	mov	r3, fp
100016c6:	4681      	mov	r9, r0
100016c8:	2b00      	cmp	r3, #0
100016ca:	d007      	beq.n	100016dc <ph_remove_any_head+0xa0>
100016cc:	005b      	lsls	r3, r3, #1
100016ce:	6829      	ldr	r1, [r5, #0]
100016d0:	445b      	add	r3, fp
100016d2:	3b03      	subs	r3, #3
100016d4:	18cb      	adds	r3, r1, r3
100016d6:	785a      	ldrb	r2, [r3, #1]
100016d8:	2a00      	cmp	r2, #0
100016da:	d116      	bne.n	1000170a <ph_remove_any_head+0xce>
100016dc:	465a      	mov	r2, fp
100016de:	4649      	mov	r1, r9
100016e0:	0028      	movs	r0, r5
100016e2:	f7ff fe7b 	bl	100013dc <ph_merge_nodes>
100016e6:	6829      	ldr	r1, [r5, #0]
100016e8:	9b01      	ldr	r3, [sp, #4]
100016ea:	190a      	adds	r2, r1, r4
100016ec:	2b00      	cmp	r3, #0
100016ee:	d1c2      	bne.n	10001676 <ph_remove_any_head+0x3a>
100016f0:	2800      	cmp	r0, #0
100016f2:	d0cf      	beq.n	10001694 <ph_remove_any_head+0x58>
100016f4:	0043      	lsls	r3, r0, #1
100016f6:	181b      	adds	r3, r3, r0
100016f8:	3b03      	subs	r3, #3
100016fa:	18cb      	adds	r3, r1, r3
100016fc:	2100      	movs	r1, #0
100016fe:	7099      	strb	r1, [r3, #2]
10001700:	e7c8      	b.n	10001694 <ph_remove_any_head+0x58>
10001702:	9b01      	ldr	r3, [sp, #4]
10001704:	2b00      	cmp	r3, #0
10001706:	d1b6      	bne.n	10001676 <ph_remove_any_head+0x3a>
10001708:	e7c4      	b.n	10001694 <ph_remove_any_head+0x58>
1000170a:	0050      	lsls	r0, r2, #1
1000170c:	1880      	adds	r0, r0, r2
1000170e:	3803      	subs	r0, #3
10001710:	1809      	adds	r1, r1, r0
10001712:	7848      	ldrb	r0, [r1, #1]
10001714:	4682      	mov	sl, r0
10001716:	4640      	mov	r0, r8
10001718:	7048      	strb	r0, [r1, #1]
1000171a:	7058      	strb	r0, [r3, #1]
1000171c:	4659      	mov	r1, fp
1000171e:	0028      	movs	r0, r5
10001720:	f7ff fe5c 	bl	100013dc <ph_merge_nodes>
10001724:	4653      	mov	r3, sl
10001726:	4683      	mov	fp, r0
10001728:	2b00      	cmp	r3, #0
1000172a:	d007      	beq.n	1000173c <ph_remove_any_head+0x100>
1000172c:	005b      	lsls	r3, r3, #1
1000172e:	6829      	ldr	r1, [r5, #0]
10001730:	4453      	add	r3, sl
10001732:	3b03      	subs	r3, #3
10001734:	18cb      	adds	r3, r1, r3
10001736:	785a      	ldrb	r2, [r3, #1]
10001738:	2a00      	cmp	r2, #0
1000173a:	d106      	bne.n	1000174a <ph_remove_any_head+0x10e>
1000173c:	4659      	mov	r1, fp
1000173e:	4652      	mov	r2, sl
10001740:	0028      	movs	r0, r5
10001742:	f7ff fe4b 	bl	100013dc <ph_merge_nodes>
10001746:	4683      	mov	fp, r0
10001748:	e7c8      	b.n	100016dc <ph_remove_any_head+0xa0>
1000174a:	0050      	lsls	r0, r2, #1
1000174c:	1880      	adds	r0, r0, r2
1000174e:	3803      	subs	r0, #3
10001750:	1809      	adds	r1, r1, r0
10001752:	4640      	mov	r0, r8
10001754:	784f      	ldrb	r7, [r1, #1]
10001756:	7048      	strb	r0, [r1, #1]
10001758:	7058      	strb	r0, [r3, #1]
1000175a:	4651      	mov	r1, sl
1000175c:	0028      	movs	r0, r5
1000175e:	9702      	str	r7, [sp, #8]
10001760:	f7ff fe3c 	bl	100013dc <ph_merge_nodes>
10001764:	4682      	mov	sl, r0
10001766:	2f00      	cmp	r7, #0
10001768:	d008      	beq.n	1000177c <ph_remove_any_head+0x140>
1000176a:	46bc      	mov	ip, r7
1000176c:	007b      	lsls	r3, r7, #1
1000176e:	6829      	ldr	r1, [r5, #0]
10001770:	4463      	add	r3, ip
10001772:	3b03      	subs	r3, #3
10001774:	18cb      	adds	r3, r1, r3
10001776:	785a      	ldrb	r2, [r3, #1]
10001778:	2a00      	cmp	r2, #0
1000177a:	d106      	bne.n	1000178a <ph_remove_any_head+0x14e>
1000177c:	4651      	mov	r1, sl
1000177e:	9a02      	ldr	r2, [sp, #8]
10001780:	0028      	movs	r0, r5
10001782:	f7ff fe2b 	bl	100013dc <ph_merge_nodes>
10001786:	4682      	mov	sl, r0
10001788:	e7d8      	b.n	1000173c <ph_remove_any_head+0x100>
1000178a:	0050      	lsls	r0, r2, #1
1000178c:	1880      	adds	r0, r0, r2
1000178e:	3803      	subs	r0, #3
10001790:	1809      	adds	r1, r1, r0
10001792:	4640      	mov	r0, r8
10001794:	784f      	ldrb	r7, [r1, #1]
10001796:	7048      	strb	r0, [r1, #1]
10001798:	7058      	strb	r0, [r3, #1]
1000179a:	9902      	ldr	r1, [sp, #8]
1000179c:	0028      	movs	r0, r5
1000179e:	9703      	str	r7, [sp, #12]
100017a0:	f7ff fe1c 	bl	100013dc <ph_merge_nodes>
100017a4:	4680      	mov	r8, r0
100017a6:	2f00      	cmp	r7, #0
100017a8:	d008      	beq.n	100017bc <ph_remove_any_head+0x180>
100017aa:	46bc      	mov	ip, r7
100017ac:	007b      	lsls	r3, r7, #1
100017ae:	6829      	ldr	r1, [r5, #0]
100017b0:	4463      	add	r3, ip
100017b2:	3b03      	subs	r3, #3
100017b4:	18cb      	adds	r3, r1, r3
100017b6:	785a      	ldrb	r2, [r3, #1]
100017b8:	2a00      	cmp	r2, #0
100017ba:	d106      	bne.n	100017ca <ph_remove_any_head+0x18e>
100017bc:	9a03      	ldr	r2, [sp, #12]
100017be:	4641      	mov	r1, r8
100017c0:	0028      	movs	r0, r5
100017c2:	f7ff fe0b 	bl	100013dc <ph_merge_nodes>
100017c6:	9002      	str	r0, [sp, #8]
100017c8:	e7d8      	b.n	1000177c <ph_remove_any_head+0x140>
100017ca:	2003      	movs	r0, #3
100017cc:	4350      	muls	r0, r2
100017ce:	3803      	subs	r0, #3
100017d0:	1809      	adds	r1, r1, r0
100017d2:	2000      	movs	r0, #0
100017d4:	784f      	ldrb	r7, [r1, #1]
100017d6:	7048      	strb	r0, [r1, #1]
100017d8:	7058      	strb	r0, [r3, #1]
100017da:	9903      	ldr	r1, [sp, #12]
100017dc:	0028      	movs	r0, r5
100017de:	f7ff fdfd 	bl	100013dc <ph_merge_nodes>
100017e2:	0039      	movs	r1, r7
100017e4:	9002      	str	r0, [sp, #8]
100017e6:	0028      	movs	r0, r5
100017e8:	f7ff ff02 	bl	100015f0 <ph_merge_two_pass>
100017ec:	9902      	ldr	r1, [sp, #8]
100017ee:	0002      	movs	r2, r0
100017f0:	0028      	movs	r0, r5
100017f2:	f7ff fdf3 	bl	100013dc <ph_merge_nodes>
100017f6:	9003      	str	r0, [sp, #12]
100017f8:	e7e0      	b.n	100017bc <ph_remove_any_head+0x180>
100017fa:	46c0      	nop			; (mov r8, r8)

100017fc <ph_remove_head>:
100017fc:	b5f0      	push	{r4, r5, r6, r7, lr}
100017fe:	464e      	mov	r6, r9
10001800:	4645      	mov	r5, r8
10001802:	46de      	mov	lr, fp
10001804:	4657      	mov	r7, sl
10001806:	b5e0      	push	{r5, r6, r7, lr}
10001808:	7b46      	ldrb	r6, [r0, #13]
1000180a:	0004      	movs	r4, r0
1000180c:	0075      	lsls	r5, r6, #1
1000180e:	6800      	ldr	r0, [r0, #0]
10001810:	19ad      	adds	r5, r5, r6
10001812:	3d03      	subs	r5, #3
10001814:	b085      	sub	sp, #20
10001816:	1942      	adds	r2, r0, r5
10001818:	9101      	str	r1, [sp, #4]
1000181a:	7811      	ldrb	r1, [r2, #0]
1000181c:	2900      	cmp	r1, #0
1000181e:	d052      	beq.n	100018c6 <ph_remove_head+0xca>
10001820:	004b      	lsls	r3, r1, #1
10001822:	185b      	adds	r3, r3, r1
10001824:	3b03      	subs	r3, #3
10001826:	18c3      	adds	r3, r0, r3
10001828:	785f      	ldrb	r7, [r3, #1]
1000182a:	46bc      	mov	ip, r7
1000182c:	2f00      	cmp	r7, #0
1000182e:	d11c      	bne.n	1000186a <ph_remove_head+0x6e>
10001830:	9d01      	ldr	r5, [sp, #4]
10001832:	2d00      	cmp	r5, #0
10001834:	d044      	beq.n	100018c0 <ph_remove_head+0xc4>
10001836:	7be5      	ldrb	r5, [r4, #15]
10001838:	2d00      	cmp	r5, #0
1000183a:	d004      	beq.n	10001846 <ph_remove_head+0x4a>
1000183c:	006b      	lsls	r3, r5, #1
1000183e:	195b      	adds	r3, r3, r5
10001840:	18c3      	adds	r3, r0, r3
10001842:	3b03      	subs	r3, #3
10001844:	705e      	strb	r6, [r3, #1]
10001846:	7ba3      	ldrb	r3, [r4, #14]
10001848:	2b00      	cmp	r3, #0
1000184a:	d100      	bne.n	1000184e <ph_remove_head+0x52>
1000184c:	73a6      	strb	r6, [r4, #14]
1000184e:	73e6      	strb	r6, [r4, #15]
10001850:	2900      	cmp	r1, #0
10001852:	d131      	bne.n	100018b8 <ph_remove_head+0xbc>
10001854:	2300      	movs	r3, #0
10001856:	0030      	movs	r0, r6
10001858:	7053      	strb	r3, [r2, #1]
1000185a:	7361      	strb	r1, [r4, #13]
1000185c:	b005      	add	sp, #20
1000185e:	bc3c      	pop	{r2, r3, r4, r5}
10001860:	4690      	mov	r8, r2
10001862:	4699      	mov	r9, r3
10001864:	46a2      	mov	sl, r4
10001866:	46ab      	mov	fp, r5
10001868:	bdf0      	pop	{r4, r5, r6, r7, pc}
1000186a:	007a      	lsls	r2, r7, #1
1000186c:	4462      	add	r2, ip
1000186e:	3a03      	subs	r2, #3
10001870:	1880      	adds	r0, r0, r2
10001872:	7842      	ldrb	r2, [r0, #1]
10001874:	4693      	mov	fp, r2
10001876:	2200      	movs	r2, #0
10001878:	7042      	strb	r2, [r0, #1]
1000187a:	4690      	mov	r8, r2
1000187c:	705a      	strb	r2, [r3, #1]
1000187e:	0020      	movs	r0, r4
10001880:	003a      	movs	r2, r7
10001882:	f7ff fdab 	bl	100013dc <ph_merge_nodes>
10001886:	465b      	mov	r3, fp
10001888:	4681      	mov	r9, r0
1000188a:	2b00      	cmp	r3, #0
1000188c:	d007      	beq.n	1000189e <ph_remove_head+0xa2>
1000188e:	005b      	lsls	r3, r3, #1
10001890:	6821      	ldr	r1, [r4, #0]
10001892:	445b      	add	r3, fp
10001894:	3b03      	subs	r3, #3
10001896:	18cb      	adds	r3, r1, r3
10001898:	785a      	ldrb	r2, [r3, #1]
1000189a:	2a00      	cmp	r2, #0
1000189c:	d117      	bne.n	100018ce <ph_remove_head+0xd2>
1000189e:	465a      	mov	r2, fp
100018a0:	4649      	mov	r1, r9
100018a2:	0020      	movs	r0, r4
100018a4:	f7ff fd9a 	bl	100013dc <ph_merge_nodes>
100018a8:	9b01      	ldr	r3, [sp, #4]
100018aa:	0001      	movs	r1, r0
100018ac:	6820      	ldr	r0, [r4, #0]
100018ae:	1942      	adds	r2, r0, r5
100018b0:	2b00      	cmp	r3, #0
100018b2:	d1c0      	bne.n	10001836 <ph_remove_head+0x3a>
100018b4:	2900      	cmp	r1, #0
100018b6:	d0cd      	beq.n	10001854 <ph_remove_head+0x58>
100018b8:	004b      	lsls	r3, r1, #1
100018ba:	185b      	adds	r3, r3, r1
100018bc:	3b03      	subs	r3, #3
100018be:	18c3      	adds	r3, r0, r3
100018c0:	2000      	movs	r0, #0
100018c2:	7098      	strb	r0, [r3, #2]
100018c4:	e7c6      	b.n	10001854 <ph_remove_head+0x58>
100018c6:	9b01      	ldr	r3, [sp, #4]
100018c8:	2b00      	cmp	r3, #0
100018ca:	d1b4      	bne.n	10001836 <ph_remove_head+0x3a>
100018cc:	e7c2      	b.n	10001854 <ph_remove_head+0x58>
100018ce:	0050      	lsls	r0, r2, #1
100018d0:	1880      	adds	r0, r0, r2
100018d2:	3803      	subs	r0, #3
100018d4:	1809      	adds	r1, r1, r0
100018d6:	7848      	ldrb	r0, [r1, #1]
100018d8:	4682      	mov	sl, r0
100018da:	4640      	mov	r0, r8
100018dc:	7048      	strb	r0, [r1, #1]
100018de:	7058      	strb	r0, [r3, #1]
100018e0:	4659      	mov	r1, fp
100018e2:	0020      	movs	r0, r4
100018e4:	f7ff fd7a 	bl	100013dc <ph_merge_nodes>
100018e8:	4653      	mov	r3, sl
100018ea:	4683      	mov	fp, r0
100018ec:	2b00      	cmp	r3, #0
100018ee:	d007      	beq.n	10001900 <ph_remove_head+0x104>
100018f0:	005b      	lsls	r3, r3, #1
100018f2:	6821      	ldr	r1, [r4, #0]
100018f4:	4453      	add	r3, sl
100018f6:	3b03      	subs	r3, #3
100018f8:	18cb      	adds	r3, r1, r3
100018fa:	785a      	ldrb	r2, [r3, #1]
100018fc:	2a00      	cmp	r2, #0
100018fe:	d106      	bne.n	1000190e <ph_remove_head+0x112>
10001900:	4659      	mov	r1, fp
10001902:	4652      	mov	r2, sl
10001904:	0020      	movs	r0, r4
10001906:	f7ff fd69 	bl	100013dc <ph_merge_nodes>
1000190a:	4683      	mov	fp, r0
1000190c:	e7c7      	b.n	1000189e <ph_remove_head+0xa2>
1000190e:	0050      	lsls	r0, r2, #1
10001910:	1880      	adds	r0, r0, r2
10001912:	3803      	subs	r0, #3
10001914:	1809      	adds	r1, r1, r0
10001916:	4640      	mov	r0, r8
10001918:	784f      	ldrb	r7, [r1, #1]
1000191a:	7048      	strb	r0, [r1, #1]
1000191c:	7058      	strb	r0, [r3, #1]
1000191e:	4651      	mov	r1, sl
10001920:	0020      	movs	r0, r4
10001922:	9702      	str	r7, [sp, #8]
10001924:	f7ff fd5a 	bl	100013dc <ph_merge_nodes>
10001928:	4682      	mov	sl, r0
1000192a:	2f00      	cmp	r7, #0
1000192c:	d008      	beq.n	10001940 <ph_remove_head+0x144>
1000192e:	46bc      	mov	ip, r7
10001930:	007b      	lsls	r3, r7, #1
10001932:	6821      	ldr	r1, [r4, #0]
10001934:	4463      	add	r3, ip
10001936:	3b03      	subs	r3, #3
10001938:	18cb      	adds	r3, r1, r3
1000193a:	785a      	ldrb	r2, [r3, #1]
1000193c:	2a00      	cmp	r2, #0
1000193e:	d106      	bne.n	1000194e <ph_remove_head+0x152>
10001940:	4651      	mov	r1, sl
10001942:	9a02      	ldr	r2, [sp, #8]
10001944:	0020      	movs	r0, r4
10001946:	f7ff fd49 	bl	100013dc <ph_merge_nodes>
1000194a:	4682      	mov	sl, r0
1000194c:	e7d8      	b.n	10001900 <ph_remove_head+0x104>
1000194e:	0050      	lsls	r0, r2, #1
10001950:	1880      	adds	r0, r0, r2
10001952:	3803      	subs	r0, #3
10001954:	1809      	adds	r1, r1, r0
10001956:	4640      	mov	r0, r8
10001958:	784f      	ldrb	r7, [r1, #1]
1000195a:	7048      	strb	r0, [r1, #1]
1000195c:	7058      	strb	r0, [r3, #1]
1000195e:	9902      	ldr	r1, [sp, #8]
10001960:	0020      	movs	r0, r4
10001962:	9703      	str	r7, [sp, #12]
10001964:	f7ff fd3a 	bl	100013dc <ph_merge_nodes>
10001968:	4680      	mov	r8, r0
1000196a:	2f00      	cmp	r7, #0
1000196c:	d008      	beq.n	10001980 <ph_remove_head+0x184>
1000196e:	46bc      	mov	ip, r7
10001970:	007b      	lsls	r3, r7, #1
10001972:	6821      	ldr	r1, [r4, #0]
10001974:	4463      	add	r3, ip
10001976:	3b03      	subs	r3, #3
10001978:	18cb      	adds	r3, r1, r3
1000197a:	785a      	ldrb	r2, [r3, #1]
1000197c:	2a00      	cmp	r2, #0
1000197e:	d106      	bne.n	1000198e <ph_remove_head+0x192>
10001980:	9a03      	ldr	r2, [sp, #12]
10001982:	4641      	mov	r1, r8
10001984:	0020      	movs	r0, r4
10001986:	f7ff fd29 	bl	100013dc <ph_merge_nodes>
1000198a:	9002      	str	r0, [sp, #8]
1000198c:	e7d8      	b.n	10001940 <ph_remove_head+0x144>
1000198e:	2003      	movs	r0, #3
10001990:	4350      	muls	r0, r2
10001992:	3803      	subs	r0, #3
10001994:	1809      	adds	r1, r1, r0
10001996:	2000      	movs	r0, #0
10001998:	784f      	ldrb	r7, [r1, #1]
1000199a:	7048      	strb	r0, [r1, #1]
1000199c:	7058      	strb	r0, [r3, #1]
1000199e:	9903      	ldr	r1, [sp, #12]
100019a0:	0020      	movs	r0, r4
100019a2:	f7ff fd1b 	bl	100013dc <ph_merge_nodes>
100019a6:	0039      	movs	r1, r7
100019a8:	9002      	str	r0, [sp, #8]
100019aa:	0020      	movs	r0, r4
100019ac:	f7ff fe20 	bl	100015f0 <ph_merge_two_pass>
100019b0:	9902      	ldr	r1, [sp, #8]
100019b2:	0002      	movs	r2, r0
100019b4:	0020      	movs	r0, r4
100019b6:	f7ff fd11 	bl	100013dc <ph_merge_nodes>
100019ba:	9003      	str	r0, [sp, #12]
100019bc:	e7e0      	b.n	10001980 <ph_remove_head+0x184>
100019be:	46c0      	nop			; (mov r8, r8)

100019c0 <ph_remove_and_free_node>:
100019c0:	b570      	push	{r4, r5, r6, lr}
100019c2:	0004      	movs	r4, r0
100019c4:	2900      	cmp	r1, #0
100019c6:	d02c      	beq.n	10001a22 <ph_remove_and_free_node+0x62>
100019c8:	7b43      	ldrb	r3, [r0, #13]
100019ca:	428b      	cmp	r3, r1
100019cc:	d02e      	beq.n	10001a2c <ph_remove_and_free_node+0x6c>
100019ce:	6805      	ldr	r5, [r0, #0]
100019d0:	0048      	lsls	r0, r1, #1
100019d2:	1840      	adds	r0, r0, r1
100019d4:	3803      	subs	r0, #3
100019d6:	1828      	adds	r0, r5, r0
100019d8:	7882      	ldrb	r2, [r0, #2]
100019da:	2a00      	cmp	r2, #0
100019dc:	d021      	beq.n	10001a22 <ph_remove_and_free_node+0x62>
100019de:	0053      	lsls	r3, r2, #1
100019e0:	189b      	adds	r3, r3, r2
100019e2:	3b03      	subs	r3, #3
100019e4:	18eb      	adds	r3, r5, r3
100019e6:	781a      	ldrb	r2, [r3, #0]
100019e8:	428a      	cmp	r2, r1
100019ea:	d102      	bne.n	100019f2 <ph_remove_and_free_node+0x32>
100019ec:	e01b      	b.n	10001a26 <ph_remove_and_free_node+0x66>
100019ee:	2a00      	cmp	r2, #0
100019f0:	d008      	beq.n	10001a04 <ph_remove_and_free_node+0x44>
100019f2:	0053      	lsls	r3, r2, #1
100019f4:	189b      	adds	r3, r3, r2
100019f6:	3b03      	subs	r3, #3
100019f8:	18eb      	adds	r3, r5, r3
100019fa:	785a      	ldrb	r2, [r3, #1]
100019fc:	428a      	cmp	r2, r1
100019fe:	d1f6      	bne.n	100019ee <ph_remove_and_free_node+0x2e>
10001a00:	7842      	ldrb	r2, [r0, #1]
10001a02:	705a      	strb	r2, [r3, #1]
10001a04:	2300      	movs	r3, #0
10001a06:	2201      	movs	r2, #1
10001a08:	7083      	strb	r3, [r0, #2]
10001a0a:	7043      	strb	r3, [r0, #1]
10001a0c:	0020      	movs	r0, r4
10001a0e:	f7ff fe15 	bl	1000163c <ph_remove_any_head>
10001a12:	7b61      	ldrb	r1, [r4, #13]
10001a14:	0002      	movs	r2, r0
10001a16:	0020      	movs	r0, r4
10001a18:	f7ff fce0 	bl	100013dc <ph_merge_nodes>
10001a1c:	7360      	strb	r0, [r4, #13]
10001a1e:	2001      	movs	r0, #1
10001a20:	e000      	b.n	10001a24 <ph_remove_and_free_node+0x64>
10001a22:	2000      	movs	r0, #0
10001a24:	bd70      	pop	{r4, r5, r6, pc}
10001a26:	7842      	ldrb	r2, [r0, #1]
10001a28:	701a      	strb	r2, [r3, #0]
10001a2a:	e7eb      	b.n	10001a04 <ph_remove_and_free_node+0x44>
10001a2c:	2201      	movs	r2, #1
10001a2e:	0019      	movs	r1, r3
10001a30:	f7ff fe04 	bl	1000163c <ph_remove_any_head>
10001a34:	7360      	strb	r0, [r4, #13]
10001a36:	2001      	movs	r0, #1
10001a38:	e7f4      	b.n	10001a24 <ph_remove_and_free_node+0x64>
10001a3a:	46c0      	nop			; (mov r8, r8)

10001a3c <clocks_init>:
10001a3c:	b530      	push	{r4, r5, lr}
10001a3e:	200c      	movs	r0, #12
10001a40:	b083      	sub	sp, #12
10001a42:	f000 f9af 	bl	10001da4 <watchdog_start_tick>
10001a46:	f7fe fc93 	bl	10000370 <running_on_fpga>
10001a4a:	2800      	cmp	r0, #0
10001a4c:	d00e      	beq.n	10001a6c <clocks_init+0x30>
10001a4e:	4b94      	ldr	r3, [pc, #592]	; (10001ca0 <clocks_init+0x264>)
10001a50:	4a94      	ldr	r2, [pc, #592]	; (10001ca4 <clocks_init+0x268>)
10001a52:	601a      	str	r2, [r3, #0]
10001a54:	605a      	str	r2, [r3, #4]
10001a56:	609a      	str	r2, [r3, #8]
10001a58:	60da      	str	r2, [r3, #12]
10001a5a:	611a      	str	r2, [r3, #16]
10001a5c:	615a      	str	r2, [r3, #20]
10001a5e:	619a      	str	r2, [r3, #24]
10001a60:	61da      	str	r2, [r3, #28]
10001a62:	621a      	str	r2, [r3, #32]
10001a64:	4a90      	ldr	r2, [pc, #576]	; (10001ca8 <clocks_init+0x26c>)
10001a66:	625a      	str	r2, [r3, #36]	; 0x24
10001a68:	b003      	add	sp, #12
10001a6a:	bd30      	pop	{r4, r5, pc}
10001a6c:	4c8f      	ldr	r4, [pc, #572]	; (10001cac <clocks_init+0x270>)
10001a6e:	67a0      	str	r0, [r4, #120]	; 0x78
10001a70:	f000 f9ec 	bl	10001e4c <xosc_init>
10001a74:	2201      	movs	r2, #1
10001a76:	4b8e      	ldr	r3, [pc, #568]	; (10001cb0 <clocks_init+0x274>)
10001a78:	601a      	str	r2, [r3, #0]
10001a7a:	6c63      	ldr	r3, [r4, #68]	; 0x44
10001a7c:	2b01      	cmp	r3, #1
10001a7e:	d1fc      	bne.n	10001a7a <clocks_init+0x3e>
10001a80:	2203      	movs	r2, #3
10001a82:	4b8c      	ldr	r3, [pc, #560]	; (10001cb4 <clocks_init+0x278>)
10001a84:	601a      	str	r2, [r3, #0]
10001a86:	4a89      	ldr	r2, [pc, #548]	; (10001cac <clocks_init+0x270>)
10001a88:	6b93      	ldr	r3, [r2, #56]	; 0x38
10001a8a:	2b01      	cmp	r3, #1
10001a8c:	d1fc      	bne.n	10001a88 <clocks_init+0x4c>
10001a8e:	3301      	adds	r3, #1
10001a90:	9300      	str	r3, [sp, #0]
10001a92:	4a89      	ldr	r2, [pc, #548]	; (10001cb8 <clocks_init+0x27c>)
10001a94:	3304      	adds	r3, #4
10001a96:	2101      	movs	r1, #1
10001a98:	4888      	ldr	r0, [pc, #544]	; (10001cbc <clocks_init+0x280>)
10001a9a:	f000 f92f 	bl	10001cfc <pll_init>
10001a9e:	2305      	movs	r3, #5
10001aa0:	4a87      	ldr	r2, [pc, #540]	; (10001cc0 <clocks_init+0x284>)
10001aa2:	9300      	str	r3, [sp, #0]
10001aa4:	2101      	movs	r1, #1
10001aa6:	4887      	ldr	r0, [pc, #540]	; (10001cc4 <clocks_init+0x288>)
10001aa8:	f000 f928 	bl	10001cfc <pll_init>
10001aac:	4b86      	ldr	r3, [pc, #536]	; (10001cc8 <clocks_init+0x28c>)
10001aae:	685a      	ldr	r2, [r3, #4]
10001ab0:	2aff      	cmp	r2, #255	; 0xff
10001ab2:	d802      	bhi.n	10001aba <clocks_init+0x7e>
10001ab4:	2280      	movs	r2, #128	; 0x80
10001ab6:	0052      	lsls	r2, r2, #1
10001ab8:	605a      	str	r2, [r3, #4]
10001aba:	2280      	movs	r2, #128	; 0x80
10001abc:	4c78      	ldr	r4, [pc, #480]	; (10001ca0 <clocks_init+0x264>)
10001abe:	4b7d      	ldr	r3, [pc, #500]	; (10001cb4 <clocks_init+0x278>)
10001ac0:	6921      	ldr	r1, [r4, #16]
10001ac2:	0112      	lsls	r2, r2, #4
10001ac4:	4d80      	ldr	r5, [pc, #512]	; (10001cc8 <clocks_init+0x28c>)
10001ac6:	601a      	str	r2, [r3, #0]
10001ac8:	2900      	cmp	r1, #0
10001aca:	d005      	beq.n	10001ad8 <clocks_init+0x9c>
10001acc:	6960      	ldr	r0, [r4, #20]
10001ace:	f000 fac5 	bl	1000205c <__wrap___aeabi_uidiv>
10001ad2:	3001      	adds	r0, #1
10001ad4:	3801      	subs	r0, #1
10001ad6:	d1fd      	bne.n	10001ad4 <clocks_init+0x98>
10001ad8:	21e0      	movs	r1, #224	; 0xe0
10001ada:	4b7b      	ldr	r3, [pc, #492]	; (10001cc8 <clocks_init+0x28c>)
10001adc:	2002      	movs	r0, #2
10001ade:	681a      	ldr	r2, [r3, #0]
10001ae0:	4011      	ands	r1, r2
10001ae2:	2280      	movs	r2, #128	; 0x80
10001ae4:	0152      	lsls	r2, r2, #5
10001ae6:	432a      	orrs	r2, r5
10001ae8:	6011      	str	r1, [r2, #0]
10001aea:	6819      	ldr	r1, [r3, #0]
10001aec:	4048      	eors	r0, r1
10001aee:	2103      	movs	r1, #3
10001af0:	4001      	ands	r1, r0
10001af2:	6011      	str	r1, [r2, #0]
10001af4:	2104      	movs	r1, #4
10001af6:	689a      	ldr	r2, [r3, #8]
10001af8:	4211      	tst	r1, r2
10001afa:	d0fc      	beq.n	10001af6 <clocks_init+0xba>
10001afc:	2280      	movs	r2, #128	; 0x80
10001afe:	2180      	movs	r1, #128	; 0x80
10001b00:	0192      	lsls	r2, r2, #6
10001b02:	432a      	orrs	r2, r5
10001b04:	0109      	lsls	r1, r1, #4
10001b06:	6011      	str	r1, [r2, #0]
10001b08:	2280      	movs	r2, #128	; 0x80
10001b0a:	0052      	lsls	r2, r2, #1
10001b0c:	605a      	str	r2, [r3, #4]
10001b0e:	4b6f      	ldr	r3, [pc, #444]	; (10001ccc <clocks_init+0x290>)
10001b10:	6123      	str	r3, [r4, #16]
10001b12:	4b6f      	ldr	r3, [pc, #444]	; (10001cd0 <clocks_init+0x294>)
10001b14:	6859      	ldr	r1, [r3, #4]
10001b16:	29ff      	cmp	r1, #255	; 0xff
10001b18:	d800      	bhi.n	10001b1c <clocks_init+0xe0>
10001b1a:	605a      	str	r2, [r3, #4]
10001b1c:	2203      	movs	r2, #3
10001b1e:	486c      	ldr	r0, [pc, #432]	; (10001cd0 <clocks_init+0x294>)
10001b20:	4b63      	ldr	r3, [pc, #396]	; (10001cb0 <clocks_init+0x274>)
10001b22:	2101      	movs	r1, #1
10001b24:	601a      	str	r2, [r3, #0]
10001b26:	0002      	movs	r2, r0
10001b28:	6893      	ldr	r3, [r2, #8]
10001b2a:	4219      	tst	r1, r3
10001b2c:	d0fc      	beq.n	10001b28 <clocks_init+0xec>
10001b2e:	25e0      	movs	r5, #224	; 0xe0
10001b30:	6813      	ldr	r3, [r2, #0]
10001b32:	401d      	ands	r5, r3
10001b34:	2380      	movs	r3, #128	; 0x80
10001b36:	015b      	lsls	r3, r3, #5
10001b38:	4303      	orrs	r3, r0
10001b3a:	601d      	str	r5, [r3, #0]
10001b3c:	6812      	ldr	r2, [r2, #0]
10001b3e:	404a      	eors	r2, r1
10001b40:	2103      	movs	r1, #3
10001b42:	4011      	ands	r1, r2
10001b44:	6019      	str	r1, [r3, #0]
10001b46:	2102      	movs	r1, #2
10001b48:	4a61      	ldr	r2, [pc, #388]	; (10001cd0 <clocks_init+0x294>)
10001b4a:	6893      	ldr	r3, [r2, #8]
10001b4c:	4219      	tst	r1, r3
10001b4e:	d0fc      	beq.n	10001b4a <clocks_init+0x10e>
10001b50:	2380      	movs	r3, #128	; 0x80
10001b52:	2180      	movs	r1, #128	; 0x80
10001b54:	019b      	lsls	r3, r3, #6
10001b56:	4303      	orrs	r3, r0
10001b58:	0109      	lsls	r1, r1, #4
10001b5a:	6019      	str	r1, [r3, #0]
10001b5c:	2180      	movs	r1, #128	; 0x80
10001b5e:	4b5d      	ldr	r3, [pc, #372]	; (10001cd4 <clocks_init+0x298>)
10001b60:	0049      	lsls	r1, r1, #1
10001b62:	6051      	str	r1, [r2, #4]
10001b64:	6163      	str	r3, [r4, #20]
10001b66:	4b5c      	ldr	r3, [pc, #368]	; (10001cd8 <clocks_init+0x29c>)
10001b68:	685a      	ldr	r2, [r3, #4]
10001b6a:	2aff      	cmp	r2, #255	; 0xff
10001b6c:	d800      	bhi.n	10001b70 <clocks_init+0x134>
10001b6e:	6059      	str	r1, [r3, #4]
10001b70:	2280      	movs	r2, #128	; 0x80
10001b72:	4b5a      	ldr	r3, [pc, #360]	; (10001cdc <clocks_init+0x2a0>)
10001b74:	69e1      	ldr	r1, [r4, #28]
10001b76:	0112      	lsls	r2, r2, #4
10001b78:	4d57      	ldr	r5, [pc, #348]	; (10001cd8 <clocks_init+0x29c>)
10001b7a:	601a      	str	r2, [r3, #0]
10001b7c:	2900      	cmp	r1, #0
10001b7e:	d005      	beq.n	10001b8c <clocks_init+0x150>
10001b80:	6960      	ldr	r0, [r4, #20]
10001b82:	f000 fa6b 	bl	1000205c <__wrap___aeabi_uidiv>
10001b86:	3001      	adds	r0, #1
10001b88:	3801      	subs	r0, #1
10001b8a:	d1fd      	bne.n	10001b88 <clocks_init+0x14c>
10001b8c:	22e0      	movs	r2, #224	; 0xe0
10001b8e:	4952      	ldr	r1, [pc, #328]	; (10001cd8 <clocks_init+0x29c>)
10001b90:	680b      	ldr	r3, [r1, #0]
10001b92:	401a      	ands	r2, r3
10001b94:	2380      	movs	r3, #128	; 0x80
10001b96:	015b      	lsls	r3, r3, #5
10001b98:	432b      	orrs	r3, r5
10001b9a:	601a      	str	r2, [r3, #0]
10001b9c:	2380      	movs	r3, #128	; 0x80
10001b9e:	2280      	movs	r2, #128	; 0x80
10001ba0:	019b      	lsls	r3, r3, #6
10001ba2:	432b      	orrs	r3, r5
10001ba4:	0112      	lsls	r2, r2, #4
10001ba6:	601a      	str	r2, [r3, #0]
10001ba8:	2280      	movs	r2, #128	; 0x80
10001baa:	4b3e      	ldr	r3, [pc, #248]	; (10001ca4 <clocks_init+0x268>)
10001bac:	0052      	lsls	r2, r2, #1
10001bae:	604a      	str	r2, [r1, #4]
10001bb0:	61e3      	str	r3, [r4, #28]
10001bb2:	4b4b      	ldr	r3, [pc, #300]	; (10001ce0 <clocks_init+0x2a4>)
10001bb4:	6859      	ldr	r1, [r3, #4]
10001bb6:	29ff      	cmp	r1, #255	; 0xff
10001bb8:	d800      	bhi.n	10001bbc <clocks_init+0x180>
10001bba:	605a      	str	r2, [r3, #4]
10001bbc:	2280      	movs	r2, #128	; 0x80
10001bbe:	4b49      	ldr	r3, [pc, #292]	; (10001ce4 <clocks_init+0x2a8>)
10001bc0:	6a21      	ldr	r1, [r4, #32]
10001bc2:	0112      	lsls	r2, r2, #4
10001bc4:	4d46      	ldr	r5, [pc, #280]	; (10001ce0 <clocks_init+0x2a4>)
10001bc6:	601a      	str	r2, [r3, #0]
10001bc8:	2900      	cmp	r1, #0
10001bca:	d005      	beq.n	10001bd8 <clocks_init+0x19c>
10001bcc:	6960      	ldr	r0, [r4, #20]
10001bce:	f000 fa45 	bl	1000205c <__wrap___aeabi_uidiv>
10001bd2:	3001      	adds	r0, #1
10001bd4:	3801      	subs	r0, #1
10001bd6:	d1fd      	bne.n	10001bd4 <clocks_init+0x198>
10001bd8:	22e0      	movs	r2, #224	; 0xe0
10001bda:	4941      	ldr	r1, [pc, #260]	; (10001ce0 <clocks_init+0x2a4>)
10001bdc:	680b      	ldr	r3, [r1, #0]
10001bde:	401a      	ands	r2, r3
10001be0:	2380      	movs	r3, #128	; 0x80
10001be2:	015b      	lsls	r3, r3, #5
10001be4:	432b      	orrs	r3, r5
10001be6:	601a      	str	r2, [r3, #0]
10001be8:	2380      	movs	r3, #128	; 0x80
10001bea:	2280      	movs	r2, #128	; 0x80
10001bec:	019b      	lsls	r3, r3, #6
10001bee:	432b      	orrs	r3, r5
10001bf0:	0112      	lsls	r2, r2, #4
10001bf2:	601a      	str	r2, [r3, #0]
10001bf4:	2380      	movs	r3, #128	; 0x80
10001bf6:	005b      	lsls	r3, r3, #1
10001bf8:	604b      	str	r3, [r1, #4]
10001bfa:	4b2a      	ldr	r3, [pc, #168]	; (10001ca4 <clocks_init+0x268>)
10001bfc:	4a3a      	ldr	r2, [pc, #232]	; (10001ce8 <clocks_init+0x2ac>)
10001bfe:	6223      	str	r3, [r4, #32]
10001c00:	4b3a      	ldr	r3, [pc, #232]	; (10001cec <clocks_init+0x2b0>)
10001c02:	6859      	ldr	r1, [r3, #4]
10001c04:	4291      	cmp	r1, r2
10001c06:	d801      	bhi.n	10001c0c <clocks_init+0x1d0>
10001c08:	3201      	adds	r2, #1
10001c0a:	605a      	str	r2, [r3, #4]
10001c0c:	2280      	movs	r2, #128	; 0x80
10001c0e:	4b38      	ldr	r3, [pc, #224]	; (10001cf0 <clocks_init+0x2b4>)
10001c10:	6a61      	ldr	r1, [r4, #36]	; 0x24
10001c12:	0112      	lsls	r2, r2, #4
10001c14:	4d35      	ldr	r5, [pc, #212]	; (10001cec <clocks_init+0x2b0>)
10001c16:	601a      	str	r2, [r3, #0]
10001c18:	2900      	cmp	r1, #0
10001c1a:	d005      	beq.n	10001c28 <clocks_init+0x1ec>
10001c1c:	6960      	ldr	r0, [r4, #20]
10001c1e:	f000 fa1d 	bl	1000205c <__wrap___aeabi_uidiv>
10001c22:	3001      	adds	r0, #1
10001c24:	3801      	subs	r0, #1
10001c26:	d1fd      	bne.n	10001c24 <clocks_init+0x1e8>
10001c28:	22e0      	movs	r2, #224	; 0xe0
10001c2a:	4930      	ldr	r1, [pc, #192]	; (10001cec <clocks_init+0x2b0>)
10001c2c:	680b      	ldr	r3, [r1, #0]
10001c2e:	401a      	ands	r2, r3
10001c30:	2380      	movs	r3, #128	; 0x80
10001c32:	015b      	lsls	r3, r3, #5
10001c34:	432b      	orrs	r3, r5
10001c36:	601a      	str	r2, [r3, #0]
10001c38:	2380      	movs	r3, #128	; 0x80
10001c3a:	2280      	movs	r2, #128	; 0x80
10001c3c:	019b      	lsls	r3, r3, #6
10001c3e:	432b      	orrs	r3, r5
10001c40:	0112      	lsls	r2, r2, #4
10001c42:	601a      	str	r2, [r3, #0]
10001c44:	2380      	movs	r3, #128	; 0x80
10001c46:	02db      	lsls	r3, r3, #11
10001c48:	604b      	str	r3, [r1, #4]
10001c4a:	4b17      	ldr	r3, [pc, #92]	; (10001ca8 <clocks_init+0x26c>)
10001c4c:	6263      	str	r3, [r4, #36]	; 0x24
10001c4e:	4b29      	ldr	r3, [pc, #164]	; (10001cf4 <clocks_init+0x2b8>)
10001c50:	685a      	ldr	r2, [r3, #4]
10001c52:	2aff      	cmp	r2, #255	; 0xff
10001c54:	d802      	bhi.n	10001c5c <clocks_init+0x220>
10001c56:	2280      	movs	r2, #128	; 0x80
10001c58:	0052      	lsls	r2, r2, #1
10001c5a:	605a      	str	r2, [r3, #4]
10001c5c:	2280      	movs	r2, #128	; 0x80
10001c5e:	4b26      	ldr	r3, [pc, #152]	; (10001cf8 <clocks_init+0x2bc>)
10001c60:	69a1      	ldr	r1, [r4, #24]
10001c62:	0112      	lsls	r2, r2, #4
10001c64:	4d23      	ldr	r5, [pc, #140]	; (10001cf4 <clocks_init+0x2b8>)
10001c66:	601a      	str	r2, [r3, #0]
10001c68:	2900      	cmp	r1, #0
10001c6a:	d005      	beq.n	10001c78 <clocks_init+0x23c>
10001c6c:	6960      	ldr	r0, [r4, #20]
10001c6e:	f000 f9f5 	bl	1000205c <__wrap___aeabi_uidiv>
10001c72:	3001      	adds	r0, #1
10001c74:	3801      	subs	r0, #1
10001c76:	d1fd      	bne.n	10001c74 <clocks_init+0x238>
10001c78:	22e0      	movs	r2, #224	; 0xe0
10001c7a:	491e      	ldr	r1, [pc, #120]	; (10001cf4 <clocks_init+0x2b8>)
10001c7c:	680b      	ldr	r3, [r1, #0]
10001c7e:	401a      	ands	r2, r3
10001c80:	2380      	movs	r3, #128	; 0x80
10001c82:	015b      	lsls	r3, r3, #5
10001c84:	432b      	orrs	r3, r5
10001c86:	601a      	str	r2, [r3, #0]
10001c88:	2380      	movs	r3, #128	; 0x80
10001c8a:	2280      	movs	r2, #128	; 0x80
10001c8c:	019b      	lsls	r3, r3, #6
10001c8e:	432b      	orrs	r3, r5
10001c90:	0112      	lsls	r2, r2, #4
10001c92:	601a      	str	r2, [r3, #0]
10001c94:	2380      	movs	r3, #128	; 0x80
10001c96:	005b      	lsls	r3, r3, #1
10001c98:	604b      	str	r3, [r1, #4]
10001c9a:	4b0e      	ldr	r3, [pc, #56]	; (10001cd4 <clocks_init+0x298>)
10001c9c:	61a3      	str	r3, [r4, #24]
10001c9e:	e6e3      	b.n	10001a68 <clocks_init+0x2c>
10001ca0:	20001514 	.word	0x20001514
10001ca4:	02dc6c00 	.word	0x02dc6c00
10001ca8:	0000b71b 	.word	0x0000b71b
10001cac:	40008000 	.word	0x40008000
10001cb0:	4000b03c 	.word	0x4000b03c
10001cb4:	4000b030 	.word	0x4000b030
10001cb8:	59682f00 	.word	0x59682f00
10001cbc:	40028000 	.word	0x40028000
10001cc0:	47868c00 	.word	0x47868c00
10001cc4:	4002c000 	.word	0x4002c000
10001cc8:	40008030 	.word	0x40008030
10001ccc:	00b71b00 	.word	0x00b71b00
10001cd0:	4000803c 	.word	0x4000803c
10001cd4:	07735940 	.word	0x07735940
10001cd8:	40008054 	.word	0x40008054
10001cdc:	4000b054 	.word	0x4000b054
10001ce0:	40008060 	.word	0x40008060
10001ce4:	4000b060 	.word	0x4000b060
10001ce8:	0003ffff 	.word	0x0003ffff
10001cec:	4000806c 	.word	0x4000806c
10001cf0:	4000b06c 	.word	0x4000b06c
10001cf4:	40008048 	.word	0x40008048
10001cf8:	4000b048 	.word	0x4000b048

10001cfc <pll_init>:
10001cfc:	b5f8      	push	{r3, r4, r5, r6, r7, lr}
10001cfe:	0004      	movs	r4, r0
10001d00:	200c      	movs	r0, #12
10001d02:	001e      	movs	r6, r3
10001d04:	0017      	movs	r7, r2
10001d06:	000d      	movs	r5, r1
10001d08:	f000 f9a8 	bl	1000205c <__wrap___aeabi_uidiv>
10001d0c:	0142      	lsls	r2, r0, #5
10001d0e:	1a12      	subs	r2, r2, r0
10001d10:	0191      	lsls	r1, r2, #6
10001d12:	1a89      	subs	r1, r1, r2
10001d14:	00c9      	lsls	r1, r1, #3
10001d16:	1809      	adds	r1, r1, r0
10001d18:	0189      	lsls	r1, r1, #6
10001d1a:	0038      	movs	r0, r7
10001d1c:	f000 f99e 	bl	1000205c <__wrap___aeabi_uidiv>
10001d20:	9b06      	ldr	r3, [sp, #24]
10001d22:	6822      	ldr	r2, [r4, #0]
10001d24:	0436      	lsls	r6, r6, #16
10001d26:	031b      	lsls	r3, r3, #12
10001d28:	4333      	orrs	r3, r6
10001d2a:	2a00      	cmp	r2, #0
10001d2c:	db21      	blt.n	10001d72 <pll_init+0x76>
10001d2e:	4a19      	ldr	r2, [pc, #100]	; (10001d94 <pll_init+0x98>)
10001d30:	4e19      	ldr	r6, [pc, #100]	; (10001d98 <pll_init+0x9c>)
10001d32:	18a2      	adds	r2, r4, r2
10001d34:	4251      	negs	r1, r2
10001d36:	414a      	adcs	r2, r1
10001d38:	2180      	movs	r1, #128	; 0x80
10001d3a:	0149      	lsls	r1, r1, #5
10001d3c:	468c      	mov	ip, r1
10001d3e:	4252      	negs	r2, r2
10001d40:	400a      	ands	r2, r1
10001d42:	4916      	ldr	r1, [pc, #88]	; (10001d9c <pll_init+0xa0>)
10001d44:	4462      	add	r2, ip
10001d46:	600a      	str	r2, [r1, #0]
10001d48:	4915      	ldr	r1, [pc, #84]	; (10001da0 <pll_init+0xa4>)
10001d4a:	600a      	str	r2, [r1, #0]
10001d4c:	0017      	movs	r7, r2
10001d4e:	68b1      	ldr	r1, [r6, #8]
10001d50:	438f      	bics	r7, r1
10001d52:	d1fb      	bne.n	10001d4c <pll_init+0x50>
10001d54:	21c0      	movs	r1, #192	; 0xc0
10001d56:	1d22      	adds	r2, r4, #4
10001d58:	0189      	lsls	r1, r1, #6
10001d5a:	4311      	orrs	r1, r2
10001d5c:	2221      	movs	r2, #33	; 0x21
10001d5e:	6025      	str	r5, [r4, #0]
10001d60:	60a0      	str	r0, [r4, #8]
10001d62:	600a      	str	r2, [r1, #0]
10001d64:	6822      	ldr	r2, [r4, #0]
10001d66:	2a00      	cmp	r2, #0
10001d68:	dafc      	bge.n	10001d64 <pll_init+0x68>
10001d6a:	60e3      	str	r3, [r4, #12]
10001d6c:	2308      	movs	r3, #8
10001d6e:	600b      	str	r3, [r1, #0]
10001d70:	bdf8      	pop	{r3, r4, r5, r6, r7, pc}
10001d72:	223f      	movs	r2, #63	; 0x3f
10001d74:	6821      	ldr	r1, [r4, #0]
10001d76:	400a      	ands	r2, r1
10001d78:	42aa      	cmp	r2, r5
10001d7a:	d1d8      	bne.n	10001d2e <pll_init+0x32>
10001d7c:	68a2      	ldr	r2, [r4, #8]
10001d7e:	0512      	lsls	r2, r2, #20
10001d80:	0d12      	lsrs	r2, r2, #20
10001d82:	4282      	cmp	r2, r0
10001d84:	d1d3      	bne.n	10001d2e <pll_init+0x32>
10001d86:	21ee      	movs	r1, #238	; 0xee
10001d88:	68e2      	ldr	r2, [r4, #12]
10001d8a:	02c9      	lsls	r1, r1, #11
10001d8c:	400a      	ands	r2, r1
10001d8e:	429a      	cmp	r2, r3
10001d90:	d1cd      	bne.n	10001d2e <pll_init+0x32>
10001d92:	e7ed      	b.n	10001d70 <pll_init+0x74>
10001d94:	bffd4000 	.word	0xbffd4000
10001d98:	4000c000 	.word	0x4000c000
10001d9c:	4000e000 	.word	0x4000e000
10001da0:	4000f000 	.word	0x4000f000

10001da4 <watchdog_start_tick>:
10001da4:	2380      	movs	r3, #128	; 0x80
10001da6:	4a02      	ldr	r2, [pc, #8]	; (10001db0 <watchdog_start_tick+0xc>)
10001da8:	009b      	lsls	r3, r3, #2
10001daa:	4303      	orrs	r3, r0
10001dac:	62d3      	str	r3, [r2, #44]	; 0x2c
10001dae:	4770      	bx	lr
10001db0:	40058000 	.word	0x40058000

10001db4 <watchdog_reboot>:
10001db4:	b510      	push	{r4, lr}
10001db6:	2480      	movs	r4, #128	; 0x80
10001db8:	4b1b      	ldr	r3, [pc, #108]	; (10001e28 <watchdog_reboot+0x74>)
10001dba:	05e4      	lsls	r4, r4, #23
10001dbc:	601c      	str	r4, [r3, #0]
10001dbe:	2800      	cmp	r0, #0
10001dc0:	d02b      	beq.n	10001e1a <watchdog_reboot+0x66>
10001dc2:	2301      	movs	r3, #1
10001dc4:	4c19      	ldr	r4, [pc, #100]	; (10001e2c <watchdog_reboot+0x78>)
10001dc6:	4318      	orrs	r0, r3
10001dc8:	4b19      	ldr	r3, [pc, #100]	; (10001e30 <watchdog_reboot+0x7c>)
10001dca:	61dc      	str	r4, [r3, #28]
10001dcc:	4c19      	ldr	r4, [pc, #100]	; (10001e34 <watchdog_reboot+0x80>)
10001dce:	4044      	eors	r4, r0
10001dd0:	621c      	str	r4, [r3, #32]
10001dd2:	6259      	str	r1, [r3, #36]	; 0x24
10001dd4:	6298      	str	r0, [r3, #40]	; 0x28
10001dd6:	2180      	movs	r1, #128	; 0x80
10001dd8:	4b13      	ldr	r3, [pc, #76]	; (10001e28 <watchdog_reboot+0x74>)
10001dda:	05c9      	lsls	r1, r1, #23
10001ddc:	6019      	str	r1, [r3, #0]
10001dde:	4816      	ldr	r0, [pc, #88]	; (10001e38 <watchdog_reboot+0x84>)
10001de0:	4916      	ldr	r1, [pc, #88]	; (10001e3c <watchdog_reboot+0x88>)
10001de2:	6008      	str	r0, [r1, #0]
10001de4:	21e0      	movs	r1, #224	; 0xe0
10001de6:	04c9      	lsls	r1, r1, #19
10001de8:	6019      	str	r1, [r3, #0]
10001dea:	2a00      	cmp	r2, #0
10001dec:	d104      	bne.n	10001df8 <watchdog_reboot+0x44>
10001dee:	2280      	movs	r2, #128	; 0x80
10001df0:	4b13      	ldr	r3, [pc, #76]	; (10001e40 <watchdog_reboot+0x8c>)
10001df2:	0612      	lsls	r2, r2, #24
10001df4:	601a      	str	r2, [r3, #0]
10001df6:	bd10      	pop	{r4, pc}
10001df8:	0153      	lsls	r3, r2, #5
10001dfa:	1a9b      	subs	r3, r3, r2
10001dfc:	009b      	lsls	r3, r3, #2
10001dfe:	189a      	adds	r2, r3, r2
10001e00:	4b10      	ldr	r3, [pc, #64]	; (10001e44 <watchdog_reboot+0x90>)
10001e02:	0112      	lsls	r2, r2, #4
10001e04:	429a      	cmp	r2, r3
10001e06:	d80b      	bhi.n	10001e20 <watchdog_reboot+0x6c>
10001e08:	4b0f      	ldr	r3, [pc, #60]	; (10001e48 <watchdog_reboot+0x94>)
10001e0a:	601a      	str	r2, [r3, #0]
10001e0c:	4b08      	ldr	r3, [pc, #32]	; (10001e30 <watchdog_reboot+0x7c>)
10001e0e:	605a      	str	r2, [r3, #4]
10001e10:	2280      	movs	r2, #128	; 0x80
10001e12:	4b0b      	ldr	r3, [pc, #44]	; (10001e40 <watchdog_reboot+0x8c>)
10001e14:	05d2      	lsls	r2, r2, #23
10001e16:	601a      	str	r2, [r3, #0]
10001e18:	e7ed      	b.n	10001df6 <watchdog_reboot+0x42>
10001e1a:	4b05      	ldr	r3, [pc, #20]	; (10001e30 <watchdog_reboot+0x7c>)
10001e1c:	61d8      	str	r0, [r3, #28]
10001e1e:	e7da      	b.n	10001dd6 <watchdog_reboot+0x22>
10001e20:	4a09      	ldr	r2, [pc, #36]	; (10001e48 <watchdog_reboot+0x94>)
10001e22:	6013      	str	r3, [r2, #0]
10001e24:	001a      	movs	r2, r3
10001e26:	e7f1      	b.n	10001e0c <watchdog_reboot+0x58>
10001e28:	4005b000 	.word	0x4005b000
10001e2c:	b007c0d3 	.word	0xb007c0d3
10001e30:	40058000 	.word	0x40058000
10001e34:	4ff83f2d 	.word	0x4ff83f2d
10001e38:	0001fffc 	.word	0x0001fffc
10001e3c:	40012008 	.word	0x40012008
10001e40:	4005a000 	.word	0x4005a000
10001e44:	00ffffff 	.word	0x00ffffff
10001e48:	200019b4 	.word	0x200019b4

10001e4c <xosc_init>:
10001e4c:	23aa      	movs	r3, #170	; 0xaa
10001e4e:	4a06      	ldr	r2, [pc, #24]	; (10001e68 <xosc_init+0x1c>)
10001e50:	011b      	lsls	r3, r3, #4
10001e52:	6013      	str	r3, [r2, #0]
10001e54:	232f      	movs	r3, #47	; 0x2f
10001e56:	4905      	ldr	r1, [pc, #20]	; (10001e6c <xosc_init+0x20>)
10001e58:	60d3      	str	r3, [r2, #12]
10001e5a:	4b05      	ldr	r3, [pc, #20]	; (10001e70 <xosc_init+0x24>)
10001e5c:	6019      	str	r1, [r3, #0]
10001e5e:	6853      	ldr	r3, [r2, #4]
10001e60:	2b00      	cmp	r3, #0
10001e62:	dafc      	bge.n	10001e5e <xosc_init+0x12>
10001e64:	4770      	bx	lr
10001e66:	46c0      	nop			; (mov r8, r8)
10001e68:	40024000 	.word	0x40024000
10001e6c:	00fab000 	.word	0x00fab000
10001e70:	40026000 	.word	0x40026000

10001e74 <runtime_init>:
10001e74:	4b2d      	ldr	r3, [pc, #180]	; (10001f2c <runtime_init+0xb8>)
10001e76:	4a2e      	ldr	r2, [pc, #184]	; (10001f30 <runtime_init+0xbc>)
10001e78:	b570      	push	{r4, r5, r6, lr}
10001e7a:	601a      	str	r2, [r3, #0]
10001e7c:	4a2d      	ldr	r2, [pc, #180]	; (10001f34 <runtime_init+0xc0>)
10001e7e:	4b2e      	ldr	r3, [pc, #184]	; (10001f38 <runtime_init+0xc4>)
10001e80:	492e      	ldr	r1, [pc, #184]	; (10001f3c <runtime_init+0xc8>)
10001e82:	601a      	str	r2, [r3, #0]
10001e84:	0010      	movs	r0, r2
10001e86:	688b      	ldr	r3, [r1, #8]
10001e88:	4398      	bics	r0, r3
10001e8a:	d1fb      	bne.n	10001e84 <runtime_init+0x10>
10001e8c:	4c2c      	ldr	r4, [pc, #176]	; (10001f40 <runtime_init+0xcc>)
10001e8e:	4b2d      	ldr	r3, [pc, #180]	; (10001f44 <runtime_init+0xd0>)
10001e90:	429c      	cmp	r4, r3
10001e92:	d209      	bcs.n	10001ea8 <runtime_init+0x34>
10001e94:	3b01      	subs	r3, #1
10001e96:	1b1d      	subs	r5, r3, r4
10001e98:	08ad      	lsrs	r5, r5, #2
10001e9a:	3501      	adds	r5, #1
10001e9c:	00ad      	lsls	r5, r5, #2
10001e9e:	192d      	adds	r5, r5, r4
10001ea0:	cc08      	ldmia	r4!, {r3}
10001ea2:	4798      	blx	r3
10001ea4:	42ac      	cmp	r4, r5
10001ea6:	d1fb      	bne.n	10001ea0 <runtime_init+0x2c>
10001ea8:	f7ff fdc8 	bl	10001a3c <clocks_init>
10001eac:	4a26      	ldr	r2, [pc, #152]	; (10001f48 <runtime_init+0xd4>)
10001eae:	4b22      	ldr	r3, [pc, #136]	; (10001f38 <runtime_init+0xc4>)
10001eb0:	601a      	str	r2, [r3, #0]
10001eb2:	4a22      	ldr	r2, [pc, #136]	; (10001f3c <runtime_init+0xc8>)
10001eb4:	6893      	ldr	r3, [r2, #8]
10001eb6:	01db      	lsls	r3, r3, #7
10001eb8:	3380      	adds	r3, #128	; 0x80
10001eba:	d1fb      	bne.n	10001eb4 <runtime_init+0x40>
10001ebc:	2240      	movs	r2, #64	; 0x40
10001ebe:	4b23      	ldr	r3, [pc, #140]	; (10001f4c <runtime_init+0xd8>)
10001ec0:	4d23      	ldr	r5, [pc, #140]	; (10001f50 <runtime_init+0xdc>)
10001ec2:	4824      	ldr	r0, [pc, #144]	; (10001f54 <runtime_init+0xe0>)
10001ec4:	679a      	str	r2, [r3, #120]	; 0x78
10001ec6:	675a      	str	r2, [r3, #116]	; 0x74
10001ec8:	671a      	str	r2, [r3, #112]	; 0x70
10001eca:	66da      	str	r2, [r3, #108]	; 0x6c
10001ecc:	42a8      	cmp	r0, r5
10001ece:	d305      	bcc.n	10001edc <runtime_init+0x68>
10001ed0:	e00e      	b.n	10001ef0 <runtime_init+0x7c>
10001ed2:	f7fe fda3 	bl	10000a1c <recursive_mutex_init>
10001ed6:	0020      	movs	r0, r4
10001ed8:	42ac      	cmp	r4, r5
10001eda:	d209      	bcs.n	10001ef0 <runtime_init+0x7c>
10001edc:	0004      	movs	r4, r0
10001ede:	6803      	ldr	r3, [r0, #0]
10001ee0:	3408      	adds	r4, #8
10001ee2:	2b00      	cmp	r3, #0
10001ee4:	d1f5      	bne.n	10001ed2 <runtime_init+0x5e>
10001ee6:	f7fe fd8b 	bl	10000a00 <mutex_init>
10001eea:	0020      	movs	r0, r4
10001eec:	42ac      	cmp	r4, r5
10001eee:	d3f5      	bcc.n	10001edc <runtime_init+0x68>
10001ef0:	4c19      	ldr	r4, [pc, #100]	; (10001f58 <runtime_init+0xe4>)
10001ef2:	4d1a      	ldr	r5, [pc, #104]	; (10001f5c <runtime_init+0xe8>)
10001ef4:	68a1      	ldr	r1, [r4, #8]
10001ef6:	22c0      	movs	r2, #192	; 0xc0
10001ef8:	0028      	movs	r0, r5
10001efa:	f000 f9bb 	bl	10002274 <__wrap___aeabi_memcpy>
10001efe:	60a5      	str	r5, [r4, #8]
10001f00:	f7fe faae 	bl	10000460 <spin_locks_reset>
10001f04:	f7fe fd4e 	bl	100009a4 <irq_init_priorities>
10001f08:	f7fe ff4c 	bl	10000da4 <alarm_pool_init_default>
10001f0c:	4c14      	ldr	r4, [pc, #80]	; (10001f60 <runtime_init+0xec>)
10001f0e:	4b15      	ldr	r3, [pc, #84]	; (10001f64 <runtime_init+0xf0>)
10001f10:	429c      	cmp	r4, r3
10001f12:	d209      	bcs.n	10001f28 <runtime_init+0xb4>
10001f14:	3b01      	subs	r3, #1
10001f16:	1b1d      	subs	r5, r3, r4
10001f18:	08ad      	lsrs	r5, r5, #2
10001f1a:	3501      	adds	r5, #1
10001f1c:	00ad      	lsls	r5, r5, #2
10001f1e:	192d      	adds	r5, r5, r4
10001f20:	cc08      	ldmia	r4!, {r3}
10001f22:	4798      	blx	r3
10001f24:	42a5      	cmp	r5, r4
10001f26:	d1fb      	bne.n	10001f20 <runtime_init+0xac>
10001f28:	bd70      	pop	{r4, r5, r6, pc}
10001f2a:	46c0      	nop			; (mov r8, r8)
10001f2c:	4000e000 	.word	0x4000e000
10001f30:	fefbcdbf 	.word	0xfefbcdbf
10001f34:	003c7ffe 	.word	0x003c7ffe
10001f38:	4000f000 	.word	0x4000f000
10001f3c:	4000c000 	.word	0x4000c000
10001f40:	20000f38 	.word	0x20000f38
10001f44:	20000f48 	.word	0x20000f48
10001f48:	01ffffff 	.word	0x01ffffff
10001f4c:	4001f000 	.word	0x4001f000
10001f50:	20000f38 	.word	0x20000f38
10001f54:	20000f30 	.word	0x20000f30
10001f58:	e000ed00 	.word	0xe000ed00
10001f5c:	20000000 	.word	0x20000000
10001f60:	20000f48 	.word	0x20000f48
10001f64:	20000f50 	.word	0x20000f50

10001f68 <_exit>:
10001f68:	be00      	bkpt	0x0000
10001f6a:	e7fd      	b.n	10001f68 <_exit>

10001f6c <exit>:
10001f6c:	b510      	push	{r4, lr}
10001f6e:	f7ff fffb 	bl	10001f68 <_exit>
10001f72:	46c0      	nop			; (mov r8, r8)

10001f74 <panic>:
10001f74:	b40f      	push	{r0, r1, r2, r3}
10001f76:	b500      	push	{lr}
10001f78:	4808      	ldr	r0, [pc, #32]	; (10001f9c <panic+0x28>)
10001f7a:	b083      	sub	sp, #12
10001f7c:	f000 faac 	bl	100024d8 <__wrap_puts>
10001f80:	9b04      	ldr	r3, [sp, #16]
10001f82:	2b00      	cmp	r3, #0
10001f84:	d007      	beq.n	10001f96 <panic+0x22>
10001f86:	a905      	add	r1, sp, #20
10001f88:	0018      	movs	r0, r3
10001f8a:	9101      	str	r1, [sp, #4]
10001f8c:	f000 f818 	bl	10001fc0 <weak_raw_vprintf>
10001f90:	4803      	ldr	r0, [pc, #12]	; (10001fa0 <panic+0x2c>)
10001f92:	f000 faa1 	bl	100024d8 <__wrap_puts>
10001f96:	2001      	movs	r0, #1
10001f98:	f7ff ffe6 	bl	10001f68 <_exit>
10001f9c:	10004a78 	.word	0x10004a78
10001fa0:	10004a88 	.word	0x10004a88

10001fa4 <hard_assertion_failure>:
10001fa4:	b510      	push	{r4, lr}
10001fa6:	4801      	ldr	r0, [pc, #4]	; (10001fac <hard_assertion_failure+0x8>)
10001fa8:	f7ff ffe4 	bl	10001f74 <panic>
10001fac:	10004a6c 	.word	0x10004a6c

10001fb0 <_out_char>:
10001fb0:	b510      	push	{r4, lr}
10001fb2:	2800      	cmp	r0, #0
10001fb4:	d100      	bne.n	10001fb8 <_out_char+0x8>
10001fb6:	bd10      	pop	{r4, pc}
10001fb8:	f000 fa42 	bl	10002440 <__wrap_putchar>
10001fbc:	e7fb      	b.n	10001fb6 <_out_char+0x6>
10001fbe:	46c0      	nop			; (mov r8, r8)

10001fc0 <weak_raw_vprintf>:
10001fc0:	b510      	push	{r4, lr}
10001fc2:	4a09      	ldr	r2, [pc, #36]	; (10001fe8 <weak_raw_vprintf+0x28>)
10001fc4:	b084      	sub	sp, #16
10001fc6:	6814      	ldr	r4, [r2, #0]
10001fc8:	2c00      	cmp	r4, #0
10001fca:	d009      	beq.n	10001fe0 <weak_raw_vprintf+0x20>
10001fcc:	2201      	movs	r2, #1
10001fce:	9100      	str	r1, [sp, #0]
10001fd0:	0003      	movs	r3, r0
10001fd2:	4252      	negs	r2, r2
10001fd4:	a903      	add	r1, sp, #12
10001fd6:	4805      	ldr	r0, [pc, #20]	; (10001fec <weak_raw_vprintf+0x2c>)
10001fd8:	47a0      	blx	r4
10001fda:	2001      	movs	r0, #1
10001fdc:	b004      	add	sp, #16
10001fde:	bd10      	pop	{r4, pc}
10001fe0:	f000 fa7a 	bl	100024d8 <__wrap_puts>
10001fe4:	2000      	movs	r0, #0
10001fe6:	e7f9      	b.n	10001fdc <weak_raw_vprintf+0x1c>
10001fe8:	200019b0 	.word	0x200019b0
10001fec:	10001fb1 	.word	0x10001fb1

10001ff0 <__aeabi_bits_init>:
10001ff0:	4801      	ldr	r0, [pc, #4]	; (10001ff8 <__aeabi_bits_init+0x8>)
10001ff2:	2104      	movs	r1, #4
10001ff4:	4b01      	ldr	r3, [pc, #4]	; (10001ffc <__aeabi_bits_init+0xc>)
10001ff6:	4718      	bx	r3
10001ff8:	20000ed0 	.word	0x20000ed0
10001ffc:	10002021 	.word	0x10002021

10002000 <rom_func_lookup>:
10002000:	2314      	movs	r3, #20
10002002:	b510      	push	{r4, lr}
10002004:	0001      	movs	r1, r0
10002006:	8818      	ldrh	r0, [r3, #0]
10002008:	3304      	adds	r3, #4
1000200a:	881b      	ldrh	r3, [r3, #0]
1000200c:	4798      	blx	r3
1000200e:	bd10      	pop	{r4, pc}

10002010 <rom_data_lookup>:
10002010:	2316      	movs	r3, #22
10002012:	b510      	push	{r4, lr}
10002014:	0001      	movs	r1, r0
10002016:	8818      	ldrh	r0, [r3, #0]
10002018:	3302      	adds	r3, #2
1000201a:	881b      	ldrh	r3, [r3, #0]
1000201c:	4798      	blx	r3
1000201e:	bd10      	pop	{r4, pc}

10002020 <rom_funcs_lookup>:
10002020:	b5f0      	push	{r4, r5, r6, r7, lr}
10002022:	46c6      	mov	lr, r8
10002024:	b500      	push	{lr}
10002026:	2900      	cmp	r1, #0
10002028:	d016      	beq.n	10002058 <rom_funcs_lookup+0x38>
1000202a:	2314      	movs	r3, #20
1000202c:	0004      	movs	r4, r0
1000202e:	2501      	movs	r5, #1
10002030:	4698      	mov	r8, r3
10002032:	2718      	movs	r7, #24
10002034:	0089      	lsls	r1, r1, #2
10002036:	1846      	adds	r6, r0, r1
10002038:	4643      	mov	r3, r8
1000203a:	6821      	ldr	r1, [r4, #0]
1000203c:	8818      	ldrh	r0, [r3, #0]
1000203e:	883b      	ldrh	r3, [r7, #0]
10002040:	4798      	blx	r3
10002042:	c401      	stmia	r4!, {r0}
10002044:	1e43      	subs	r3, r0, #1
10002046:	4198      	sbcs	r0, r3
10002048:	4240      	negs	r0, r0
1000204a:	4005      	ands	r5, r0
1000204c:	42a6      	cmp	r6, r4
1000204e:	d1f3      	bne.n	10002038 <rom_funcs_lookup+0x18>
10002050:	0028      	movs	r0, r5
10002052:	bc04      	pop	{r2}
10002054:	4690      	mov	r8, r2
10002056:	bdf0      	pop	{r4, r5, r6, r7, pc}
10002058:	2501      	movs	r5, #1
1000205a:	e7f9      	b.n	10002050 <rom_funcs_lookup+0x30>

1000205c <__wrap___aeabi_uidiv>:
1000205c:	4a11      	ldr	r2, [pc, #68]	; (100020a4 <divmod_u32u32_savestate+0x18>)
1000205e:	6f93      	ldr	r3, [r2, #120]	; 0x78
10002060:	089b      	lsrs	r3, r3, #2
10002062:	d213      	bcs.n	1000208c <divmod_u32u32_savestate>

10002064 <divmod_u32u32_unsafe>:
10002064:	6610      	str	r0, [r2, #96]	; 0x60
10002066:	6651      	str	r1, [r2, #100]	; 0x64
10002068:	2900      	cmp	r1, #0
1000206a:	d005      	beq.n	10002078 <divmod_u32u32_unsafe+0x14>
1000206c:	e7ff      	b.n	1000206e <divmod_u32u32_unsafe+0xa>
1000206e:	e7ff      	b.n	10002070 <divmod_u32u32_unsafe+0xc>
10002070:	e7ff      	b.n	10002072 <divmod_u32u32_unsafe+0xe>
10002072:	6f51      	ldr	r1, [r2, #116]	; 0x74
10002074:	6f10      	ldr	r0, [r2, #112]	; 0x70
10002076:	4770      	bx	lr
10002078:	b504      	push	{r2, lr}
1000207a:	2800      	cmp	r0, #0
1000207c:	d001      	beq.n	10002082 <divmod_u32u32_unsafe+0x1e>
1000207e:	2000      	movs	r0, #0
10002080:	43c0      	mvns	r0, r0
10002082:	f002 fc7d 	bl	10004980 <____aeabi_idiv0_veneer>
10002086:	2100      	movs	r1, #0
10002088:	bd04      	pop	{r2, pc}
1000208a:	46c0      	nop			; (mov r8, r8)

1000208c <divmod_u32u32_savestate>:
1000208c:	b5f0      	push	{r4, r5, r6, r7, lr}
1000208e:	6e14      	ldr	r4, [r2, #96]	; 0x60
10002090:	6e55      	ldr	r5, [r2, #100]	; 0x64
10002092:	6f57      	ldr	r7, [r2, #116]	; 0x74
10002094:	6f16      	ldr	r6, [r2, #112]	; 0x70
10002096:	f7ff ffe5 	bl	10002064 <divmod_u32u32_unsafe>
1000209a:	6614      	str	r4, [r2, #96]	; 0x60
1000209c:	6655      	str	r5, [r2, #100]	; 0x64
1000209e:	6757      	str	r7, [r2, #116]	; 0x74
100020a0:	6716      	str	r6, [r2, #112]	; 0x70
100020a2:	bdf0      	pop	{r4, r5, r6, r7, pc}
100020a4:	d0000000 	.word	0xd0000000

100020a8 <__aeabi_double_init>:
100020a8:	2313      	movs	r3, #19
100020aa:	b570      	push	{r4, r5, r6, lr}
100020ac:	781d      	ldrb	r5, [r3, #0]
100020ae:	2d01      	cmp	r5, #1
100020b0:	d015      	beq.n	100020de <__aeabi_double_init+0x36>
100020b2:	dd10      	ble.n	100020d6 <__aeabi_double_init+0x2e>
100020b4:	4826      	ldr	r0, [pc, #152]	; (10002150 <__aeabi_double_init+0xa8>)
100020b6:	f7ff ffab 	bl	10002010 <rom_data_lookup>
100020ba:	4c26      	ldr	r4, [pc, #152]	; (10002154 <__aeabi_double_init+0xac>)
100020bc:	0001      	movs	r1, r0
100020be:	2280      	movs	r2, #128	; 0x80
100020c0:	0020      	movs	r0, r4
100020c2:	f000 f8d7 	bl	10002274 <__wrap___aeabi_memcpy>
100020c6:	2d02      	cmp	r5, #2
100020c8:	d006      	beq.n	100020d8 <__aeabi_double_init+0x30>
100020ca:	4823      	ldr	r0, [pc, #140]	; (10002158 <__aeabi_double_init+0xb0>)
100020cc:	f7ff ff98 	bl	10002000 <rom_func_lookup>
100020d0:	4b22      	ldr	r3, [pc, #136]	; (1000215c <__aeabi_double_init+0xb4>)
100020d2:	6018      	str	r0, [r3, #0]
100020d4:	bd70      	pop	{r4, r5, r6, pc}
100020d6:	4c1f      	ldr	r4, [pc, #124]	; (10002154 <__aeabi_double_init+0xac>)
100020d8:	4a21      	ldr	r2, [pc, #132]	; (10002160 <__aeabi_double_init+0xb8>)
100020da:	64a2      	str	r2, [r4, #72]	; 0x48
100020dc:	e7f5      	b.n	100020ca <__aeabi_double_init+0x22>
100020de:	4c1d      	ldr	r4, [pc, #116]	; (10002154 <__aeabi_double_init+0xac>)
100020e0:	4a1f      	ldr	r2, [pc, #124]	; (10002160 <__aeabi_double_init+0xb8>)
100020e2:	08a3      	lsrs	r3, r4, #2
100020e4:	425b      	negs	r3, r3
100020e6:	401d      	ands	r5, r3
100020e8:	d02f      	beq.n	1000214a <__aeabi_double_init+0xa2>
100020ea:	002b      	movs	r3, r5
100020ec:	6022      	str	r2, [r4, #0]
100020ee:	2020      	movs	r0, #32
100020f0:	00a9      	lsls	r1, r5, #2
100020f2:	1861      	adds	r1, r4, r1
100020f4:	1b45      	subs	r5, r0, r5
100020f6:	600a      	str	r2, [r1, #0]
100020f8:	604a      	str	r2, [r1, #4]
100020fa:	608a      	str	r2, [r1, #8]
100020fc:	60ca      	str	r2, [r1, #12]
100020fe:	610a      	str	r2, [r1, #16]
10002100:	614a      	str	r2, [r1, #20]
10002102:	618a      	str	r2, [r1, #24]
10002104:	61ca      	str	r2, [r1, #28]
10002106:	620a      	str	r2, [r1, #32]
10002108:	624a      	str	r2, [r1, #36]	; 0x24
1000210a:	628a      	str	r2, [r1, #40]	; 0x28
1000210c:	62ca      	str	r2, [r1, #44]	; 0x2c
1000210e:	630a      	str	r2, [r1, #48]	; 0x30
10002110:	634a      	str	r2, [r1, #52]	; 0x34
10002112:	638a      	str	r2, [r1, #56]	; 0x38
10002114:	63ca      	str	r2, [r1, #60]	; 0x3c
10002116:	640a      	str	r2, [r1, #64]	; 0x40
10002118:	644a      	str	r2, [r1, #68]	; 0x44
1000211a:	648a      	str	r2, [r1, #72]	; 0x48
1000211c:	64ca      	str	r2, [r1, #76]	; 0x4c
1000211e:	650a      	str	r2, [r1, #80]	; 0x50
10002120:	654a      	str	r2, [r1, #84]	; 0x54
10002122:	658a      	str	r2, [r1, #88]	; 0x58
10002124:	65ca      	str	r2, [r1, #92]	; 0x5c
10002126:	660a      	str	r2, [r1, #96]	; 0x60
10002128:	664a      	str	r2, [r1, #100]	; 0x64
1000212a:	668a      	str	r2, [r1, #104]	; 0x68
1000212c:	66ca      	str	r2, [r1, #108]	; 0x6c
1000212e:	670a      	str	r2, [r1, #112]	; 0x70
10002130:	674a      	str	r2, [r1, #116]	; 0x74
10002132:	086d      	lsrs	r5, r5, #1
10002134:	2d10      	cmp	r5, #16
10002136:	d103      	bne.n	10002140 <__aeabi_double_init+0x98>
10002138:	678a      	str	r2, [r1, #120]	; 0x78
1000213a:	67ca      	str	r2, [r1, #124]	; 0x7c
1000213c:	64a2      	str	r2, [r4, #72]	; 0x48
1000213e:	e7c4      	b.n	100020ca <__aeabi_double_init+0x22>
10002140:	331e      	adds	r3, #30
10002142:	009b      	lsls	r3, r3, #2
10002144:	50e2      	str	r2, [r4, r3]
10002146:	64a2      	str	r2, [r4, #72]	; 0x48
10002148:	e7bf      	b.n	100020ca <__aeabi_double_init+0x22>
1000214a:	2300      	movs	r3, #0
1000214c:	e7cf      	b.n	100020ee <__aeabi_double_init+0x46>
1000214e:	46c0      	nop			; (mov r8, r8)
10002150:	00004453 	.word	0x00004453
10002154:	20001a18 	.word	0x20001a18
10002158:	0000334c 	.word	0x0000334c
1000215c:	200019dc 	.word	0x200019dc
10002160:	10002165 	.word	0x10002165

10002164 <double_table_shim_on_use_helper>:
10002164:	b507      	push	{r0, r1, r2, lr}
10002166:	4660      	mov	r0, ip
10002168:	8801      	ldrh	r1, [r0, #0]
1000216a:	0a0a      	lsrs	r2, r1, #8
1000216c:	3002      	adds	r0, #2
1000216e:	2adf      	cmp	r2, #223	; 0xdf
10002170:	d1fa      	bne.n	10002168 <double_table_shim_on_use_helper+0x4>
10002172:	b2c9      	uxtb	r1, r1
10002174:	0882      	lsrs	r2, r0, #2
10002176:	d304      	bcc.n	10002182 <double_table_shim_on_use_helper+0x1e>
10002178:	8802      	ldrh	r2, [r0, #0]
1000217a:	8840      	ldrh	r0, [r0, #2]
1000217c:	0400      	lsls	r0, r0, #16
1000217e:	4310      	orrs	r0, r2
10002180:	e000      	b.n	10002184 <double_table_shim_on_use_helper+0x20>
10002182:	6800      	ldr	r0, [r0, #0]
10002184:	4a01      	ldr	r2, [pc, #4]	; (1000218c <double_table_shim_on_use_helper+0x28>)
10002186:	5050      	str	r0, [r2, r1]
10002188:	9003      	str	r0, [sp, #12]
1000218a:	bd07      	pop	{r0, r1, r2, pc}
1000218c:	20001a18 	.word	0x20001a18

10002190 <__wrap___aeabi_lmul>:
10002190:	4351      	muls	r1, r2
10002192:	4343      	muls	r3, r0
10002194:	18c9      	adds	r1, r1, r3
10002196:	468c      	mov	ip, r1
10002198:	0c11      	lsrs	r1, r2, #16
1000219a:	b283      	uxth	r3, r0
1000219c:	434b      	muls	r3, r1
1000219e:	b410      	push	{r4}
100021a0:	0c04      	lsrs	r4, r0, #16
100021a2:	4361      	muls	r1, r4
100021a4:	b292      	uxth	r2, r2
100021a6:	b280      	uxth	r0, r0
100021a8:	4350      	muls	r0, r2
100021aa:	4362      	muls	r2, r4
100021ac:	041c      	lsls	r4, r3, #16
100021ae:	0c1b      	lsrs	r3, r3, #16
100021b0:	1900      	adds	r0, r0, r4
100021b2:	bc10      	pop	{r4}
100021b4:	4159      	adcs	r1, r3
100021b6:	0413      	lsls	r3, r2, #16
100021b8:	0c12      	lsrs	r2, r2, #16
100021ba:	18c0      	adds	r0, r0, r3
100021bc:	4151      	adcs	r1, r2
100021be:	4461      	add	r1, ip
100021c0:	4770      	bx	lr
	...

100021c4 <__aeabi_float_init>:
100021c4:	2313      	movs	r3, #19
100021c6:	b510      	push	{r4, lr}
100021c8:	781c      	ldrb	r4, [r3, #0]
100021ca:	4813      	ldr	r0, [pc, #76]	; (10002218 <__aeabi_float_init+0x54>)
100021cc:	f7ff ff20 	bl	10002010 <rom_data_lookup>
100021d0:	2c01      	cmp	r4, #1
100021d2:	d00b      	beq.n	100021ec <__aeabi_float_init+0x28>
100021d4:	dd04      	ble.n	100021e0 <__aeabi_float_init+0x1c>
100021d6:	0001      	movs	r1, r0
100021d8:	2280      	movs	r2, #128	; 0x80
100021da:	4810      	ldr	r0, [pc, #64]	; (1000221c <__aeabi_float_init+0x58>)
100021dc:	f000 f84a 	bl	10002274 <__wrap___aeabi_memcpy>
100021e0:	480f      	ldr	r0, [pc, #60]	; (10002220 <__aeabi_float_init+0x5c>)
100021e2:	f7ff ff0d 	bl	10002000 <rom_func_lookup>
100021e6:	4b0f      	ldr	r3, [pc, #60]	; (10002224 <__aeabi_float_init+0x60>)
100021e8:	6018      	str	r0, [r3, #0]
100021ea:	bd10      	pop	{r4, pc}
100021ec:	4c0b      	ldr	r4, [pc, #44]	; (1000221c <__aeabi_float_init+0x58>)
100021ee:	0001      	movs	r1, r0
100021f0:	2254      	movs	r2, #84	; 0x54
100021f2:	0020      	movs	r0, r4
100021f4:	f000 f83e 	bl	10002274 <__wrap___aeabi_memcpy>
100021f8:	4b0b      	ldr	r3, [pc, #44]	; (10002228 <__aeabi_float_init+0x64>)
100021fa:	6563      	str	r3, [r4, #84]	; 0x54
100021fc:	65a3      	str	r3, [r4, #88]	; 0x58
100021fe:	65e3      	str	r3, [r4, #92]	; 0x5c
10002200:	6623      	str	r3, [r4, #96]	; 0x60
10002202:	6663      	str	r3, [r4, #100]	; 0x64
10002204:	66a3      	str	r3, [r4, #104]	; 0x68
10002206:	66e3      	str	r3, [r4, #108]	; 0x6c
10002208:	6723      	str	r3, [r4, #112]	; 0x70
1000220a:	6763      	str	r3, [r4, #116]	; 0x74
1000220c:	67a3      	str	r3, [r4, #120]	; 0x78
1000220e:	67e3      	str	r3, [r4, #124]	; 0x7c
10002210:	6223      	str	r3, [r4, #32]
10002212:	61e3      	str	r3, [r4, #28]
10002214:	e7e4      	b.n	100021e0 <__aeabi_float_init+0x1c>
10002216:	46c0      	nop			; (mov r8, r8)
10002218:	00004653 	.word	0x00004653
1000221c:	20001b18 	.word	0x20001b18
10002220:	0000334c 	.word	0x0000334c
10002224:	200019dc 	.word	0x200019dc
10002228:	1000222d 	.word	0x1000222d

1000222c <float_table_shim_on_use_helper>:
1000222c:	b507      	push	{r0, r1, r2, lr}
1000222e:	4660      	mov	r0, ip
10002230:	8801      	ldrh	r1, [r0, #0]
10002232:	0a0a      	lsrs	r2, r1, #8
10002234:	3002      	adds	r0, #2
10002236:	2adf      	cmp	r2, #223	; 0xdf
10002238:	d1fa      	bne.n	10002230 <float_table_shim_on_use_helper+0x4>
1000223a:	b2c9      	uxtb	r1, r1
1000223c:	0882      	lsrs	r2, r0, #2
1000223e:	d304      	bcc.n	1000224a <float_table_shim_on_use_helper+0x1e>
10002240:	8802      	ldrh	r2, [r0, #0]
10002242:	8840      	ldrh	r0, [r0, #2]
10002244:	0400      	lsls	r0, r0, #16
10002246:	4310      	orrs	r0, r2
10002248:	e000      	b.n	1000224c <float_table_shim_on_use_helper+0x20>
1000224a:	6800      	ldr	r0, [r0, #0]
1000224c:	4a01      	ldr	r2, [pc, #4]	; (10002254 <float_table_shim_on_use_helper+0x28>)
1000224e:	5050      	str	r0, [r2, r1]
10002250:	9003      	str	r0, [sp, #12]
10002252:	bd07      	pop	{r0, r1, r2, pc}
10002254:	20001b18 	.word	0x20001b18

10002258 <__aeabi_mem_init>:
10002258:	4801      	ldr	r0, [pc, #4]	; (10002260 <__aeabi_mem_init+0x8>)
1000225a:	2104      	movs	r1, #4
1000225c:	4b01      	ldr	r3, [pc, #4]	; (10002264 <__aeabi_mem_init+0xc>)
1000225e:	4718      	bx	r3
10002260:	20000ee0 	.word	0x20000ee0
10002264:	10002021 	.word	0x10002021

10002268 <__wrap_memset>:
10002268:	4b01      	ldr	r3, [pc, #4]	; (10002270 <__wrap_memset+0x8>)
1000226a:	681b      	ldr	r3, [r3, #0]
1000226c:	4718      	bx	r3
1000226e:	0000      	.short	0x0000
10002270:	20000ee0 	.word	0x20000ee0

10002274 <__wrap___aeabi_memcpy>:
10002274:	4b01      	ldr	r3, [pc, #4]	; (1000227c <__wrap___aeabi_memcpy+0x8>)
10002276:	685b      	ldr	r3, [r3, #4]
10002278:	4718      	bx	r3
1000227a:	0000      	.short	0x0000
1000227c:	20000ee0 	.word	0x20000ee0

10002280 <stdio_out_chars_no_crlf>:
10002280:	0003      	movs	r3, r0
10002282:	b510      	push	{r4, lr}
10002284:	0008      	movs	r0, r1
10002286:	681b      	ldr	r3, [r3, #0]
10002288:	0011      	movs	r1, r2
1000228a:	4798      	blx	r3
1000228c:	bd10      	pop	{r4, pc}
1000228e:	46c0      	nop			; (mov r8, r8)

10002290 <stdio_out_chars_crlf>:
10002290:	b5f8      	push	{r3, r4, r5, r6, r7, lr}
10002292:	4647      	mov	r7, r8
10002294:	46ce      	mov	lr, r9
10002296:	b580      	push	{r7, lr}
10002298:	7d43      	ldrb	r3, [r0, #21]
1000229a:	4680      	mov	r8, r0
1000229c:	000c      	movs	r4, r1
1000229e:	0015      	movs	r5, r2
100022a0:	2b00      	cmp	r3, #0
100022a2:	d043      	beq.n	1000232c <stdio_out_chars_crlf+0x9c>
100022a4:	2a00      	cmp	r2, #0
100022a6:	dd34      	ble.n	10002312 <stdio_out_chars_crlf+0x82>
100022a8:	780a      	ldrb	r2, [r1, #0]
100022aa:	7d03      	ldrb	r3, [r0, #20]
100022ac:	2000      	movs	r0, #0
100022ae:	2a0a      	cmp	r2, #10
100022b0:	d033      	beq.n	1000231a <stdio_out_chars_crlf+0x8a>
100022b2:	2d01      	cmp	r5, #1
100022b4:	d01e      	beq.n	100022f4 <stdio_out_chars_crlf+0x64>
100022b6:	4b20      	ldr	r3, [pc, #128]	; (10002338 <stdio_out_chars_crlf+0xa8>)
100022b8:	2101      	movs	r1, #1
100022ba:	1e67      	subs	r7, r4, #1
100022bc:	4699      	mov	r9, r3
100022be:	e002      	b.n	100022c6 <stdio_out_chars_crlf+0x36>
100022c0:	0031      	movs	r1, r6
100022c2:	42b5      	cmp	r5, r6
100022c4:	d016      	beq.n	100022f4 <stdio_out_chars_crlf+0x64>
100022c6:	5c63      	ldrb	r3, [r4, r1]
100022c8:	5c7a      	ldrb	r2, [r7, r1]
100022ca:	1c4e      	adds	r6, r1, #1
100022cc:	2b0a      	cmp	r3, #10
100022ce:	d1f7      	bne.n	100022c0 <stdio_out_chars_crlf+0x30>
100022d0:	2a0d      	cmp	r2, #13
100022d2:	d0f5      	beq.n	100022c0 <stdio_out_chars_crlf+0x30>
100022d4:	4643      	mov	r3, r8
100022d6:	681b      	ldr	r3, [r3, #0]
100022d8:	4288      	cmp	r0, r1
100022da:	da04      	bge.n	100022e6 <stdio_out_chars_crlf+0x56>
100022dc:	1a09      	subs	r1, r1, r0
100022de:	1820      	adds	r0, r4, r0
100022e0:	4798      	blx	r3
100022e2:	4643      	mov	r3, r8
100022e4:	681b      	ldr	r3, [r3, #0]
100022e6:	2102      	movs	r1, #2
100022e8:	4648      	mov	r0, r9
100022ea:	4798      	blx	r3
100022ec:	0030      	movs	r0, r6
100022ee:	0031      	movs	r1, r6
100022f0:	42b5      	cmp	r5, r6
100022f2:	d1e8      	bne.n	100022c6 <stdio_out_chars_crlf+0x36>
100022f4:	4285      	cmp	r5, r0
100022f6:	dd04      	ble.n	10002302 <stdio_out_chars_crlf+0x72>
100022f8:	4643      	mov	r3, r8
100022fa:	1a29      	subs	r1, r5, r0
100022fc:	681b      	ldr	r3, [r3, #0]
100022fe:	1820      	adds	r0, r4, r0
10002300:	4798      	blx	r3
10002302:	1964      	adds	r4, r4, r5
10002304:	3c01      	subs	r4, #1
10002306:	7823      	ldrb	r3, [r4, #0]
10002308:	3b0d      	subs	r3, #13
1000230a:	425a      	negs	r2, r3
1000230c:	4153      	adcs	r3, r2
1000230e:	4642      	mov	r2, r8
10002310:	7513      	strb	r3, [r2, #20]
10002312:	bc0c      	pop	{r2, r3}
10002314:	4690      	mov	r8, r2
10002316:	4699      	mov	r9, r3
10002318:	bdf8      	pop	{r3, r4, r5, r6, r7, pc}
1000231a:	2b00      	cmp	r3, #0
1000231c:	d1c9      	bne.n	100022b2 <stdio_out_chars_crlf+0x22>
1000231e:	4643      	mov	r3, r8
10002320:	4805      	ldr	r0, [pc, #20]	; (10002338 <stdio_out_chars_crlf+0xa8>)
10002322:	2102      	movs	r1, #2
10002324:	681b      	ldr	r3, [r3, #0]
10002326:	4798      	blx	r3
10002328:	2001      	movs	r0, #1
1000232a:	e7c2      	b.n	100022b2 <stdio_out_chars_crlf+0x22>
1000232c:	6803      	ldr	r3, [r0, #0]
1000232e:	0011      	movs	r1, r2
10002330:	0020      	movs	r0, r4
10002332:	4798      	blx	r3
10002334:	e7ed      	b.n	10002312 <stdio_out_chars_crlf+0x82>
10002336:	46c0      	nop			; (mov r8, r8)
10002338:	10004af0 	.word	0x10004af0

1000233c <stdio_put_string>:
1000233c:	b5f0      	push	{r4, r5, r6, r7, lr}
1000233e:	46de      	mov	lr, fp
10002340:	4657      	mov	r7, sl
10002342:	464e      	mov	r6, r9
10002344:	4645      	mov	r5, r8
10002346:	b5e0      	push	{r5, r6, r7, lr}
10002348:	b085      	sub	sp, #20
1000234a:	0017      	movs	r7, r2
1000234c:	001c      	movs	r4, r3
1000234e:	0006      	movs	r6, r0
10002350:	000d      	movs	r5, r1
10002352:	f7fe ff4d 	bl	100011f0 <time_us_64>
10002356:	2300      	movs	r3, #0
10002358:	4a32      	ldr	r2, [pc, #200]	; (10002424 <stdio_put_string+0xe8>)
1000235a:	1812      	adds	r2, r2, r0
1000235c:	414b      	adcs	r3, r1
1000235e:	2b00      	cmp	r3, #0
10002360:	db5b      	blt.n	1000241a <stdio_put_string+0xde>
10002362:	4931      	ldr	r1, [pc, #196]	; (10002428 <stdio_put_string+0xec>)
10002364:	0008      	movs	r0, r1
10002366:	4688      	mov	r8, r1
10002368:	f002 fb22 	bl	100049b0 <__mutex_try_enter_block_until_veneer>
1000236c:	9001      	str	r0, [sp, #4]
1000236e:	1c6b      	adds	r3, r5, #1
10002370:	d103      	bne.n	1000237a <stdio_put_string+0x3e>
10002372:	0030      	movs	r0, r6
10002374:	f002 faae 	bl	100048d4 <strlen>
10002378:	0005      	movs	r5, r0
1000237a:	2c00      	cmp	r4, #0
1000237c:	d128      	bne.n	100023d0 <stdio_put_string+0x94>
1000237e:	4b2b      	ldr	r3, [pc, #172]	; (1000242c <stdio_put_string+0xf0>)
10002380:	469a      	mov	sl, r3
10002382:	4b2b      	ldr	r3, [pc, #172]	; (10002430 <stdio_put_string+0xf4>)
10002384:	681c      	ldr	r4, [r3, #0]
10002386:	2c00      	cmp	r4, #0
10002388:	d015      	beq.n	100023b6 <stdio_put_string+0x7a>
1000238a:	2f00      	cmp	r7, #0
1000238c:	d123      	bne.n	100023d6 <stdio_put_string+0x9a>
1000238e:	4f29      	ldr	r7, [pc, #164]	; (10002434 <stdio_put_string+0xf8>)
10002390:	e002      	b.n	10002398 <stdio_put_string+0x5c>
10002392:	6924      	ldr	r4, [r4, #16]
10002394:	2c00      	cmp	r4, #0
10002396:	d00e      	beq.n	100023b6 <stdio_put_string+0x7a>
10002398:	6823      	ldr	r3, [r4, #0]
1000239a:	2b00      	cmp	r3, #0
1000239c:	d0f9      	beq.n	10002392 <stdio_put_string+0x56>
1000239e:	683b      	ldr	r3, [r7, #0]
100023a0:	2b00      	cmp	r3, #0
100023a2:	d001      	beq.n	100023a8 <stdio_put_string+0x6c>
100023a4:	42a3      	cmp	r3, r4
100023a6:	d1f4      	bne.n	10002392 <stdio_put_string+0x56>
100023a8:	0020      	movs	r0, r4
100023aa:	002a      	movs	r2, r5
100023ac:	0031      	movs	r1, r6
100023ae:	47d0      	blx	sl
100023b0:	6924      	ldr	r4, [r4, #16]
100023b2:	2c00      	cmp	r4, #0
100023b4:	d1f0      	bne.n	10002398 <stdio_put_string+0x5c>
100023b6:	9b01      	ldr	r3, [sp, #4]
100023b8:	2b00      	cmp	r3, #0
100023ba:	d12a      	bne.n	10002412 <stdio_put_string+0xd6>
100023bc:	1e68      	subs	r0, r5, #1
100023be:	4185      	sbcs	r5, r0
100023c0:	b2e8      	uxtb	r0, r5
100023c2:	b005      	add	sp, #20
100023c4:	bc3c      	pop	{r2, r3, r4, r5}
100023c6:	4690      	mov	r8, r2
100023c8:	4699      	mov	r9, r3
100023ca:	46a2      	mov	sl, r4
100023cc:	46ab      	mov	fp, r5
100023ce:	bdf0      	pop	{r4, r5, r6, r7, pc}
100023d0:	4b19      	ldr	r3, [pc, #100]	; (10002438 <stdio_put_string+0xfc>)
100023d2:	469a      	mov	sl, r3
100023d4:	e7d5      	b.n	10002382 <stdio_put_string+0x46>
100023d6:	4b17      	ldr	r3, [pc, #92]	; (10002434 <stdio_put_string+0xf8>)
100023d8:	469b      	mov	fp, r3
100023da:	ab02      	add	r3, sp, #8
100023dc:	1ddf      	adds	r7, r3, #7
100023de:	230a      	movs	r3, #10
100023e0:	4699      	mov	r9, r3
100023e2:	e002      	b.n	100023ea <stdio_put_string+0xae>
100023e4:	6924      	ldr	r4, [r4, #16]
100023e6:	2c00      	cmp	r4, #0
100023e8:	d0e5      	beq.n	100023b6 <stdio_put_string+0x7a>
100023ea:	6823      	ldr	r3, [r4, #0]
100023ec:	2b00      	cmp	r3, #0
100023ee:	d0f9      	beq.n	100023e4 <stdio_put_string+0xa8>
100023f0:	465b      	mov	r3, fp
100023f2:	681b      	ldr	r3, [r3, #0]
100023f4:	2b00      	cmp	r3, #0
100023f6:	d001      	beq.n	100023fc <stdio_put_string+0xc0>
100023f8:	42a3      	cmp	r3, r4
100023fa:	d1f3      	bne.n	100023e4 <stdio_put_string+0xa8>
100023fc:	002a      	movs	r2, r5
100023fe:	0031      	movs	r1, r6
10002400:	0020      	movs	r0, r4
10002402:	47d0      	blx	sl
10002404:	464b      	mov	r3, r9
10002406:	2201      	movs	r2, #1
10002408:	0039      	movs	r1, r7
1000240a:	0020      	movs	r0, r4
1000240c:	703b      	strb	r3, [r7, #0]
1000240e:	47d0      	blx	sl
10002410:	e7e8      	b.n	100023e4 <stdio_put_string+0xa8>
10002412:	4640      	mov	r0, r8
10002414:	f002 fa9c 	bl	10004950 <__mutex_exit_veneer>
10002418:	e7d0      	b.n	100023bc <stdio_put_string+0x80>
1000241a:	2201      	movs	r2, #1
1000241c:	4b07      	ldr	r3, [pc, #28]	; (1000243c <stdio_put_string+0x100>)
1000241e:	4252      	negs	r2, r2
10002420:	e79f      	b.n	10002362 <stdio_put_string+0x26>
10002422:	46c0      	nop			; (mov r8, r8)
10002424:	000f4240 	.word	0x000f4240
10002428:	20000f30 	.word	0x20000f30
1000242c:	10002291 	.word	0x10002291
10002430:	200015a4 	.word	0x200015a4
10002434:	200015ac 	.word	0x200015ac
10002438:	10002281 	.word	0x10002281
1000243c:	7fffffff 	.word	0x7fffffff

10002440 <__wrap_putchar>:
10002440:	b5f0      	push	{r4, r5, r6, r7, lr}
10002442:	46ce      	mov	lr, r9
10002444:	4647      	mov	r7, r8
10002446:	b580      	push	{r7, lr}
10002448:	b083      	sub	sp, #12
1000244a:	466b      	mov	r3, sp
1000244c:	1dde      	adds	r6, r3, #7
1000244e:	0005      	movs	r5, r0
10002450:	7030      	strb	r0, [r6, #0]
10002452:	f7fe fecd 	bl	100011f0 <time_us_64>
10002456:	2300      	movs	r3, #0
10002458:	4a1a      	ldr	r2, [pc, #104]	; (100024c4 <__wrap_putchar+0x84>)
1000245a:	1812      	adds	r2, r2, r0
1000245c:	414b      	adcs	r3, r1
1000245e:	2b00      	cmp	r3, #0
10002460:	db2c      	blt.n	100024bc <__wrap_putchar+0x7c>
10002462:	4f19      	ldr	r7, [pc, #100]	; (100024c8 <__wrap_putchar+0x88>)
10002464:	0038      	movs	r0, r7
10002466:	f002 faa3 	bl	100049b0 <__mutex_try_enter_block_until_veneer>
1000246a:	4b18      	ldr	r3, [pc, #96]	; (100024cc <__wrap_putchar+0x8c>)
1000246c:	4680      	mov	r8, r0
1000246e:	681c      	ldr	r4, [r3, #0]
10002470:	2c00      	cmp	r4, #0
10002472:	d016      	beq.n	100024a2 <__wrap_putchar+0x62>
10002474:	4b16      	ldr	r3, [pc, #88]	; (100024d0 <__wrap_putchar+0x90>)
10002476:	4699      	mov	r9, r3
10002478:	e002      	b.n	10002480 <__wrap_putchar+0x40>
1000247a:	6924      	ldr	r4, [r4, #16]
1000247c:	2c00      	cmp	r4, #0
1000247e:	d010      	beq.n	100024a2 <__wrap_putchar+0x62>
10002480:	6823      	ldr	r3, [r4, #0]
10002482:	2b00      	cmp	r3, #0
10002484:	d0f9      	beq.n	1000247a <__wrap_putchar+0x3a>
10002486:	464b      	mov	r3, r9
10002488:	681b      	ldr	r3, [r3, #0]
1000248a:	2b00      	cmp	r3, #0
1000248c:	d001      	beq.n	10002492 <__wrap_putchar+0x52>
1000248e:	42a3      	cmp	r3, r4
10002490:	d1f3      	bne.n	1000247a <__wrap_putchar+0x3a>
10002492:	0020      	movs	r0, r4
10002494:	2201      	movs	r2, #1
10002496:	0031      	movs	r1, r6
10002498:	f7ff fefa 	bl	10002290 <stdio_out_chars_crlf>
1000249c:	6924      	ldr	r4, [r4, #16]
1000249e:	2c00      	cmp	r4, #0
100024a0:	d1ee      	bne.n	10002480 <__wrap_putchar+0x40>
100024a2:	4643      	mov	r3, r8
100024a4:	2b00      	cmp	r3, #0
100024a6:	d105      	bne.n	100024b4 <__wrap_putchar+0x74>
100024a8:	0028      	movs	r0, r5
100024aa:	b003      	add	sp, #12
100024ac:	bc0c      	pop	{r2, r3}
100024ae:	4690      	mov	r8, r2
100024b0:	4699      	mov	r9, r3
100024b2:	bdf0      	pop	{r4, r5, r6, r7, pc}
100024b4:	0038      	movs	r0, r7
100024b6:	f002 fa4b 	bl	10004950 <__mutex_exit_veneer>
100024ba:	e7f5      	b.n	100024a8 <__wrap_putchar+0x68>
100024bc:	2201      	movs	r2, #1
100024be:	4b05      	ldr	r3, [pc, #20]	; (100024d4 <__wrap_putchar+0x94>)
100024c0:	4252      	negs	r2, r2
100024c2:	e7ce      	b.n	10002462 <__wrap_putchar+0x22>
100024c4:	000f4240 	.word	0x000f4240
100024c8:	20000f30 	.word	0x20000f30
100024cc:	200015a4 	.word	0x200015a4
100024d0:	200015ac 	.word	0x200015ac
100024d4:	7fffffff 	.word	0x7fffffff

100024d8 <__wrap_puts>:
100024d8:	b570      	push	{r4, r5, r6, lr}
100024da:	0004      	movs	r4, r0
100024dc:	f002 f9fa 	bl	100048d4 <strlen>
100024e0:	2300      	movs	r3, #0
100024e2:	0001      	movs	r1, r0
100024e4:	0005      	movs	r5, r0
100024e6:	2201      	movs	r2, #1
100024e8:	0020      	movs	r0, r4
100024ea:	f7ff ff27 	bl	1000233c <stdio_put_string>
100024ee:	4b08      	ldr	r3, [pc, #32]	; (10002510 <__wrap_puts+0x38>)
100024f0:	681c      	ldr	r4, [r3, #0]
100024f2:	2c00      	cmp	r4, #0
100024f4:	d006      	beq.n	10002504 <__wrap_puts+0x2c>
100024f6:	6863      	ldr	r3, [r4, #4]
100024f8:	2b00      	cmp	r3, #0
100024fa:	d005      	beq.n	10002508 <__wrap_puts+0x30>
100024fc:	4798      	blx	r3
100024fe:	6924      	ldr	r4, [r4, #16]
10002500:	2c00      	cmp	r4, #0
10002502:	d1f8      	bne.n	100024f6 <__wrap_puts+0x1e>
10002504:	0028      	movs	r0, r5
10002506:	bd70      	pop	{r4, r5, r6, pc}
10002508:	6924      	ldr	r4, [r4, #16]
1000250a:	2c00      	cmp	r4, #0
1000250c:	d1f3      	bne.n	100024f6 <__wrap_puts+0x1e>
1000250e:	e7f9      	b.n	10002504 <__wrap_puts+0x2c>
10002510:	200015a4 	.word	0x200015a4

10002514 <stdio_set_driver_enabled>:
10002514:	4a0a      	ldr	r2, [pc, #40]	; (10002540 <stdio_set_driver_enabled+0x2c>)
10002516:	6813      	ldr	r3, [r2, #0]
10002518:	2b00      	cmp	r3, #0
1000251a:	d105      	bne.n	10002528 <stdio_set_driver_enabled+0x14>
1000251c:	e00c      	b.n	10002538 <stdio_set_driver_enabled+0x24>
1000251e:	001a      	movs	r2, r3
10002520:	691b      	ldr	r3, [r3, #16]
10002522:	3210      	adds	r2, #16
10002524:	2b00      	cmp	r3, #0
10002526:	d007      	beq.n	10002538 <stdio_set_driver_enabled+0x24>
10002528:	4298      	cmp	r0, r3
1000252a:	d1f8      	bne.n	1000251e <stdio_set_driver_enabled+0xa>
1000252c:	2900      	cmp	r1, #0
1000252e:	d102      	bne.n	10002536 <stdio_set_driver_enabled+0x22>
10002530:	6903      	ldr	r3, [r0, #16]
10002532:	6013      	str	r3, [r2, #0]
10002534:	6101      	str	r1, [r0, #16]
10002536:	4770      	bx	lr
10002538:	2900      	cmp	r1, #0
1000253a:	d0fc      	beq.n	10002536 <stdio_set_driver_enabled+0x22>
1000253c:	6010      	str	r0, [r2, #0]
1000253e:	e7fa      	b.n	10002536 <stdio_set_driver_enabled+0x22>
10002540:	200015a4 	.word	0x200015a4

10002544 <stdio_init_all>:
10002544:	b510      	push	{r4, lr}
10002546:	f000 f9e1 	bl	1000290c <stdio_usb_init>
1000254a:	bd10      	pop	{r4, pc}

1000254c <resetd_init>:
1000254c:	4770      	bx	lr
1000254e:	46c0      	nop			; (mov r8, r8)

10002550 <resetd_reset>:
10002550:	2200      	movs	r2, #0
10002552:	4b01      	ldr	r3, [pc, #4]	; (10002558 <resetd_reset+0x8>)
10002554:	701a      	strb	r2, [r3, #0]
10002556:	4770      	bx	lr
10002558:	20001a12 	.word	0x20001a12

1000255c <resetd_open>:
1000255c:	794b      	ldrb	r3, [r1, #5]
1000255e:	2000      	movs	r0, #0
10002560:	2bff      	cmp	r3, #255	; 0xff
10002562:	d10b      	bne.n	1000257c <resetd_open+0x20>
10002564:	798b      	ldrb	r3, [r1, #6]
10002566:	2b00      	cmp	r3, #0
10002568:	d108      	bne.n	1000257c <resetd_open+0x20>
1000256a:	79cb      	ldrb	r3, [r1, #7]
1000256c:	2b01      	cmp	r3, #1
1000256e:	d105      	bne.n	1000257c <resetd_open+0x20>
10002570:	2a08      	cmp	r2, #8
10002572:	d903      	bls.n	1000257c <resetd_open+0x20>
10002574:	788a      	ldrb	r2, [r1, #2]
10002576:	4b02      	ldr	r3, [pc, #8]	; (10002580 <resetd_open+0x24>)
10002578:	3009      	adds	r0, #9
1000257a:	701a      	strb	r2, [r3, #0]
1000257c:	4770      	bx	lr
1000257e:	46c0      	nop			; (mov r8, r8)
10002580:	20001a12 	.word	0x20001a12

10002584 <resetd_xfer_cb>:
10002584:	2001      	movs	r0, #1
10002586:	4770      	bx	lr

10002588 <resetd_control_xfer_cb>:
10002588:	b570      	push	{r4, r5, r6, lr}
1000258a:	2901      	cmp	r1, #1
1000258c:	d109      	bne.n	100025a2 <resetd_control_xfer_cb+0x1a>
1000258e:	4915      	ldr	r1, [pc, #84]	; (100025e4 <resetd_control_xfer_cb+0x5c>)
10002590:	7953      	ldrb	r3, [r2, #5]
10002592:	7910      	ldrb	r0, [r2, #4]
10002594:	7809      	ldrb	r1, [r1, #0]
10002596:	021b      	lsls	r3, r3, #8
10002598:	4303      	orrs	r3, r0
1000259a:	2000      	movs	r0, #0
1000259c:	4299      	cmp	r1, r3
1000259e:	d002      	beq.n	100025a6 <resetd_control_xfer_cb+0x1e>
100025a0:	bd70      	pop	{r4, r5, r6, pc}
100025a2:	2001      	movs	r0, #1
100025a4:	e7fc      	b.n	100025a0 <resetd_control_xfer_cb+0x18>
100025a6:	7853      	ldrb	r3, [r2, #1]
100025a8:	2b01      	cmp	r3, #1
100025aa:	d008      	beq.n	100025be <resetd_control_xfer_cb+0x36>
100025ac:	2b02      	cmp	r3, #2
100025ae:	d1f7      	bne.n	100025a0 <resetd_control_xfer_cb+0x18>
100025b0:	2000      	movs	r0, #0
100025b2:	2264      	movs	r2, #100	; 0x64
100025b4:	2100      	movs	r1, #0
100025b6:	f7ff fbfd 	bl	10001db4 <watchdog_reboot>
100025ba:	2001      	movs	r0, #1
100025bc:	e7f0      	b.n	100025a0 <resetd_control_xfer_cb+0x18>
100025be:	78d4      	ldrb	r4, [r2, #3]
100025c0:	7891      	ldrb	r1, [r2, #2]
100025c2:	0224      	lsls	r4, r4, #8
100025c4:	430c      	orrs	r4, r1
100025c6:	0005      	movs	r5, r0
100025c8:	05e2      	lsls	r2, r4, #23
100025ca:	d502      	bpl.n	100025d2 <resetd_control_xfer_cb+0x4a>
100025cc:	0a62      	lsrs	r2, r4, #9
100025ce:	4093      	lsls	r3, r2
100025d0:	001d      	movs	r5, r3
100025d2:	4805      	ldr	r0, [pc, #20]	; (100025e8 <resetd_control_xfer_cb+0x60>)
100025d4:	f7ff fd14 	bl	10002000 <rom_func_lookup>
100025d8:	217f      	movs	r1, #127	; 0x7f
100025da:	0003      	movs	r3, r0
100025dc:	4021      	ands	r1, r4
100025de:	0028      	movs	r0, r5
100025e0:	4798      	blx	r3
100025e2:	46c0      	nop			; (mov r8, r8)
100025e4:	20001a12 	.word	0x20001a12
100025e8:	00004255 	.word	0x00004255

100025ec <usbd_app_driver_get_cb>:
100025ec:	2301      	movs	r3, #1
100025ee:	7003      	strb	r3, [r0, #0]
100025f0:	4800      	ldr	r0, [pc, #0]	; (100025f4 <usbd_app_driver_get_cb+0x8>)
100025f2:	4770      	bx	lr
100025f4:	10004af4 	.word	0x10004af4

100025f8 <tud_cdc_line_coding_cb>:
100025f8:	784a      	ldrb	r2, [r1, #1]
100025fa:	780b      	ldrb	r3, [r1, #0]
100025fc:	0212      	lsls	r2, r2, #8
100025fe:	431a      	orrs	r2, r3
10002600:	788b      	ldrb	r3, [r1, #2]
10002602:	b510      	push	{r4, lr}
10002604:	041b      	lsls	r3, r3, #16
10002606:	431a      	orrs	r2, r3
10002608:	78cb      	ldrb	r3, [r1, #3]
1000260a:	061b      	lsls	r3, r3, #24
1000260c:	4313      	orrs	r3, r2
1000260e:	2296      	movs	r2, #150	; 0x96
10002610:	00d2      	lsls	r2, r2, #3
10002612:	4293      	cmp	r3, r2
10002614:	d000      	beq.n	10002618 <tud_cdc_line_coding_cb+0x20>
10002616:	bd10      	pop	{r4, pc}
10002618:	4803      	ldr	r0, [pc, #12]	; (10002628 <tud_cdc_line_coding_cb+0x30>)
1000261a:	f7ff fcf1 	bl	10002000 <rom_func_lookup>
1000261e:	2100      	movs	r1, #0
10002620:	0003      	movs	r3, r0
10002622:	0008      	movs	r0, r1
10002624:	4798      	blx	r3
10002626:	46c0      	nop			; (mov r8, r8)
10002628:	00004255 	.word	0x00004255

1000262c <stdio_usb_set_chars_available_callback>:
1000262c:	4b02      	ldr	r3, [pc, #8]	; (10002638 <stdio_usb_set_chars_available_callback+0xc>)
1000262e:	6018      	str	r0, [r3, #0]
10002630:	4b02      	ldr	r3, [pc, #8]	; (1000263c <stdio_usb_set_chars_available_callback+0x10>)
10002632:	6019      	str	r1, [r3, #0]
10002634:	4770      	bx	lr
10002636:	46c0      	nop			; (mov r8, r8)
10002638:	20001508 	.word	0x20001508
1000263c:	2000150c 	.word	0x2000150c

10002640 <timer_task>:
10002640:	4b11      	ldr	r3, [pc, #68]	; (10002688 <timer_task+0x48>)
10002642:	b570      	push	{r4, r5, r6, lr}
10002644:	681a      	ldr	r2, [r3, #0]
10002646:	2a00      	cmp	r2, #0
10002648:	d01a      	beq.n	10002680 <timer_task+0x40>
1000264a:	f3ef 8110 	mrs	r1, PRIMASK
1000264e:	b672      	cpsid	i
10002650:	6810      	ldr	r0, [r2, #0]
10002652:	2800      	cmp	r0, #0
10002654:	d0fc      	beq.n	10002650 <timer_task+0x10>
10002656:	f3bf 8f5f 	dmb	sy
1000265a:	2200      	movs	r2, #0
1000265c:	480b      	ldr	r0, [pc, #44]	; (1000268c <timer_task+0x4c>)
1000265e:	6059      	str	r1, [r3, #4]
10002660:	7002      	strb	r2, [r0, #0]
10002662:	681b      	ldr	r3, [r3, #0]
10002664:	f3bf 8f5f 	dmb	sy
10002668:	601a      	str	r2, [r3, #0]
1000266a:	f381 8810 	msr	PRIMASK, r1
1000266e:	2400      	movs	r4, #0
10002670:	2500      	movs	r5, #0
10002672:	4b07      	ldr	r3, [pc, #28]	; (10002690 <timer_task+0x50>)
10002674:	7818      	ldrb	r0, [r3, #0]
10002676:	f7fd ff2f 	bl	100004d8 <irq_set_pending>
1000267a:	0029      	movs	r1, r5
1000267c:	0020      	movs	r0, r4
1000267e:	bd70      	pop	{r4, r5, r6, pc}
10002680:	24fa      	movs	r4, #250	; 0xfa
10002682:	2500      	movs	r5, #0
10002684:	00a4      	lsls	r4, r4, #2
10002686:	e7f4      	b.n	10002672 <timer_task+0x32>
10002688:	200019bc 	.word	0x200019bc
1000268c:	20001a14 	.word	0x20001a14
10002690:	20001a13 	.word	0x20001a13

10002694 <usb_irq>:
10002694:	b510      	push	{r4, lr}
10002696:	4b02      	ldr	r3, [pc, #8]	; (100026a0 <usb_irq+0xc>)
10002698:	7818      	ldrb	r0, [r3, #0]
1000269a:	f7fd ff1d 	bl	100004d8 <irq_set_pending>
1000269e:	bd10      	pop	{r4, pc}
100026a0:	20001a13 	.word	0x20001a13

100026a4 <stdio_usb_in_chars>:
100026a4:	b570      	push	{r4, r5, r6, lr}
100026a6:	0005      	movs	r5, r0
100026a8:	2000      	movs	r0, #0
100026aa:	000e      	movs	r6, r1
100026ac:	f001 fb3e 	bl	10003d2c <tud_cdc_n_connected>
100026b0:	2800      	cmp	r0, #0
100026b2:	d035      	beq.n	10002720 <stdio_usb_in_chars+0x7c>
100026b4:	2000      	movs	r0, #0
100026b6:	f001 fb51 	bl	10003d5c <tud_cdc_n_available>
100026ba:	2800      	cmp	r0, #0
100026bc:	d030      	beq.n	10002720 <stdio_usb_in_chars+0x7c>
100026be:	f7fe fd97 	bl	100011f0 <time_us_64>
100026c2:	2300      	movs	r3, #0
100026c4:	4a18      	ldr	r2, [pc, #96]	; (10002728 <stdio_usb_in_chars+0x84>)
100026c6:	1812      	adds	r2, r2, r0
100026c8:	414b      	adcs	r3, r1
100026ca:	2b00      	cmp	r3, #0
100026cc:	db24      	blt.n	10002718 <stdio_usb_in_chars+0x74>
100026ce:	4c17      	ldr	r4, [pc, #92]	; (1000272c <stdio_usb_in_chars+0x88>)
100026d0:	0020      	movs	r0, r4
100026d2:	f002 f96d 	bl	100049b0 <__mutex_try_enter_block_until_veneer>
100026d6:	2800      	cmp	r0, #0
100026d8:	d022      	beq.n	10002720 <stdio_usb_in_chars+0x7c>
100026da:	2000      	movs	r0, #0
100026dc:	f001 fb26 	bl	10003d2c <tud_cdc_n_connected>
100026e0:	2800      	cmp	r0, #0
100026e2:	d10b      	bne.n	100026fc <stdio_usb_in_chars+0x58>
100026e4:	2001      	movs	r0, #1
100026e6:	2100      	movs	r1, #0
100026e8:	4240      	negs	r0, r0
100026ea:	2503      	movs	r5, #3
100026ec:	f000 fcde 	bl	100030ac <tud_task_ext>
100026f0:	426d      	negs	r5, r5
100026f2:	0020      	movs	r0, r4
100026f4:	f002 f92c 	bl	10004950 <__mutex_exit_veneer>
100026f8:	0028      	movs	r0, r5
100026fa:	bd70      	pop	{r4, r5, r6, pc}
100026fc:	2000      	movs	r0, #0
100026fe:	f001 fb2d 	bl	10003d5c <tud_cdc_n_available>
10002702:	2800      	cmp	r0, #0
10002704:	d0ee      	beq.n	100026e4 <stdio_usb_in_chars+0x40>
10002706:	0029      	movs	r1, r5
10002708:	0032      	movs	r2, r6
1000270a:	2000      	movs	r0, #0
1000270c:	f001 fb32 	bl	10003d74 <tud_cdc_n_read>
10002710:	1e05      	subs	r5, r0, #0
10002712:	d1ee      	bne.n	100026f2 <stdio_usb_in_chars+0x4e>
10002714:	3d03      	subs	r5, #3
10002716:	e7ec      	b.n	100026f2 <stdio_usb_in_chars+0x4e>
10002718:	2201      	movs	r2, #1
1000271a:	4b05      	ldr	r3, [pc, #20]	; (10002730 <stdio_usb_in_chars+0x8c>)
1000271c:	4252      	negs	r2, r2
1000271e:	e7d6      	b.n	100026ce <stdio_usb_in_chars+0x2a>
10002720:	2503      	movs	r5, #3
10002722:	426d      	negs	r5, r5
10002724:	e7e8      	b.n	100026f8 <stdio_usb_in_chars+0x54>
10002726:	46c0      	nop			; (mov r8, r8)
10002728:	000f4240 	.word	0x000f4240
1000272c:	200019e4 	.word	0x200019e4
10002730:	7fffffff 	.word	0x7fffffff

10002734 <stdio_usb_out_chars>:
10002734:	b5f0      	push	{r4, r5, r6, r7, lr}
10002736:	46d6      	mov	lr, sl
10002738:	464f      	mov	r7, r9
1000273a:	4646      	mov	r6, r8
1000273c:	b5c0      	push	{r6, r7, lr}
1000273e:	0007      	movs	r7, r0
10002740:	000e      	movs	r6, r1
10002742:	f7fe fd55 	bl	100011f0 <time_us_64>
10002746:	2300      	movs	r3, #0
10002748:	4a39      	ldr	r2, [pc, #228]	; (10002830 <stdio_usb_out_chars+0xfc>)
1000274a:	1812      	adds	r2, r2, r0
1000274c:	414b      	adcs	r3, r1
1000274e:	2b00      	cmp	r3, #0
10002750:	db5e      	blt.n	10002810 <stdio_usb_out_chars+0xdc>
10002752:	4938      	ldr	r1, [pc, #224]	; (10002834 <stdio_usb_out_chars+0x100>)
10002754:	0008      	movs	r0, r1
10002756:	4688      	mov	r8, r1
10002758:	f002 f92a 	bl	100049b0 <__mutex_try_enter_block_until_veneer>
1000275c:	2800      	cmp	r0, #0
1000275e:	d104      	bne.n	1000276a <stdio_usb_out_chars+0x36>
10002760:	bc1c      	pop	{r2, r3, r4}
10002762:	4690      	mov	r8, r2
10002764:	4699      	mov	r9, r3
10002766:	46a2      	mov	sl, r4
10002768:	bdf0      	pop	{r4, r5, r6, r7, pc}
1000276a:	2000      	movs	r0, #0
1000276c:	f001 fade 	bl	10003d2c <tud_cdc_n_connected>
10002770:	2800      	cmp	r0, #0
10002772:	d051      	beq.n	10002818 <stdio_usb_out_chars+0xe4>
10002774:	2400      	movs	r4, #0
10002776:	2e00      	cmp	r6, #0
10002778:	dd35      	ble.n	100027e6 <stdio_usb_out_chars+0xb2>
1000277a:	4b2f      	ldr	r3, [pc, #188]	; (10002838 <stdio_usb_out_chars+0x104>)
1000277c:	4699      	mov	r9, r3
1000277e:	469a      	mov	sl, r3
10002780:	e015      	b.n	100027ae <stdio_usb_out_chars+0x7a>
10002782:	2800      	cmp	r0, #0
10002784:	d151      	bne.n	1000282a <stdio_usb_out_chars+0xf6>
10002786:	2001      	movs	r0, #1
10002788:	2100      	movs	r1, #0
1000278a:	4240      	negs	r0, r0
1000278c:	f000 fc8e 	bl	100030ac <tud_task_ext>
10002790:	2000      	movs	r0, #0
10002792:	f001 fb27 	bl	10003de4 <tud_cdc_n_write_flush>
10002796:	2000      	movs	r0, #0
10002798:	f001 fac8 	bl	10003d2c <tud_cdc_n_connected>
1000279c:	2800      	cmp	r0, #0
1000279e:	d022      	beq.n	100027e6 <stdio_usb_out_chars+0xb2>
100027a0:	2000      	movs	r0, #0
100027a2:	f001 fb75 	bl	10003e90 <tud_cdc_n_write_available>
100027a6:	2800      	cmp	r0, #0
100027a8:	d021      	beq.n	100027ee <stdio_usb_out_chars+0xba>
100027aa:	42a6      	cmp	r6, r4
100027ac:	dd1b      	ble.n	100027e6 <stdio_usb_out_chars+0xb2>
100027ae:	2000      	movs	r0, #0
100027b0:	1b35      	subs	r5, r6, r4
100027b2:	f001 fb6d 	bl	10003e90 <tud_cdc_n_write_available>
100027b6:	4285      	cmp	r5, r0
100027b8:	dce3      	bgt.n	10002782 <stdio_usb_out_chars+0x4e>
100027ba:	002a      	movs	r2, r5
100027bc:	1939      	adds	r1, r7, r4
100027be:	2000      	movs	r0, #0
100027c0:	f001 fb4c 	bl	10003e5c <tud_cdc_n_write>
100027c4:	0005      	movs	r5, r0
100027c6:	2001      	movs	r0, #1
100027c8:	2100      	movs	r1, #0
100027ca:	4240      	negs	r0, r0
100027cc:	f000 fc6e 	bl	100030ac <tud_task_ext>
100027d0:	2000      	movs	r0, #0
100027d2:	f001 fb07 	bl	10003de4 <tud_cdc_n_write_flush>
100027d6:	f7fe fd0b 	bl	100011f0 <time_us_64>
100027da:	464b      	mov	r3, r9
100027dc:	1964      	adds	r4, r4, r5
100027de:	6018      	str	r0, [r3, #0]
100027e0:	6059      	str	r1, [r3, #4]
100027e2:	42a6      	cmp	r6, r4
100027e4:	dce3      	bgt.n	100027ae <stdio_usb_out_chars+0x7a>
100027e6:	4640      	mov	r0, r8
100027e8:	f002 f8b2 	bl	10004950 <__mutex_exit_veneer>
100027ec:	e7b8      	b.n	10002760 <stdio_usb_out_chars+0x2c>
100027ee:	f7fe fcff 	bl	100011f0 <time_us_64>
100027f2:	2300      	movs	r3, #0
100027f4:	000d      	movs	r5, r1
100027f6:	4651      	mov	r1, sl
100027f8:	4a10      	ldr	r2, [pc, #64]	; (1000283c <stdio_usb_out_chars+0x108>)
100027fa:	4684      	mov	ip, r0
100027fc:	6808      	ldr	r0, [r1, #0]
100027fe:	6849      	ldr	r1, [r1, #4]
10002800:	1812      	adds	r2, r2, r0
10002802:	414b      	adcs	r3, r1
10002804:	429d      	cmp	r5, r3
10002806:	d8ee      	bhi.n	100027e6 <stdio_usb_out_chars+0xb2>
10002808:	d1cf      	bne.n	100027aa <stdio_usb_out_chars+0x76>
1000280a:	4594      	cmp	ip, r2
1000280c:	d9cd      	bls.n	100027aa <stdio_usb_out_chars+0x76>
1000280e:	e7ea      	b.n	100027e6 <stdio_usb_out_chars+0xb2>
10002810:	2201      	movs	r2, #1
10002812:	4b0b      	ldr	r3, [pc, #44]	; (10002840 <stdio_usb_out_chars+0x10c>)
10002814:	4252      	negs	r2, r2
10002816:	e79c      	b.n	10002752 <stdio_usb_out_chars+0x1e>
10002818:	2000      	movs	r0, #0
1000281a:	2100      	movs	r1, #0
1000281c:	4b06      	ldr	r3, [pc, #24]	; (10002838 <stdio_usb_out_chars+0x104>)
1000281e:	6018      	str	r0, [r3, #0]
10002820:	6059      	str	r1, [r3, #4]
10002822:	4640      	mov	r0, r8
10002824:	f002 f894 	bl	10004950 <__mutex_exit_veneer>
10002828:	e79a      	b.n	10002760 <stdio_usb_out_chars+0x2c>
1000282a:	0005      	movs	r5, r0
1000282c:	e7c5      	b.n	100027ba <stdio_usb_out_chars+0x86>
1000282e:	46c0      	nop			; (mov r8, r8)
10002830:	000f4240 	.word	0x000f4240
10002834:	200019e4 	.word	0x200019e4
10002838:	20001050 	.word	0x20001050
1000283c:	0007a120 	.word	0x0007a120
10002840:	7fffffff 	.word	0x7fffffff

10002844 <low_priority_worker_irq>:
10002844:	b510      	push	{r4, lr}
10002846:	4c24      	ldr	r4, [pc, #144]	; (100028d8 <low_priority_worker_irq+0x94>)
10002848:	b084      	sub	sp, #16
1000284a:	2100      	movs	r1, #0
1000284c:	0020      	movs	r0, r4
1000284e:	f002 f89f 	bl	10004990 <__mutex_try_enter_veneer>
10002852:	2800      	cmp	r0, #0
10002854:	d11c      	bne.n	10002890 <low_priority_worker_irq+0x4c>
10002856:	4b21      	ldr	r3, [pc, #132]	; (100028dc <low_priority_worker_irq+0x98>)
10002858:	681a      	ldr	r2, [r3, #0]
1000285a:	2a00      	cmp	r2, #0
1000285c:	d016      	beq.n	1000288c <low_priority_worker_irq+0x48>
1000285e:	f3ef 8110 	mrs	r1, PRIMASK
10002862:	b672      	cpsid	i
10002864:	6810      	ldr	r0, [r2, #0]
10002866:	2800      	cmp	r0, #0
10002868:	d0fc      	beq.n	10002864 <low_priority_worker_irq+0x20>
1000286a:	f3bf 8f5f 	dmb	sy
1000286e:	2401      	movs	r4, #1
10002870:	481b      	ldr	r0, [pc, #108]	; (100028e0 <low_priority_worker_irq+0x9c>)
10002872:	6059      	str	r1, [r3, #4]
10002874:	7802      	ldrb	r2, [r0, #0]
10002876:	681b      	ldr	r3, [r3, #0]
10002878:	b2d2      	uxtb	r2, r2
1000287a:	7004      	strb	r4, [r0, #0]
1000287c:	f3bf 8f5f 	dmb	sy
10002880:	2000      	movs	r0, #0
10002882:	6018      	str	r0, [r3, #0]
10002884:	f381 8810 	msr	PRIMASK, r1
10002888:	2a00      	cmp	r2, #0
1000288a:	d00a      	beq.n	100028a2 <low_priority_worker_irq+0x5e>
1000288c:	b004      	add	sp, #16
1000288e:	bd10      	pop	{r4, pc}
10002890:	2001      	movs	r0, #1
10002892:	2100      	movs	r1, #0
10002894:	4240      	negs	r0, r0
10002896:	f000 fc09 	bl	100030ac <tud_task_ext>
1000289a:	0020      	movs	r0, r4
1000289c:	f002 f858 	bl	10004950 <__mutex_exit_veneer>
100028a0:	e7f4      	b.n	1000288c <low_priority_worker_irq+0x48>
100028a2:	f7fe fab5 	bl	10000e10 <alarm_pool_get_default>
100028a6:	0004      	movs	r4, r0
100028a8:	f7fe fca2 	bl	100011f0 <time_us_64>
100028ac:	22fa      	movs	r2, #250	; 0xfa
100028ae:	2300      	movs	r3, #0
100028b0:	0092      	lsls	r2, r2, #2
100028b2:	1812      	adds	r2, r2, r0
100028b4:	414b      	adcs	r3, r1
100028b6:	2b00      	cmp	r3, #0
100028b8:	db09      	blt.n	100028ce <low_priority_worker_irq+0x8a>
100028ba:	2101      	movs	r1, #1
100028bc:	9102      	str	r1, [sp, #8]
100028be:	2100      	movs	r1, #0
100028c0:	9101      	str	r1, [sp, #4]
100028c2:	4908      	ldr	r1, [pc, #32]	; (100028e4 <low_priority_worker_irq+0xa0>)
100028c4:	0020      	movs	r0, r4
100028c6:	9100      	str	r1, [sp, #0]
100028c8:	f7fe faa6 	bl	10000e18 <alarm_pool_add_alarm_at>
100028cc:	e7de      	b.n	1000288c <low_priority_worker_irq+0x48>
100028ce:	2201      	movs	r2, #1
100028d0:	4b05      	ldr	r3, [pc, #20]	; (100028e8 <low_priority_worker_irq+0xa4>)
100028d2:	4252      	negs	r2, r2
100028d4:	e7f1      	b.n	100028ba <low_priority_worker_irq+0x76>
100028d6:	46c0      	nop			; (mov r8, r8)
100028d8:	200019e4 	.word	0x200019e4
100028dc:	200019bc 	.word	0x200019bc
100028e0:	20001a14 	.word	0x20001a14
100028e4:	10002641 	.word	0x10002641
100028e8:	7fffffff 	.word	0x7fffffff

100028ec <tud_cdc_rx_cb>:
100028ec:	4b05      	ldr	r3, [pc, #20]	; (10002904 <tud_cdc_rx_cb+0x18>)
100028ee:	b510      	push	{r4, lr}
100028f0:	6818      	ldr	r0, [r3, #0]
100028f2:	2800      	cmp	r0, #0
100028f4:	d004      	beq.n	10002900 <tud_cdc_rx_cb+0x14>
100028f6:	4b04      	ldr	r3, [pc, #16]	; (10002908 <tud_cdc_rx_cb+0x1c>)
100028f8:	2200      	movs	r2, #0
100028fa:	6819      	ldr	r1, [r3, #0]
100028fc:	f001 f87a 	bl	100039f4 <usbd_defer_func>
10002900:	bd10      	pop	{r4, pc}
10002902:	46c0      	nop			; (mov r8, r8)
10002904:	20001508 	.word	0x20001508
10002908:	2000150c 	.word	0x2000150c

1000290c <stdio_usb_init>:
1000290c:	23d0      	movs	r3, #208	; 0xd0
1000290e:	b510      	push	{r4, lr}
10002910:	061b      	lsls	r3, r3, #24
10002912:	b084      	sub	sp, #16
10002914:	681c      	ldr	r4, [r3, #0]
10002916:	f7fe fa7b 	bl	10000e10 <alarm_pool_get_default>
1000291a:	f7fe fb55 	bl	10000fc8 <alarm_pool_core_num>
1000291e:	42a0      	cmp	r0, r4
10002920:	d002      	beq.n	10002928 <stdio_usb_init+0x1c>
10002922:	2000      	movs	r0, #0
10002924:	b004      	add	sp, #16
10002926:	bd10      	pop	{r4, pc}
10002928:	4b26      	ldr	r3, [pc, #152]	; (100029c4 <stdio_usb_init+0xb8>)
1000292a:	781b      	ldrb	r3, [r3, #0]
1000292c:	f001 fcc0 	bl	100042b0 <tusb_init>
10002930:	4825      	ldr	r0, [pc, #148]	; (100029c8 <stdio_usb_init+0xbc>)
10002932:	f7fe f865 	bl	10000a00 <mutex_init>
10002936:	2001      	movs	r0, #1
10002938:	f7fe f846 	bl	100009c8 <user_irq_claim_unused>
1000293c:	23ff      	movs	r3, #255	; 0xff
1000293e:	4c23      	ldr	r4, [pc, #140]	; (100029cc <stdio_usb_init+0xc0>)
10002940:	4923      	ldr	r1, [pc, #140]	; (100029d0 <stdio_usb_init+0xc4>)
10002942:	7020      	strb	r0, [r4, #0]
10002944:	4018      	ands	r0, r3
10002946:	f7fd fded 	bl	10000524 <irq_set_exclusive_handler>
1000294a:	7820      	ldrb	r0, [r4, #0]
1000294c:	2101      	movs	r1, #1
1000294e:	f7fd fdb1 	bl	100004b4 <irq_set_enabled>
10002952:	2005      	movs	r0, #5
10002954:	f7fd fdc8 	bl	100004e8 <irq_has_shared_handler>
10002958:	2800      	cmp	r0, #0
1000295a:	d122      	bne.n	100029a2 <stdio_usb_init+0x96>
1000295c:	f7fe fa58 	bl	10000e10 <alarm_pool_get_default>
10002960:	0004      	movs	r4, r0
10002962:	f7fe fc45 	bl	100011f0 <time_us_64>
10002966:	22fa      	movs	r2, #250	; 0xfa
10002968:	2300      	movs	r3, #0
1000296a:	0092      	lsls	r2, r2, #2
1000296c:	1812      	adds	r2, r2, r0
1000296e:	414b      	adcs	r3, r1
10002970:	2b00      	cmp	r3, #0
10002972:	db22      	blt.n	100029ba <stdio_usb_init+0xae>
10002974:	2101      	movs	r1, #1
10002976:	9102      	str	r1, [sp, #8]
10002978:	2100      	movs	r1, #0
1000297a:	9101      	str	r1, [sp, #4]
1000297c:	4915      	ldr	r1, [pc, #84]	; (100029d4 <stdio_usb_init+0xc8>)
1000297e:	0020      	movs	r0, r4
10002980:	9100      	str	r1, [sp, #0]
10002982:	f7fe fa49 	bl	10000e18 <alarm_pool_add_alarm_at>
10002986:	2208      	movs	r2, #8
10002988:	0004      	movs	r4, r0
1000298a:	2100      	movs	r1, #0
1000298c:	4812      	ldr	r0, [pc, #72]	; (100029d8 <stdio_usb_init+0xcc>)
1000298e:	f7ff fc6b 	bl	10002268 <__wrap_memset>
10002992:	2c00      	cmp	r4, #0
10002994:	dbc5      	blt.n	10002922 <stdio_usb_init+0x16>
10002996:	4811      	ldr	r0, [pc, #68]	; (100029dc <stdio_usb_init+0xd0>)
10002998:	2101      	movs	r1, #1
1000299a:	f7ff fdbb 	bl	10002514 <stdio_set_driver_enabled>
1000299e:	2001      	movs	r0, #1
100029a0:	e7c0      	b.n	10002924 <stdio_usb_init+0x18>
100029a2:	2200      	movs	r2, #0
100029a4:	490e      	ldr	r1, [pc, #56]	; (100029e0 <stdio_usb_init+0xd4>)
100029a6:	2005      	movs	r0, #5
100029a8:	f7fd fde6 	bl	10000578 <irq_add_shared_handler>
100029ac:	f7fd fd66 	bl	1000047c <next_striped_spin_lock_num>
100029b0:	0001      	movs	r1, r0
100029b2:	4809      	ldr	r0, [pc, #36]	; (100029d8 <stdio_usb_init+0xcc>)
100029b4:	f7fe f850 	bl	10000a58 <critical_section_init_with_lock_num>
100029b8:	e7ed      	b.n	10002996 <stdio_usb_init+0x8a>
100029ba:	2201      	movs	r2, #1
100029bc:	4b09      	ldr	r3, [pc, #36]	; (100029e4 <stdio_usb_init+0xd8>)
100029be:	4252      	negs	r2, r2
100029c0:	e7d8      	b.n	10002974 <stdio_usb_init+0x68>
100029c2:	46c0      	nop			; (mov r8, r8)
100029c4:	10004d00 	.word	0x10004d00
100029c8:	200019e4 	.word	0x200019e4
100029cc:	20001a13 	.word	0x20001a13
100029d0:	10002845 	.word	0x10002845
100029d4:	10002641 	.word	0x10002641
100029d8:	200019bc 	.word	0x200019bc
100029dc:	20000ef0 	.word	0x20000ef0
100029e0:	10002695 	.word	0x10002695
100029e4:	7fffffff 	.word	0x7fffffff

100029e8 <tud_descriptor_device_cb>:
100029e8:	4800      	ldr	r0, [pc, #0]	; (100029ec <tud_descriptor_device_cb+0x4>)
100029ea:	4770      	bx	lr
100029ec:	10004bac 	.word	0x10004bac

100029f0 <tud_descriptor_configuration_cb>:
100029f0:	4800      	ldr	r0, [pc, #0]	; (100029f4 <tud_descriptor_configuration_cb+0x4>)
100029f2:	4770      	bx	lr
100029f4:	10004b58 	.word	0x10004b58

100029f8 <tud_descriptor_string_cb>:
100029f8:	b570      	push	{r4, r5, r6, lr}
100029fa:	0004      	movs	r4, r0
100029fc:	4816      	ldr	r0, [pc, #88]	; (10002a58 <tud_descriptor_string_cb+0x60>)
100029fe:	7803      	ldrb	r3, [r0, #0]
10002a00:	2b00      	cmp	r3, #0
10002a02:	d020      	beq.n	10002a46 <tud_descriptor_string_cb+0x4e>
10002a04:	2c00      	cmp	r4, #0
10002a06:	d018      	beq.n	10002a3a <tud_descriptor_string_cb+0x42>
10002a08:	2c05      	cmp	r4, #5
10002a0a:	d823      	bhi.n	10002a54 <tud_descriptor_string_cb+0x5c>
10002a0c:	4b13      	ldr	r3, [pc, #76]	; (10002a5c <tud_descriptor_string_cb+0x64>)
10002a0e:	4814      	ldr	r0, [pc, #80]	; (10002a60 <tud_descriptor_string_cb+0x68>)
10002a10:	00a4      	lsls	r4, r4, #2
10002a12:	58e5      	ldr	r5, [r4, r3]
10002a14:	1c81      	adds	r1, r0, #2
10002a16:	2300      	movs	r3, #0
10002a18:	e004      	b.n	10002a24 <tud_descriptor_string_cb+0x2c>
10002a1a:	3301      	adds	r3, #1
10002a1c:	800a      	strh	r2, [r1, #0]
10002a1e:	3102      	adds	r1, #2
10002a20:	2b13      	cmp	r3, #19
10002a22:	d014      	beq.n	10002a4e <tud_descriptor_string_cb+0x56>
10002a24:	5cea      	ldrb	r2, [r5, r3]
10002a26:	b2dc      	uxtb	r4, r3
10002a28:	2a00      	cmp	r2, #0
10002a2a:	d1f6      	bne.n	10002a1a <tud_descriptor_string_cb+0x22>
10002a2c:	23c0      	movs	r3, #192	; 0xc0
10002a2e:	3401      	adds	r4, #1
10002a30:	0064      	lsls	r4, r4, #1
10002a32:	009b      	lsls	r3, r3, #2
10002a34:	431c      	orrs	r4, r3
10002a36:	8004      	strh	r4, [r0, #0]
10002a38:	bd70      	pop	{r4, r5, r6, pc}
10002a3a:	24c1      	movs	r4, #193	; 0xc1
10002a3c:	4808      	ldr	r0, [pc, #32]	; (10002a60 <tud_descriptor_string_cb+0x68>)
10002a3e:	4b09      	ldr	r3, [pc, #36]	; (10002a64 <tud_descriptor_string_cb+0x6c>)
10002a40:	00a4      	lsls	r4, r4, #2
10002a42:	8043      	strh	r3, [r0, #2]
10002a44:	e7f7      	b.n	10002a36 <tud_descriptor_string_cb+0x3e>
10002a46:	2111      	movs	r1, #17
10002a48:	f000 f816 	bl	10002a78 <pico_get_unique_board_id_string>
10002a4c:	e7da      	b.n	10002a04 <tud_descriptor_string_cb+0xc>
10002a4e:	24ca      	movs	r4, #202	; 0xca
10002a50:	00a4      	lsls	r4, r4, #2
10002a52:	e7f0      	b.n	10002a36 <tud_descriptor_string_cb+0x3e>
10002a54:	2000      	movs	r0, #0
10002a56:	e7ef      	b.n	10002a38 <tud_descriptor_string_cb+0x40>
10002a58:	200019fc 	.word	0x200019fc
10002a5c:	10004bc0 	.word	0x10004bc0
10002a60:	2000157c 	.word	0x2000157c
10002a64:	00000409 	.word	0x00000409

10002a68 <_retrieve_unique_id_on_boot>:
10002a68:	b510      	push	{r4, lr}
10002a6a:	4802      	ldr	r0, [pc, #8]	; (10002a74 <_retrieve_unique_id_on_boot+0xc>)
10002a6c:	f000 f8ea 	bl	10002c44 <flash_get_unique_id>
10002a70:	bd10      	pop	{r4, pc}
10002a72:	46c0      	nop			; (mov r8, r8)
10002a74:	200019d4 	.word	0x200019d4

10002a78 <pico_get_unique_board_id_string>:
10002a78:	3901      	subs	r1, #1
10002a7a:	b530      	push	{r4, r5, lr}
10002a7c:	2900      	cmp	r1, #0
10002a7e:	d100      	bne.n	10002a82 <pico_get_unique_board_id_string+0xa>
10002a80:	e0b8      	b.n	10002bf4 <pico_get_unique_board_id_string+0x17c>
10002a82:	4b6f      	ldr	r3, [pc, #444]	; (10002c40 <pico_get_unique_board_id_string+0x1c8>)
10002a84:	781a      	ldrb	r2, [r3, #0]
10002a86:	1112      	asrs	r2, r2, #4
10002a88:	b2d5      	uxtb	r5, r2
10002a8a:	002c      	movs	r4, r5
10002a8c:	3430      	adds	r4, #48	; 0x30
10002a8e:	2a09      	cmp	r2, #9
10002a90:	dd00      	ble.n	10002a94 <pico_get_unique_board_id_string+0x1c>
10002a92:	e0b2      	b.n	10002bfa <pico_get_unique_board_id_string+0x182>
10002a94:	7004      	strb	r4, [r0, #0]
10002a96:	2901      	cmp	r1, #1
10002a98:	d100      	bne.n	10002a9c <pico_get_unique_board_id_string+0x24>
10002a9a:	e0ce      	b.n	10002c3a <pico_get_unique_board_id_string+0x1c2>
10002a9c:	220f      	movs	r2, #15
10002a9e:	781c      	ldrb	r4, [r3, #0]
10002aa0:	4022      	ands	r2, r4
10002aa2:	0014      	movs	r4, r2
10002aa4:	3430      	adds	r4, #48	; 0x30
10002aa6:	2a09      	cmp	r2, #9
10002aa8:	d900      	bls.n	10002aac <pico_get_unique_board_id_string+0x34>
10002aaa:	e0a8      	b.n	10002bfe <pico_get_unique_board_id_string+0x186>
10002aac:	7044      	strb	r4, [r0, #1]
10002aae:	2902      	cmp	r1, #2
10002ab0:	d100      	bne.n	10002ab4 <pico_get_unique_board_id_string+0x3c>
10002ab2:	e0c2      	b.n	10002c3a <pico_get_unique_board_id_string+0x1c2>
10002ab4:	785a      	ldrb	r2, [r3, #1]
10002ab6:	1112      	asrs	r2, r2, #4
10002ab8:	b2d5      	uxtb	r5, r2
10002aba:	002c      	movs	r4, r5
10002abc:	3430      	adds	r4, #48	; 0x30
10002abe:	2a09      	cmp	r2, #9
10002ac0:	dd00      	ble.n	10002ac4 <pico_get_unique_board_id_string+0x4c>
10002ac2:	e09f      	b.n	10002c04 <pico_get_unique_board_id_string+0x18c>
10002ac4:	7084      	strb	r4, [r0, #2]
10002ac6:	2903      	cmp	r1, #3
10002ac8:	d100      	bne.n	10002acc <pico_get_unique_board_id_string+0x54>
10002aca:	e0b6      	b.n	10002c3a <pico_get_unique_board_id_string+0x1c2>
10002acc:	220f      	movs	r2, #15
10002ace:	785c      	ldrb	r4, [r3, #1]
10002ad0:	4022      	ands	r2, r4
10002ad2:	0014      	movs	r4, r2
10002ad4:	3430      	adds	r4, #48	; 0x30
10002ad6:	2a09      	cmp	r2, #9
10002ad8:	d900      	bls.n	10002adc <pico_get_unique_board_id_string+0x64>
10002ada:	e095      	b.n	10002c08 <pico_get_unique_board_id_string+0x190>
10002adc:	70c4      	strb	r4, [r0, #3]
10002ade:	2904      	cmp	r1, #4
10002ae0:	d100      	bne.n	10002ae4 <pico_get_unique_board_id_string+0x6c>
10002ae2:	e0aa      	b.n	10002c3a <pico_get_unique_board_id_string+0x1c2>
10002ae4:	789a      	ldrb	r2, [r3, #2]
10002ae6:	1112      	asrs	r2, r2, #4
10002ae8:	b2d5      	uxtb	r5, r2
10002aea:	002c      	movs	r4, r5
10002aec:	3430      	adds	r4, #48	; 0x30
10002aee:	2a09      	cmp	r2, #9
10002af0:	dd00      	ble.n	10002af4 <pico_get_unique_board_id_string+0x7c>
10002af2:	e08c      	b.n	10002c0e <pico_get_unique_board_id_string+0x196>
10002af4:	7104      	strb	r4, [r0, #4]
10002af6:	2905      	cmp	r1, #5
10002af8:	d100      	bne.n	10002afc <pico_get_unique_board_id_string+0x84>
10002afa:	e09e      	b.n	10002c3a <pico_get_unique_board_id_string+0x1c2>
10002afc:	220f      	movs	r2, #15
10002afe:	789c      	ldrb	r4, [r3, #2]
10002b00:	4022      	ands	r2, r4
10002b02:	0014      	movs	r4, r2
10002b04:	3430      	adds	r4, #48	; 0x30
10002b06:	2a09      	cmp	r2, #9
10002b08:	d900      	bls.n	10002b0c <pico_get_unique_board_id_string+0x94>
10002b0a:	e082      	b.n	10002c12 <pico_get_unique_board_id_string+0x19a>
10002b0c:	7144      	strb	r4, [r0, #5]
10002b0e:	2906      	cmp	r1, #6
10002b10:	d100      	bne.n	10002b14 <pico_get_unique_board_id_string+0x9c>
10002b12:	e092      	b.n	10002c3a <pico_get_unique_board_id_string+0x1c2>
10002b14:	78da      	ldrb	r2, [r3, #3]
10002b16:	1112      	asrs	r2, r2, #4
10002b18:	b2d5      	uxtb	r5, r2
10002b1a:	002c      	movs	r4, r5
10002b1c:	3430      	adds	r4, #48	; 0x30
10002b1e:	2a09      	cmp	r2, #9
10002b20:	dd00      	ble.n	10002b24 <pico_get_unique_board_id_string+0xac>
10002b22:	e079      	b.n	10002c18 <pico_get_unique_board_id_string+0x1a0>
10002b24:	7184      	strb	r4, [r0, #6]
10002b26:	2907      	cmp	r1, #7
10002b28:	d100      	bne.n	10002b2c <pico_get_unique_board_id_string+0xb4>
10002b2a:	e086      	b.n	10002c3a <pico_get_unique_board_id_string+0x1c2>
10002b2c:	220f      	movs	r2, #15
10002b2e:	78dc      	ldrb	r4, [r3, #3]
10002b30:	4022      	ands	r2, r4
10002b32:	0014      	movs	r4, r2
10002b34:	3430      	adds	r4, #48	; 0x30
10002b36:	2a09      	cmp	r2, #9
10002b38:	d900      	bls.n	10002b3c <pico_get_unique_board_id_string+0xc4>
10002b3a:	e06f      	b.n	10002c1c <pico_get_unique_board_id_string+0x1a4>
10002b3c:	71c4      	strb	r4, [r0, #7]
10002b3e:	2908      	cmp	r1, #8
10002b40:	d100      	bne.n	10002b44 <pico_get_unique_board_id_string+0xcc>
10002b42:	e07a      	b.n	10002c3a <pico_get_unique_board_id_string+0x1c2>
10002b44:	791a      	ldrb	r2, [r3, #4]
10002b46:	1112      	asrs	r2, r2, #4
10002b48:	b2d5      	uxtb	r5, r2
10002b4a:	002c      	movs	r4, r5
10002b4c:	3430      	adds	r4, #48	; 0x30
10002b4e:	2a09      	cmp	r2, #9
10002b50:	dc67      	bgt.n	10002c22 <pico_get_unique_board_id_string+0x1aa>
10002b52:	7204      	strb	r4, [r0, #8]
10002b54:	2909      	cmp	r1, #9
10002b56:	d100      	bne.n	10002b5a <pico_get_unique_board_id_string+0xe2>
10002b58:	e06f      	b.n	10002c3a <pico_get_unique_board_id_string+0x1c2>
10002b5a:	220f      	movs	r2, #15
10002b5c:	791c      	ldrb	r4, [r3, #4]
10002b5e:	4022      	ands	r2, r4
10002b60:	0014      	movs	r4, r2
10002b62:	3430      	adds	r4, #48	; 0x30
10002b64:	2a09      	cmp	r2, #9
10002b66:	d85e      	bhi.n	10002c26 <pico_get_unique_board_id_string+0x1ae>
10002b68:	7244      	strb	r4, [r0, #9]
10002b6a:	290a      	cmp	r1, #10
10002b6c:	d065      	beq.n	10002c3a <pico_get_unique_board_id_string+0x1c2>
10002b6e:	795a      	ldrb	r2, [r3, #5]
10002b70:	1112      	asrs	r2, r2, #4
10002b72:	b2d5      	uxtb	r5, r2
10002b74:	002c      	movs	r4, r5
10002b76:	3430      	adds	r4, #48	; 0x30
10002b78:	2a09      	cmp	r2, #9
10002b7a:	dc57      	bgt.n	10002c2c <pico_get_unique_board_id_string+0x1b4>
10002b7c:	7284      	strb	r4, [r0, #10]
10002b7e:	290b      	cmp	r1, #11
10002b80:	d05b      	beq.n	10002c3a <pico_get_unique_board_id_string+0x1c2>
10002b82:	220f      	movs	r2, #15
10002b84:	795c      	ldrb	r4, [r3, #5]
10002b86:	4022      	ands	r2, r4
10002b88:	0014      	movs	r4, r2
10002b8a:	3430      	adds	r4, #48	; 0x30
10002b8c:	2a09      	cmp	r2, #9
10002b8e:	d84f      	bhi.n	10002c30 <pico_get_unique_board_id_string+0x1b8>
10002b90:	72c4      	strb	r4, [r0, #11]
10002b92:	290c      	cmp	r1, #12
10002b94:	d051      	beq.n	10002c3a <pico_get_unique_board_id_string+0x1c2>
10002b96:	799a      	ldrb	r2, [r3, #6]
10002b98:	1112      	asrs	r2, r2, #4
10002b9a:	b2d5      	uxtb	r5, r2
10002b9c:	002c      	movs	r4, r5
10002b9e:	3430      	adds	r4, #48	; 0x30
10002ba0:	2a09      	cmp	r2, #9
10002ba2:	dd00      	ble.n	10002ba6 <pico_get_unique_board_id_string+0x12e>
10002ba4:	3407      	adds	r4, #7
10002ba6:	7304      	strb	r4, [r0, #12]
10002ba8:	290d      	cmp	r1, #13
10002baa:	d046      	beq.n	10002c3a <pico_get_unique_board_id_string+0x1c2>
10002bac:	220f      	movs	r2, #15
10002bae:	799c      	ldrb	r4, [r3, #6]
10002bb0:	4022      	ands	r2, r4
10002bb2:	0014      	movs	r4, r2
10002bb4:	3430      	adds	r4, #48	; 0x30
10002bb6:	2a09      	cmp	r2, #9
10002bb8:	d901      	bls.n	10002bbe <pico_get_unique_board_id_string+0x146>
10002bba:	3237      	adds	r2, #55	; 0x37
10002bbc:	0014      	movs	r4, r2
10002bbe:	7344      	strb	r4, [r0, #13]
10002bc0:	290e      	cmp	r1, #14
10002bc2:	d03a      	beq.n	10002c3a <pico_get_unique_board_id_string+0x1c2>
10002bc4:	79da      	ldrb	r2, [r3, #7]
10002bc6:	1112      	asrs	r2, r2, #4
10002bc8:	b2d5      	uxtb	r5, r2
10002bca:	002c      	movs	r4, r5
10002bcc:	3430      	adds	r4, #48	; 0x30
10002bce:	2a09      	cmp	r2, #9
10002bd0:	dd00      	ble.n	10002bd4 <pico_get_unique_board_id_string+0x15c>
10002bd2:	3407      	adds	r4, #7
10002bd4:	7384      	strb	r4, [r0, #14]
10002bd6:	290f      	cmp	r1, #15
10002bd8:	d02f      	beq.n	10002c3a <pico_get_unique_board_id_string+0x1c2>
10002bda:	79da      	ldrb	r2, [r3, #7]
10002bdc:	230f      	movs	r3, #15
10002bde:	4013      	ands	r3, r2
10002be0:	001a      	movs	r2, r3
10002be2:	3237      	adds	r2, #55	; 0x37
10002be4:	2b09      	cmp	r3, #9
10002be6:	d801      	bhi.n	10002bec <pico_get_unique_board_id_string+0x174>
10002be8:	3330      	adds	r3, #48	; 0x30
10002bea:	001a      	movs	r2, r3
10002bec:	73c2      	strb	r2, [r0, #15]
10002bee:	2910      	cmp	r1, #16
10002bf0:	d023      	beq.n	10002c3a <pico_get_unique_board_id_string+0x1c2>
10002bf2:	3010      	adds	r0, #16
10002bf4:	2300      	movs	r3, #0
10002bf6:	7003      	strb	r3, [r0, #0]
10002bf8:	bd30      	pop	{r4, r5, pc}
10002bfa:	3407      	adds	r4, #7
10002bfc:	e74a      	b.n	10002a94 <pico_get_unique_board_id_string+0x1c>
10002bfe:	3237      	adds	r2, #55	; 0x37
10002c00:	0014      	movs	r4, r2
10002c02:	e753      	b.n	10002aac <pico_get_unique_board_id_string+0x34>
10002c04:	3407      	adds	r4, #7
10002c06:	e75d      	b.n	10002ac4 <pico_get_unique_board_id_string+0x4c>
10002c08:	3237      	adds	r2, #55	; 0x37
10002c0a:	0014      	movs	r4, r2
10002c0c:	e766      	b.n	10002adc <pico_get_unique_board_id_string+0x64>
10002c0e:	3407      	adds	r4, #7
10002c10:	e770      	b.n	10002af4 <pico_get_unique_board_id_string+0x7c>
10002c12:	3237      	adds	r2, #55	; 0x37
10002c14:	0014      	movs	r4, r2
10002c16:	e779      	b.n	10002b0c <pico_get_unique_board_id_string+0x94>
10002c18:	3407      	adds	r4, #7
10002c1a:	e783      	b.n	10002b24 <pico_get_unique_board_id_string+0xac>
10002c1c:	3237      	adds	r2, #55	; 0x37
10002c1e:	0014      	movs	r4, r2
10002c20:	e78c      	b.n	10002b3c <pico_get_unique_board_id_string+0xc4>
10002c22:	3407      	adds	r4, #7
10002c24:	e795      	b.n	10002b52 <pico_get_unique_board_id_string+0xda>
10002c26:	3237      	adds	r2, #55	; 0x37
10002c28:	0014      	movs	r4, r2
10002c2a:	e79d      	b.n	10002b68 <pico_get_unique_board_id_string+0xf0>
10002c2c:	3407      	adds	r4, #7
10002c2e:	e7a5      	b.n	10002b7c <pico_get_unique_board_id_string+0x104>
10002c30:	3237      	adds	r2, #55	; 0x37
10002c32:	0014      	movs	r4, r2
10002c34:	72c4      	strb	r4, [r0, #11]
10002c36:	290c      	cmp	r1, #12
10002c38:	d1ad      	bne.n	10002b96 <pico_get_unique_board_id_string+0x11e>
10002c3a:	1840      	adds	r0, r0, r1
10002c3c:	e7da      	b.n	10002bf4 <pico_get_unique_board_id_string+0x17c>
10002c3e:	46c0      	nop			; (mov r8, r8)
10002c40:	200019d4 	.word	0x200019d4

10002c44 <flash_get_unique_id>:
10002c44:	b510      	push	{r4, lr}
10002c46:	b088      	sub	sp, #32
10002c48:	0004      	movs	r4, r0
10002c4a:	220d      	movs	r2, #13
10002c4c:	2100      	movs	r1, #0
10002c4e:	4668      	mov	r0, sp
10002c50:	f7ff fb0a 	bl	10002268 <__wrap_memset>
10002c54:	220d      	movs	r2, #13
10002c56:	2100      	movs	r1, #0
10002c58:	a804      	add	r0, sp, #16
10002c5a:	f7ff fb05 	bl	10002268 <__wrap_memset>
10002c5e:	234b      	movs	r3, #75	; 0x4b
10002c60:	466a      	mov	r2, sp
10002c62:	a904      	add	r1, sp, #16
10002c64:	7013      	strb	r3, [r2, #0]
10002c66:	4668      	mov	r0, sp
10002c68:	220d      	movs	r2, #13
10002c6a:	f001 fe69 	bl	10004940 <__flash_do_cmd_veneer>
10002c6e:	2115      	movs	r1, #21
10002c70:	2208      	movs	r2, #8
10002c72:	4469      	add	r1, sp
10002c74:	0020      	movs	r0, r4
10002c76:	f7ff fafd 	bl	10002274 <__wrap___aeabi_memcpy>
10002c7a:	b008      	add	sp, #32
10002c7c:	bd10      	pop	{r4, pc}
10002c7e:	46c0      	nop			; (mov r8, r8)

10002c80 <dcd_int_enable>:
10002c80:	b510      	push	{r4, lr}
10002c82:	2101      	movs	r1, #1
10002c84:	2005      	movs	r0, #5
10002c86:	f7fd fc15 	bl	100004b4 <irq_set_enabled>
10002c8a:	bd10      	pop	{r4, pc}

10002c8c <dcd_set_address>:
10002c8c:	b510      	push	{r4, lr}
10002c8e:	2200      	movs	r2, #0
10002c90:	2100      	movs	r1, #0
10002c92:	4802      	ldr	r0, [pc, #8]	; (10002c9c <dcd_set_address+0x10>)
10002c94:	f000 f954 	bl	10002f40 <hw_endpoint_xfer_start>
10002c98:	bd10      	pop	{r4, pc}
10002c9a:	46c0      	nop			; (mov r8, r8)
10002c9c:	200015d0 	.word	0x200015d0

10002ca0 <dcd_connect>:
10002ca0:	2280      	movs	r2, #128	; 0x80
10002ca2:	4b02      	ldr	r3, [pc, #8]	; (10002cac <dcd_connect+0xc>)
10002ca4:	0252      	lsls	r2, r2, #9
10002ca6:	64da      	str	r2, [r3, #76]	; 0x4c
10002ca8:	4770      	bx	lr
10002caa:	46c0      	nop			; (mov r8, r8)
10002cac:	50112000 	.word	0x50112000

10002cb0 <dcd_init>:
10002cb0:	b5f0      	push	{r4, r5, r6, r7, lr}
10002cb2:	46c6      	mov	lr, r8
10002cb4:	b500      	push	{lr}
10002cb6:	4680      	mov	r8, r0
10002cb8:	f000 f91c 	bl	10002ef4 <rp2040_usb_init>
10002cbc:	230c      	movs	r3, #12
10002cbe:	4d19      	ldr	r5, [pc, #100]	; (10002d24 <dcd_init+0x74>)
10002cc0:	22ff      	movs	r2, #255	; 0xff
10002cc2:	67ab      	str	r3, [r5, #120]	; 0x78
10002cc4:	4918      	ldr	r1, [pc, #96]	; (10002d28 <dcd_init+0x78>)
10002cc6:	2005      	movs	r0, #5
10002cc8:	f7fd fc56 	bl	10000578 <irq_add_shared_handler>
10002ccc:	4c17      	ldr	r4, [pc, #92]	; (10002d2c <dcd_init+0x7c>)
10002cce:	2240      	movs	r2, #64	; 0x40
10002cd0:	2100      	movs	r1, #0
10002cd2:	0020      	movs	r0, r4
10002cd4:	f7ff fac8 	bl	10002268 <__wrap_memset>
10002cd8:	2740      	movs	r7, #64	; 0x40
10002cda:	2300      	movs	r3, #0
10002cdc:	2601      	movs	r6, #1
10002cde:	2121      	movs	r1, #33	; 0x21
10002ce0:	4a13      	ldr	r2, [pc, #76]	; (10002d30 <dcd_init+0x80>)
10002ce2:	7066      	strb	r6, [r4, #1]
10002ce4:	8327      	strh	r7, [r4, #24]
10002ce6:	60a2      	str	r2, [r4, #8]
10002ce8:	6013      	str	r3, [r2, #0]
10002cea:	5463      	strb	r3, [r4, r1]
10002cec:	315f      	adds	r1, #95	; 0x5f
10002cee:	8461      	strh	r1, [r4, #34]	; 0x22
10002cf0:	3945      	subs	r1, #69	; 0x45
10002cf2:	5463      	strb	r3, [r4, r1]
10002cf4:	4a0f      	ldr	r2, [pc, #60]	; (10002d34 <dcd_init+0x84>)
10002cf6:	4910      	ldr	r1, [pc, #64]	; (10002d38 <dcd_init+0x88>)
10002cf8:	6063      	str	r3, [r4, #4]
10002cfa:	60e2      	str	r2, [r4, #12]
10002cfc:	8727      	strh	r7, [r4, #56]	; 0x38
10002cfe:	62a1      	str	r1, [r4, #40]	; 0x28
10002d00:	600b      	str	r3, [r1, #0]
10002d02:	6263      	str	r3, [r4, #36]	; 0x24
10002d04:	62e2      	str	r2, [r4, #44]	; 0x2c
10002d06:	f001 fe33 	bl	10004970 <__reset_non_control_endpoints_veneer>
10002d0a:	2380      	movs	r3, #128	; 0x80
10002d0c:	059b      	lsls	r3, r3, #22
10002d0e:	642e      	str	r6, [r5, #64]	; 0x40
10002d10:	64eb      	str	r3, [r5, #76]	; 0x4c
10002d12:	2390      	movs	r3, #144	; 0x90
10002d14:	4a09      	ldr	r2, [pc, #36]	; (10002d3c <dcd_init+0x8c>)
10002d16:	4640      	mov	r0, r8
10002d18:	50ea      	str	r2, [r5, r3]
10002d1a:	f7ff ffc1 	bl	10002ca0 <dcd_connect>
10002d1e:	bc04      	pop	{r2}
10002d20:	4690      	mov	r8, r2
10002d22:	bdf0      	pop	{r4, r5, r6, r7, pc}
10002d24:	50110000 	.word	0x50110000
10002d28:	2000050d 	.word	0x2000050d
10002d2c:	200015b0 	.word	0x200015b0
10002d30:	50100084 	.word	0x50100084
10002d34:	50100100 	.word	0x50100100
10002d38:	50100080 	.word	0x50100080
10002d3c:	0001d010 	.word	0x0001d010

10002d40 <dcd_edpt0_status_complete>:
10002d40:	780b      	ldrb	r3, [r1, #0]
10002d42:	065b      	lsls	r3, r3, #25
10002d44:	d102      	bne.n	10002d4c <dcd_edpt0_status_complete+0xc>
10002d46:	784b      	ldrb	r3, [r1, #1]
10002d48:	2b05      	cmp	r3, #5
10002d4a:	d000      	beq.n	10002d4e <dcd_edpt0_status_complete+0xe>
10002d4c:	4770      	bx	lr
10002d4e:	788a      	ldrb	r2, [r1, #2]
10002d50:	4b01      	ldr	r3, [pc, #4]	; (10002d58 <dcd_edpt0_status_complete+0x18>)
10002d52:	601a      	str	r2, [r3, #0]
10002d54:	e7fa      	b.n	10002d4c <dcd_edpt0_status_complete+0xc>
10002d56:	46c0      	nop			; (mov r8, r8)
10002d58:	50110000 	.word	0x50110000

10002d5c <dcd_edpt_open>:
10002d5c:	b5f0      	push	{r4, r5, r6, r7, lr}
10002d5e:	46c6      	mov	lr, r8
10002d60:	b500      	push	{lr}
10002d62:	794b      	ldrb	r3, [r1, #5]
10002d64:	790a      	ldrb	r2, [r1, #4]
10002d66:	021b      	lsls	r3, r3, #8
10002d68:	7888      	ldrb	r0, [r1, #2]
10002d6a:	4313      	orrs	r3, r2
10002d6c:	78ca      	ldrb	r2, [r1, #3]
10002d6e:	217f      	movs	r1, #127	; 0x7f
10002d70:	0792      	lsls	r2, r2, #30
10002d72:	4001      	ands	r1, r0
10002d74:	0f92      	lsrs	r2, r2, #30
10002d76:	09c4      	lsrs	r4, r0, #7
10002d78:	004e      	lsls	r6, r1, #1
10002d7a:	4694      	mov	ip, r2
10002d7c:	b2d7      	uxtb	r7, r2
10002d7e:	4d33      	ldr	r5, [pc, #204]	; (10002e4c <dcd_edpt_open+0xf0>)
10002d80:	1932      	adds	r2, r6, r4
10002d82:	0152      	lsls	r2, r2, #5
10002d84:	18aa      	adds	r2, r5, r2
10002d86:	7090      	strb	r0, [r2, #2]
10002d88:	2001      	movs	r0, #1
10002d8a:	4060      	eors	r0, r4
10002d8c:	7050      	strb	r0, [r2, #1]
10002d8e:	2000      	movs	r0, #0
10002d90:	70d0      	strb	r0, [r2, #3]
10002d92:	4680      	mov	r8, r0
10002d94:	4660      	mov	r0, ip
10002d96:	055b      	lsls	r3, r3, #21
10002d98:	0d5b      	lsrs	r3, r3, #21
10002d9a:	8313      	strh	r3, [r2, #24]
10002d9c:	76d0      	strb	r0, [r2, #27]
10002d9e:	00ca      	lsls	r2, r1, #3
10002da0:	2c01      	cmp	r4, #1
10002da2:	d033      	beq.n	10002e0c <dcd_edpt_open+0xb0>
10002da4:	482a      	ldr	r0, [pc, #168]	; (10002e50 <dcd_edpt_open+0xf4>)
10002da6:	4684      	mov	ip, r0
10002da8:	0188      	lsls	r0, r1, #6
10002daa:	4462      	add	r2, ip
10002dac:	4684      	mov	ip, r0
10002dae:	44ac      	add	ip, r5
10002db0:	4660      	mov	r0, ip
10002db2:	6082      	str	r2, [r0, #8]
10002db4:	4640      	mov	r0, r8
10002db6:	6010      	str	r0, [r2, #0]
10002db8:	2900      	cmp	r1, #0
10002dba:	d033      	beq.n	10002e24 <dcd_edpt_open+0xc8>
10002dbc:	4a25      	ldr	r2, [pc, #148]	; (10002e54 <dcd_edpt_open+0xf8>)
10002dbe:	00c9      	lsls	r1, r1, #3
10002dc0:	4690      	mov	r8, r2
10002dc2:	4662      	mov	r2, ip
10002dc4:	4441      	add	r1, r8
10002dc6:	6051      	str	r1, [r2, #4]
10002dc8:	223f      	movs	r2, #63	; 0x3f
10002dca:	333f      	adds	r3, #63	; 0x3f
10002dcc:	4393      	bics	r3, r2
10002dce:	2f02      	cmp	r7, #2
10002dd0:	d100      	bne.n	10002dd4 <dcd_edpt_open+0x78>
10002dd2:	005b      	lsls	r3, r3, #1
10002dd4:	4820      	ldr	r0, [pc, #128]	; (10002e58 <dcd_edpt_open+0xfc>)
10002dd6:	1932      	adds	r2, r6, r4
10002dd8:	6801      	ldr	r1, [r0, #0]
10002dda:	0152      	lsls	r2, r2, #5
10002ddc:	18aa      	adds	r2, r5, r2
10002dde:	60d1      	str	r1, [r2, #12]
10002de0:	4a1e      	ldr	r2, [pc, #120]	; (10002e5c <dcd_edpt_open+0x100>)
10002de2:	18cb      	adds	r3, r1, r3
10002de4:	6003      	str	r3, [r0, #0]
10002de6:	4051      	eors	r1, r2
10002de8:	4053      	eors	r3, r2
10002dea:	2280      	movs	r2, #128	; 0x80
10002dec:	4688      	mov	r8, r1
10002dee:	0152      	lsls	r2, r2, #5
10002df0:	4293      	cmp	r3, r2
10002df2:	d828      	bhi.n	10002e46 <dcd_edpt_open+0xea>
10002df4:	4643      	mov	r3, r8
10002df6:	06bf      	lsls	r7, r7, #26
10002df8:	431f      	orrs	r7, r3
10002dfa:	2380      	movs	r3, #128	; 0x80
10002dfc:	1936      	adds	r6, r6, r4
10002dfe:	0176      	lsls	r6, r6, #5
10002e00:	061b      	lsls	r3, r3, #24
10002e02:	19ad      	adds	r5, r5, r6
10002e04:	431f      	orrs	r7, r3
10002e06:	686b      	ldr	r3, [r5, #4]
10002e08:	601f      	str	r7, [r3, #0]
10002e0a:	e011      	b.n	10002e30 <dcd_edpt_open+0xd4>
10002e0c:	4814      	ldr	r0, [pc, #80]	; (10002e60 <dcd_edpt_open+0x104>)
10002e0e:	4684      	mov	ip, r0
10002e10:	0188      	lsls	r0, r1, #6
10002e12:	4462      	add	r2, ip
10002e14:	4684      	mov	ip, r0
10002e16:	44ac      	add	ip, r5
10002e18:	4660      	mov	r0, ip
10002e1a:	6282      	str	r2, [r0, #40]	; 0x28
10002e1c:	4640      	mov	r0, r8
10002e1e:	6010      	str	r0, [r2, #0]
10002e20:	2900      	cmp	r1, #0
10002e22:	d109      	bne.n	10002e38 <dcd_edpt_open+0xdc>
10002e24:	2300      	movs	r3, #0
10002e26:	0164      	lsls	r4, r4, #5
10002e28:	192d      	adds	r5, r5, r4
10002e2a:	606b      	str	r3, [r5, #4]
10002e2c:	4b0d      	ldr	r3, [pc, #52]	; (10002e64 <dcd_edpt_open+0x108>)
10002e2e:	60eb      	str	r3, [r5, #12]
10002e30:	2001      	movs	r0, #1
10002e32:	bc04      	pop	{r2}
10002e34:	4690      	mov	r8, r2
10002e36:	bdf0      	pop	{r4, r5, r6, r7, pc}
10002e38:	4a08      	ldr	r2, [pc, #32]	; (10002e5c <dcd_edpt_open+0x100>)
10002e3a:	00c9      	lsls	r1, r1, #3
10002e3c:	4690      	mov	r8, r2
10002e3e:	4662      	mov	r2, ip
10002e40:	4441      	add	r1, r8
10002e42:	6251      	str	r1, [r2, #36]	; 0x24
10002e44:	e7c0      	b.n	10002dc8 <dcd_edpt_open+0x6c>
10002e46:	f7ff f8ad 	bl	10001fa4 <hard_assertion_failure>
10002e4a:	e7d3      	b.n	10002df4 <dcd_edpt_open+0x98>
10002e4c:	200015b0 	.word	0x200015b0
10002e50:	50100084 	.word	0x50100084
10002e54:	50100004 	.word	0x50100004
10002e58:	200019b8 	.word	0x200019b8
10002e5c:	50100000 	.word	0x50100000
10002e60:	50100080 	.word	0x50100080
10002e64:	50100100 	.word	0x50100100

10002e68 <dcd_edpt_close_all>:
10002e68:	b510      	push	{r4, lr}
10002e6a:	f001 fd81 	bl	10004970 <__reset_non_control_endpoints_veneer>
10002e6e:	bd10      	pop	{r4, pc}

10002e70 <dcd_edpt_xfer>:
10002e70:	207f      	movs	r0, #127	; 0x7f
10002e72:	b520      	push	{r5, lr}
10002e74:	0015      	movs	r5, r2
10002e76:	4008      	ands	r0, r1
10002e78:	0040      	lsls	r0, r0, #1
10002e7a:	09c9      	lsrs	r1, r1, #7
10002e7c:	1840      	adds	r0, r0, r1
10002e7e:	4904      	ldr	r1, [pc, #16]	; (10002e90 <dcd_edpt_xfer+0x20>)
10002e80:	0140      	lsls	r0, r0, #5
10002e82:	1840      	adds	r0, r0, r1
10002e84:	001a      	movs	r2, r3
10002e86:	0029      	movs	r1, r5
10002e88:	f000 f85a 	bl	10002f40 <hw_endpoint_xfer_start>
10002e8c:	2001      	movs	r0, #1
10002e8e:	bd20      	pop	{r5, pc}
10002e90:	200015b0 	.word	0x200015b0

10002e94 <dcd_edpt_stall>:
10002e94:	237f      	movs	r3, #127	; 0x7f
10002e96:	b510      	push	{r4, lr}
10002e98:	400b      	ands	r3, r1
10002e9a:	09c9      	lsrs	r1, r1, #7
10002e9c:	2b00      	cmp	r3, #0
10002e9e:	d103      	bne.n	10002ea8 <dcd_edpt_stall+0x14>
10002ea0:	2202      	movs	r2, #2
10002ea2:	4807      	ldr	r0, [pc, #28]	; (10002ec0 <dcd_edpt_stall+0x2c>)
10002ea4:	1a52      	subs	r2, r2, r1
10002ea6:	6682      	str	r2, [r0, #104]	; 0x68
10002ea8:	2280      	movs	r2, #128	; 0x80
10002eaa:	0058      	lsls	r0, r3, #1
10002eac:	1840      	adds	r0, r0, r1
10002eae:	4b05      	ldr	r3, [pc, #20]	; (10002ec4 <dcd_edpt_stall+0x30>)
10002eb0:	0140      	lsls	r0, r0, #5
10002eb2:	18c0      	adds	r0, r0, r3
10002eb4:	0112      	lsls	r2, r2, #4
10002eb6:	2100      	movs	r1, #0
10002eb8:	f001 fd92 	bl	100049e0 <___hw_endpoint_buffer_control_update32_veneer>
10002ebc:	bd10      	pop	{r4, pc}
10002ebe:	46c0      	nop			; (mov r8, r8)
10002ec0:	50112000 	.word	0x50112000
10002ec4:	200015b0 	.word	0x200015b0

10002ec8 <dcd_edpt_clear_stall>:
10002ec8:	237f      	movs	r3, #127	; 0x7f
10002eca:	b510      	push	{r4, lr}
10002ecc:	400b      	ands	r3, r1
10002ece:	d100      	bne.n	10002ed2 <dcd_edpt_clear_stall+0xa>
10002ed0:	bd10      	pop	{r4, pc}
10002ed2:	09c9      	lsrs	r1, r1, #7
10002ed4:	0058      	lsls	r0, r3, #1
10002ed6:	1840      	adds	r0, r0, r1
10002ed8:	4b04      	ldr	r3, [pc, #16]	; (10002eec <dcd_edpt_clear_stall+0x24>)
10002eda:	0140      	lsls	r0, r0, #5
10002edc:	1818      	adds	r0, r3, r0
10002ede:	2300      	movs	r3, #0
10002ee0:	2200      	movs	r2, #0
10002ee2:	70c3      	strb	r3, [r0, #3]
10002ee4:	4902      	ldr	r1, [pc, #8]	; (10002ef0 <dcd_edpt_clear_stall+0x28>)
10002ee6:	f001 fd7b 	bl	100049e0 <___hw_endpoint_buffer_control_update32_veneer>
10002eea:	e7f1      	b.n	10002ed0 <dcd_edpt_clear_stall+0x8>
10002eec:	200015b0 	.word	0x200015b0
10002ef0:	fffff7ff 	.word	0xfffff7ff

10002ef4 <rp2040_usb_init>:
10002ef4:	2280      	movs	r2, #128	; 0x80
10002ef6:	4b0d      	ldr	r3, [pc, #52]	; (10002f2c <rp2040_usb_init+0x38>)
10002ef8:	0452      	lsls	r2, r2, #17
10002efa:	b510      	push	{r4, lr}
10002efc:	601a      	str	r2, [r3, #0]
10002efe:	4b0c      	ldr	r3, [pc, #48]	; (10002f30 <rp2040_usb_init+0x3c>)
10002f00:	490c      	ldr	r1, [pc, #48]	; (10002f34 <rp2040_usb_init+0x40>)
10002f02:	601a      	str	r2, [r3, #0]
10002f04:	0010      	movs	r0, r2
10002f06:	688b      	ldr	r3, [r1, #8]
10002f08:	4398      	bics	r0, r3
10002f0a:	d1fb      	bne.n	10002f04 <rp2040_usb_init+0x10>
10002f0c:	4c0a      	ldr	r4, [pc, #40]	; (10002f38 <rp2040_usb_init+0x44>)
10002f0e:	229c      	movs	r2, #156	; 0x9c
10002f10:	2100      	movs	r1, #0
10002f12:	0020      	movs	r0, r4
10002f14:	f7ff f9a8 	bl	10002268 <__wrap_memset>
10002f18:	2280      	movs	r2, #128	; 0x80
10002f1a:	2100      	movs	r1, #0
10002f1c:	0152      	lsls	r2, r2, #5
10002f1e:	4807      	ldr	r0, [pc, #28]	; (10002f3c <rp2040_usb_init+0x48>)
10002f20:	f7ff f9a2 	bl	10002268 <__wrap_memset>
10002f24:	2309      	movs	r3, #9
10002f26:	6763      	str	r3, [r4, #116]	; 0x74
10002f28:	bd10      	pop	{r4, pc}
10002f2a:	46c0      	nop			; (mov r8, r8)
10002f2c:	4000e000 	.word	0x4000e000
10002f30:	4000f000 	.word	0x4000f000
10002f34:	4000c000 	.word	0x4000c000
10002f38:	50110000 	.word	0x50110000
10002f3c:	50100000 	.word	0x50100000

10002f40 <hw_endpoint_xfer_start>:
10002f40:	b570      	push	{r4, r5, r6, lr}
10002f42:	7e83      	ldrb	r3, [r0, #26]
10002f44:	0004      	movs	r4, r0
10002f46:	000d      	movs	r5, r1
10002f48:	0016      	movs	r6, r2
10002f4a:	2b00      	cmp	r3, #0
10002f4c:	d119      	bne.n	10002f82 <hw_endpoint_xfer_start+0x42>
10002f4e:	2300      	movs	r3, #0
10002f50:	0021      	movs	r1, r4
10002f52:	82e3      	strh	r3, [r4, #22]
10002f54:	3301      	adds	r3, #1
10002f56:	82a6      	strh	r6, [r4, #20]
10002f58:	76a3      	strb	r3, [r4, #26]
10002f5a:	6125      	str	r5, [r4, #16]
10002f5c:	1ca0      	adds	r0, r4, #2
10002f5e:	311b      	adds	r1, #27
10002f60:	f001 fd46 	bl	100049f0 <__e15_is_bulkin_ep.isra.0_veneer>
10002f64:	2800      	cmp	r0, #0
10002f66:	d004      	beq.n	10002f72 <hw_endpoint_xfer_start+0x32>
10002f68:	2180      	movs	r1, #128	; 0x80
10002f6a:	2390      	movs	r3, #144	; 0x90
10002f6c:	4a08      	ldr	r2, [pc, #32]	; (10002f90 <hw_endpoint_xfer_start+0x50>)
10002f6e:	0289      	lsls	r1, r1, #10
10002f70:	50d1      	str	r1, [r2, r3]
10002f72:	0020      	movs	r0, r4
10002f74:	f001 fcf4 	bl	10004960 <__e15_is_critical_frame_period_veneer>
10002f78:	2800      	cmp	r0, #0
10002f7a:	d005      	beq.n	10002f88 <hw_endpoint_xfer_start+0x48>
10002f7c:	2301      	movs	r3, #1
10002f7e:	7723      	strb	r3, [r4, #28]
10002f80:	bd70      	pop	{r4, r5, r6, pc}
10002f82:	f001 fd25 	bl	100049d0 <__hw_endpoint_reset_transfer_veneer>
10002f86:	e7e2      	b.n	10002f4e <hw_endpoint_xfer_start+0xe>
10002f88:	0020      	movs	r0, r4
10002f8a:	f001 fd19 	bl	100049c0 <__hw_endpoint_start_next_buffer_veneer>
10002f8e:	e7f7      	b.n	10002f80 <hw_endpoint_xfer_start+0x40>
10002f90:	50112000 	.word	0x50112000

10002f94 <tud_mounted>:
10002f94:	4b02      	ldr	r3, [pc, #8]	; (10002fa0 <tud_mounted+0xc>)
10002f96:	7858      	ldrb	r0, [r3, #1]
10002f98:	1e43      	subs	r3, r0, #1
10002f9a:	4198      	sbcs	r0, r3
10002f9c:	b2c0      	uxtb	r0, r0
10002f9e:	4770      	bx	lr
10002fa0:	2000139c 	.word	0x2000139c

10002fa4 <tud_suspended>:
10002fa4:	4b02      	ldr	r3, [pc, #8]	; (10002fb0 <tud_suspended+0xc>)
10002fa6:	7818      	ldrb	r0, [r3, #0]
10002fa8:	0740      	lsls	r0, r0, #29
10002faa:	0fc0      	lsrs	r0, r0, #31
10002fac:	4770      	bx	lr
10002fae:	46c0      	nop			; (mov r8, r8)
10002fb0:	2000139c 	.word	0x2000139c

10002fb4 <tud_inited>:
10002fb4:	4b03      	ldr	r3, [pc, #12]	; (10002fc4 <tud_inited+0x10>)
10002fb6:	7818      	ldrb	r0, [r3, #0]
10002fb8:	38ff      	subs	r0, #255	; 0xff
10002fba:	1e43      	subs	r3, r0, #1
10002fbc:	4198      	sbcs	r0, r3
10002fbe:	b2c0      	uxtb	r0, r0
10002fc0:	4770      	bx	lr
10002fc2:	46c0      	nop			; (mov r8, r8)
10002fc4:	20000f2c 	.word	0x20000f2c

10002fc8 <tud_init>:
10002fc8:	b5f8      	push	{r3, r4, r5, r6, r7, lr}
10002fca:	4647      	mov	r7, r8
10002fcc:	46ce      	mov	lr, r9
10002fce:	b580      	push	{r7, lr}
10002fd0:	4d2c      	ldr	r5, [pc, #176]	; (10003084 <tud_init+0xbc>)
10002fd2:	0007      	movs	r7, r0
10002fd4:	782b      	ldrb	r3, [r5, #0]
10002fd6:	2001      	movs	r0, #1
10002fd8:	2bff      	cmp	r3, #255	; 0xff
10002fda:	d003      	beq.n	10002fe4 <tud_init+0x1c>
10002fdc:	bc0c      	pop	{r2, r3}
10002fde:	4690      	mov	r8, r2
10002fe0:	4699      	mov	r9, r3
10002fe2:	bdf8      	pop	{r3, r4, r5, r6, r7, pc}
10002fe4:	2253      	movs	r2, #83	; 0x53
10002fe6:	2100      	movs	r1, #0
10002fe8:	4827      	ldr	r0, [pc, #156]	; (10003088 <tud_init+0xc0>)
10002fea:	f7ff f93d 	bl	10002268 <__wrap_memset>
10002fee:	4c27      	ldr	r4, [pc, #156]	; (1000308c <tud_init+0xc4>)
10002ff0:	0020      	movs	r0, r4
10002ff2:	f7fd fd05 	bl	10000a00 <mutex_init>
10002ff6:	4b26      	ldr	r3, [pc, #152]	; (10003090 <tud_init+0xc8>)
10002ff8:	601c      	str	r4, [r3, #0]
10002ffa:	4c26      	ldr	r4, [pc, #152]	; (10003094 <tud_init+0xcc>)
10002ffc:	0020      	movs	r0, r4
10002ffe:	3014      	adds	r0, #20
10003000:	f7fd fd1a 	bl	10000a38 <critical_section_init>
10003004:	0020      	movs	r0, r4
10003006:	f001 fc21 	bl	1000484c <tu_fifo_clear>
1000300a:	4b23      	ldr	r3, [pc, #140]	; (10003098 <tud_init+0xd0>)
1000300c:	4e23      	ldr	r6, [pc, #140]	; (1000309c <tud_init+0xd4>)
1000300e:	601c      	str	r4, [r3, #0]
10003010:	4b23      	ldr	r3, [pc, #140]	; (100030a0 <tud_init+0xd8>)
10003012:	4698      	mov	r8, r3
10003014:	2b00      	cmp	r3, #0
10003016:	d004      	beq.n	10003022 <tud_init+0x5a>
10003018:	0030      	movs	r0, r6
1000301a:	f7ff fae7 	bl	100025ec <usbd_app_driver_get_cb>
1000301e:	4b21      	ldr	r3, [pc, #132]	; (100030a4 <tud_init+0xdc>)
10003020:	6018      	str	r0, [r3, #0]
10003022:	4642      	mov	r2, r8
10003024:	7833      	ldrb	r3, [r6, #0]
10003026:	2400      	movs	r4, #0
10003028:	2a00      	cmp	r2, #0
1000302a:	d023      	beq.n	10003074 <tud_init+0xac>
1000302c:	4a1e      	ldr	r2, [pc, #120]	; (100030a8 <tud_init+0xe0>)
1000302e:	4690      	mov	r8, r2
10003030:	4a1c      	ldr	r2, [pc, #112]	; (100030a4 <tud_init+0xdc>)
10003032:	4691      	mov	r9, r2
10003034:	42a3      	cmp	r3, r4
10003036:	d812      	bhi.n	1000305e <tud_init+0x96>
10003038:	d10f      	bne.n	1000305a <tud_init+0x92>
1000303a:	4643      	mov	r3, r8
1000303c:	4798      	blx	r3
1000303e:	3401      	adds	r4, #1
10003040:	7833      	ldrb	r3, [r6, #0]
10003042:	b2e4      	uxtb	r4, r4
10003044:	42a3      	cmp	r3, r4
10003046:	d2f5      	bcs.n	10003034 <tud_init+0x6c>
10003048:	0038      	movs	r0, r7
1000304a:	702f      	strb	r7, [r5, #0]
1000304c:	f7ff fe30 	bl	10002cb0 <dcd_init>
10003050:	0038      	movs	r0, r7
10003052:	f7ff fe15 	bl	10002c80 <dcd_int_enable>
10003056:	2001      	movs	r0, #1
10003058:	e7c0      	b.n	10002fdc <tud_init+0x14>
1000305a:	2000      	movs	r0, #0
1000305c:	e7be      	b.n	10002fdc <tud_init+0x14>
1000305e:	464a      	mov	r2, r9
10003060:	6812      	ldr	r2, [r2, #0]
10003062:	0063      	lsls	r3, r4, #1
10003064:	4694      	mov	ip, r2
10003066:	191b      	adds	r3, r3, r4
10003068:	00db      	lsls	r3, r3, #3
1000306a:	4463      	add	r3, ip
1000306c:	2b00      	cmp	r3, #0
1000306e:	d0f4      	beq.n	1000305a <tud_init+0x92>
10003070:	681b      	ldr	r3, [r3, #0]
10003072:	e7e3      	b.n	1000303c <tud_init+0x74>
10003074:	f000 ff18 	bl	10003ea8 <cdcd_init>
10003078:	7833      	ldrb	r3, [r6, #0]
1000307a:	2000      	movs	r0, #0
1000307c:	2b00      	cmp	r3, #0
1000307e:	d1ad      	bne.n	10002fdc <tud_init+0x14>
10003080:	e7e2      	b.n	10003048 <tud_init+0x80>
10003082:	46c0      	nop			; (mov r8, r8)
10003084:	20000f2c 	.word	0x20000f2c
10003088:	2000139c 	.word	0x2000139c
1000308c:	20001354 	.word	0x20001354
10003090:	200013f0 	.word	0x200013f0
10003094:	20000f10 	.word	0x20000f10
10003098:	200013f4 	.word	0x200013f4
1000309c:	20001a0d 	.word	0x20001a0d
100030a0:	100025ed 	.word	0x100025ed
100030a4:	20001074 	.word	0x20001074
100030a8:	10003ea9 	.word	0x10003ea9

100030ac <tud_task_ext>:
100030ac:	b5f0      	push	{r4, r5, r6, r7, lr}
100030ae:	46de      	mov	lr, fp
100030b0:	4657      	mov	r7, sl
100030b2:	464e      	mov	r6, r9
100030b4:	4645      	mov	r5, r8
100030b6:	b5e0      	push	{r5, r6, r7, lr}
100030b8:	b08d      	sub	sp, #52	; 0x34
100030ba:	f001 f8ff 	bl	100042bc <tusb_inited>
100030be:	2800      	cmp	r0, #0
100030c0:	d100      	bne.n	100030c4 <tud_task_ext+0x18>
100030c2:	e15b      	b.n	1000337c <tud_task_ext+0x2d0>
100030c4:	4bcc      	ldr	r3, [pc, #816]	; (100033f8 <tud_task_ext+0x34c>)
100030c6:	4ecd      	ldr	r6, [pc, #820]	; (100033fc <tud_task_ext+0x350>)
100030c8:	469a      	mov	sl, r3
100030ca:	4dcd      	ldr	r5, [pc, #820]	; (10003400 <tud_task_ext+0x354>)
100030cc:	ac09      	add	r4, sp, #36	; 0x24
100030ce:	6837      	ldr	r7, [r6, #0]
100030d0:	697a      	ldr	r2, [r7, #20]
100030d2:	f3ef 8110 	mrs	r1, PRIMASK
100030d6:	b672      	cpsid	i
100030d8:	6813      	ldr	r3, [r2, #0]
100030da:	2b00      	cmp	r3, #0
100030dc:	d0fc      	beq.n	100030d8 <tud_task_ext+0x2c>
100030de:	f3bf 8f5f 	dmb	sy
100030e2:	61b9      	str	r1, [r7, #24]
100030e4:	0038      	movs	r0, r7
100030e6:	0021      	movs	r1, r4
100030e8:	f001 f9f0 	bl	100044cc <tu_fifo_read>
100030ec:	697a      	ldr	r2, [r7, #20]
100030ee:	69bb      	ldr	r3, [r7, #24]
100030f0:	f3bf 8f5f 	dmb	sy
100030f4:	2100      	movs	r1, #0
100030f6:	6011      	str	r1, [r2, #0]
100030f8:	f383 8810 	msr	PRIMASK, r3
100030fc:	2800      	cmp	r0, #0
100030fe:	d100      	bne.n	10003102 <tud_task_ext+0x56>
10003100:	e13c      	b.n	1000337c <tud_task_ext+0x2d0>
10003102:	7863      	ldrb	r3, [r4, #1]
10003104:	2b08      	cmp	r3, #8
10003106:	d8e2      	bhi.n	100030ce <tud_task_ext+0x22>
10003108:	4652      	mov	r2, sl
1000310a:	009b      	lsls	r3, r3, #2
1000310c:	58d3      	ldr	r3, [r2, r3]
1000310e:	469f      	mov	pc, r3
10003110:	6863      	ldr	r3, [r4, #4]
10003112:	2b00      	cmp	r3, #0
10003114:	d0db      	beq.n	100030ce <tud_task_ext+0x22>
10003116:	68a0      	ldr	r0, [r4, #8]
10003118:	4798      	blx	r3
1000311a:	e7d8      	b.n	100030ce <tud_task_ext+0x22>
1000311c:	227f      	movs	r2, #127	; 0x7f
1000311e:	7921      	ldrb	r1, [r4, #4]
10003120:	4fb7      	ldr	r7, [pc, #732]	; (10003400 <tud_task_ext+0x354>)
10003122:	400a      	ands	r2, r1
10003124:	0050      	lsls	r0, r2, #1
10003126:	183f      	adds	r7, r7, r0
10003128:	46b8      	mov	r8, r7
1000312a:	09cb      	lsrs	r3, r1, #7
1000312c:	4498      	add	r8, r3
1000312e:	4640      	mov	r0, r8
10003130:	2701      	movs	r7, #1
10003132:	3030      	adds	r0, #48	; 0x30
10003134:	78c3      	ldrb	r3, [r0, #3]
10003136:	43bb      	bics	r3, r7
10003138:	70c3      	strb	r3, [r0, #3]
1000313a:	78c3      	ldrb	r3, [r0, #3]
1000313c:	3703      	adds	r7, #3
1000313e:	43bb      	bics	r3, r7
10003140:	70c3      	strb	r3, [r0, #3]
10003142:	2a00      	cmp	r2, #0
10003144:	d100      	bne.n	10003148 <tud_task_ext+0x9c>
10003146:	e151      	b.n	100033ec <tud_task_ext+0x340>
10003148:	4643      	mov	r3, r8
1000314a:	4aae      	ldr	r2, [pc, #696]	; (10003404 <tud_task_ext+0x358>)
1000314c:	7cdb      	ldrb	r3, [r3, #19]
1000314e:	2a00      	cmp	r2, #0
10003150:	d006      	beq.n	10003160 <tud_task_ext+0xb4>
10003152:	4aad      	ldr	r2, [pc, #692]	; (10003408 <tud_task_ext+0x35c>)
10003154:	7812      	ldrb	r2, [r2, #0]
10003156:	4293      	cmp	r3, r2
10003158:	d200      	bcs.n	1000315c <tud_task_ext+0xb0>
1000315a:	e180      	b.n	1000345e <tud_task_ext+0x3b2>
1000315c:	1a9b      	subs	r3, r3, r2
1000315e:	b2db      	uxtb	r3, r3
10003160:	2b00      	cmp	r3, #0
10003162:	d000      	beq.n	10003166 <tud_task_ext+0xba>
10003164:	e10a      	b.n	1000337c <tud_task_ext+0x2d0>
10003166:	4fa9      	ldr	r7, [pc, #676]	; (1000340c <tud_task_ext+0x360>)
10003168:	7962      	ldrb	r2, [r4, #5]
1000316a:	7820      	ldrb	r0, [r4, #0]
1000316c:	68a3      	ldr	r3, [r4, #8]
1000316e:	47b8      	blx	r7
10003170:	e7ad      	b.n	100030ce <tud_task_ext+0x22>
10003172:	2201      	movs	r2, #1
10003174:	782b      	ldrb	r3, [r5, #0]
10003176:	2101      	movs	r1, #1
10003178:	4313      	orrs	r3, r2
1000317a:	702b      	strb	r3, [r5, #0]
1000317c:	2333      	movs	r3, #51	; 0x33
1000317e:	2004      	movs	r0, #4
10003180:	5cea      	ldrb	r2, [r5, r3]
10003182:	438a      	bics	r2, r1
10003184:	54ea      	strb	r2, [r5, r3]
10003186:	5cea      	ldrb	r2, [r5, r3]
10003188:	4382      	bics	r2, r0
1000318a:	54ea      	strb	r2, [r5, r3]
1000318c:	3301      	adds	r3, #1
1000318e:	5cea      	ldrb	r2, [r5, r3]
10003190:	438a      	bics	r2, r1
10003192:	54ea      	strb	r2, [r5, r3]
10003194:	5cea      	ldrb	r2, [r5, r3]
10003196:	4382      	bics	r2, r0
10003198:	54ea      	strb	r2, [r5, r3]
1000319a:	7823      	ldrb	r3, [r4, #0]
1000319c:	2000      	movs	r0, #0
1000319e:	469b      	mov	fp, r3
100031a0:	f000 fd32 	bl	10003c08 <usbd_control_set_complete_callback>
100031a4:	2260      	movs	r2, #96	; 0x60
100031a6:	7923      	ldrb	r3, [r4, #4]
100031a8:	401a      	ands	r2, r3
100031aa:	2a60      	cmp	r2, #96	; 0x60
100031ac:	d100      	bne.n	100031b0 <tud_task_ext+0x104>
100031ae:	e10b      	b.n	100033c8 <tud_task_ext+0x31c>
100031b0:	2a40      	cmp	r2, #64	; 0x40
100031b2:	d100      	bne.n	100031b6 <tud_task_ext+0x10a>
100031b4:	e13a      	b.n	1000342c <tud_task_ext+0x380>
100031b6:	06db      	lsls	r3, r3, #27
100031b8:	0edb      	lsrs	r3, r3, #27
100031ba:	b2d9      	uxtb	r1, r3
100031bc:	2901      	cmp	r1, #1
100031be:	d100      	bne.n	100031c2 <tud_task_ext+0x116>
100031c0:	e158      	b.n	10003474 <tud_task_ext+0x3c8>
100031c2:	b25b      	sxtb	r3, r3
100031c4:	2b00      	cmp	r3, #0
100031c6:	d100      	bne.n	100031ca <tud_task_ext+0x11e>
100031c8:	e13e      	b.n	10003448 <tud_task_ext+0x39c>
100031ca:	2902      	cmp	r1, #2
100031cc:	d000      	beq.n	100031d0 <tud_task_ext+0x124>
100031ce:	e0fb      	b.n	100033c8 <tud_task_ext+0x31c>
100031d0:	2370      	movs	r3, #112	; 0x70
100031d2:	7a21      	ldrb	r1, [r4, #8]
100031d4:	420b      	tst	r3, r1
100031d6:	d000      	beq.n	100031da <tud_task_ext+0x12e>
100031d8:	e0f6      	b.n	100033c8 <tud_task_ext+0x31c>
100031da:	09c8      	lsrs	r0, r1, #7
100031dc:	4684      	mov	ip, r0
100031de:	330f      	adds	r3, #15
100031e0:	400b      	ands	r3, r1
100031e2:	005b      	lsls	r3, r3, #1
100031e4:	18e8      	adds	r0, r5, r3
100031e6:	4f87      	ldr	r7, [pc, #540]	; (10003404 <tud_task_ext+0x358>)
100031e8:	4460      	add	r0, ip
100031ea:	7cc0      	ldrb	r0, [r0, #19]
100031ec:	2f00      	cmp	r7, #0
100031ee:	d006      	beq.n	100031fe <tud_task_ext+0x152>
100031f0:	4f85      	ldr	r7, [pc, #532]	; (10003408 <tud_task_ext+0x35c>)
100031f2:	783f      	ldrb	r7, [r7, #0]
100031f4:	42b8      	cmp	r0, r7
100031f6:	d200      	bcs.n	100031fa <tud_task_ext+0x14e>
100031f8:	e191      	b.n	1000351e <tud_task_ext+0x472>
100031fa:	1bc0      	subs	r0, r0, r7
100031fc:	b2c0      	uxtb	r0, r0
100031fe:	2800      	cmp	r0, #0
10003200:	d000      	beq.n	10003204 <tud_task_ext+0x158>
10003202:	e187      	b.n	10003514 <tud_task_ext+0x468>
10003204:	2a00      	cmp	r2, #0
10003206:	d000      	beq.n	1000320a <tud_task_ext+0x15e>
10003208:	e17a      	b.n	10003500 <tud_task_ext+0x454>
1000320a:	4f81      	ldr	r7, [pc, #516]	; (10003410 <tud_task_ext+0x364>)
1000320c:	7962      	ldrb	r2, [r4, #5]
1000320e:	4690      	mov	r8, r2
10003210:	2a01      	cmp	r2, #1
10003212:	d005      	beq.n	10003220 <tud_task_ext+0x174>
10003214:	2a00      	cmp	r2, #0
10003216:	d100      	bne.n	1000321a <tud_task_ext+0x16e>
10003218:	e23f      	b.n	1000369a <tud_task_ext+0x5ee>
1000321a:	2a03      	cmp	r2, #3
1000321c:	d000      	beq.n	10003220 <tud_task_ext+0x174>
1000321e:	e0d3      	b.n	100033c8 <tud_task_ext+0x31c>
10003220:	88e2      	ldrh	r2, [r4, #6]
10003222:	2a00      	cmp	r2, #0
10003224:	d10f      	bne.n	10003246 <tud_task_ext+0x19a>
10003226:	4a7b      	ldr	r2, [pc, #492]	; (10003414 <tud_task_ext+0x368>)
10003228:	18eb      	adds	r3, r5, r3
1000322a:	7810      	ldrb	r0, [r2, #0]
1000322c:	4642      	mov	r2, r8
1000322e:	4463      	add	r3, ip
10003230:	2a01      	cmp	r2, #1
10003232:	d100      	bne.n	10003236 <tud_task_ext+0x18a>
10003234:	e23a      	b.n	100036ac <tud_task_ext+0x600>
10003236:	2230      	movs	r2, #48	; 0x30
10003238:	4690      	mov	r8, r2
1000323a:	4498      	add	r8, r3
1000323c:	4643      	mov	r3, r8
1000323e:	78db      	ldrb	r3, [r3, #3]
10003240:	079b      	lsls	r3, r3, #30
10003242:	d400      	bmi.n	10003246 <tud_task_ext+0x19a>
10003244:	e248      	b.n	100036d8 <tud_task_ext+0x62c>
10003246:	2f00      	cmp	r7, #0
10003248:	d100      	bne.n	1000324c <tud_task_ext+0x1a0>
1000324a:	e740      	b.n	100030ce <tud_task_ext+0x22>
1000324c:	68f8      	ldr	r0, [r7, #12]
1000324e:	f000 fcdb 	bl	10003c08 <usbd_control_set_complete_callback>
10003252:	68fb      	ldr	r3, [r7, #12]
10003254:	aa0a      	add	r2, sp, #40	; 0x28
10003256:	2101      	movs	r1, #1
10003258:	4658      	mov	r0, fp
1000325a:	4798      	blx	r3
1000325c:	2000      	movs	r0, #0
1000325e:	f000 fcd3 	bl	10003c08 <usbd_control_set_complete_callback>
10003262:	2334      	movs	r3, #52	; 0x34
10003264:	5ceb      	ldrb	r3, [r5, r3]
10003266:	07db      	lsls	r3, r3, #31
10003268:	d500      	bpl.n	1000326c <tud_task_ext+0x1c0>
1000326a:	e730      	b.n	100030ce <tud_task_ext+0x22>
1000326c:	a90a      	add	r1, sp, #40	; 0x28
1000326e:	4658      	mov	r0, fp
10003270:	f000 fc4e 	bl	10003b10 <tud_control_status>
10003274:	e72b      	b.n	100030ce <tud_task_ext+0x22>
10003276:	4f62      	ldr	r7, [pc, #392]	; (10003400 <tud_task_ext+0x354>)
10003278:	783b      	ldrb	r3, [r7, #0]
1000327a:	07db      	lsls	r3, r3, #31
1000327c:	d400      	bmi.n	10003280 <tud_task_ext+0x1d4>
1000327e:	e726      	b.n	100030ce <tud_task_ext+0x22>
10003280:	4b65      	ldr	r3, [pc, #404]	; (10003418 <tud_task_ext+0x36c>)
10003282:	2b00      	cmp	r3, #0
10003284:	d100      	bne.n	10003288 <tud_task_ext+0x1dc>
10003286:	e722      	b.n	100030ce <tud_task_ext+0x22>
10003288:	e000      	b.n	1000328c <tud_task_ext+0x1e0>
1000328a:	bf00      	nop
1000328c:	e71f      	b.n	100030ce <tud_task_ext+0x22>
1000328e:	4f5c      	ldr	r7, [pc, #368]	; (10003400 <tud_task_ext+0x354>)
10003290:	783b      	ldrb	r3, [r7, #0]
10003292:	07db      	lsls	r3, r3, #31
10003294:	d400      	bmi.n	10003298 <tud_task_ext+0x1ec>
10003296:	e71a      	b.n	100030ce <tud_task_ext+0x22>
10003298:	4b60      	ldr	r3, [pc, #384]	; (1000341c <tud_task_ext+0x370>)
1000329a:	2b00      	cmp	r3, #0
1000329c:	d100      	bne.n	100032a0 <tud_task_ext+0x1f4>
1000329e:	e716      	b.n	100030ce <tud_task_ext+0x22>
100032a0:	7838      	ldrb	r0, [r7, #0]
100032a2:	0700      	lsls	r0, r0, #28
100032a4:	0fc0      	lsrs	r0, r0, #31
100032a6:	e000      	b.n	100032aa <tud_task_ext+0x1fe>
100032a8:	bf00      	nop
100032aa:	e710      	b.n	100030ce <tud_task_ext+0x22>
100032ac:	7823      	ldrb	r3, [r4, #0]
100032ae:	4a55      	ldr	r2, [pc, #340]	; (10003404 <tud_task_ext+0x358>)
100032b0:	4698      	mov	r8, r3
100032b2:	4b55      	ldr	r3, [pc, #340]	; (10003408 <tud_task_ext+0x35c>)
100032b4:	2700      	movs	r7, #0
100032b6:	4699      	mov	r9, r3
100032b8:	781b      	ldrb	r3, [r3, #0]
100032ba:	2a00      	cmp	r2, #0
100032bc:	d100      	bne.n	100032c0 <tud_task_ext+0x214>
100032be:	e08c      	b.n	100033da <tud_task_ext+0x32e>
100032c0:	4a57      	ldr	r2, [pc, #348]	; (10003420 <tud_task_ext+0x374>)
100032c2:	4693      	mov	fp, r2
100032c4:	429f      	cmp	r7, r3
100032c6:	d360      	bcc.n	1000338a <tud_task_ext+0x2de>
100032c8:	d119      	bne.n	100032fe <tud_task_ext+0x252>
100032ca:	4b56      	ldr	r3, [pc, #344]	; (10003424 <tud_task_ext+0x378>)
100032cc:	4640      	mov	r0, r8
100032ce:	4798      	blx	r3
100032d0:	464b      	mov	r3, r9
100032d2:	3701      	adds	r7, #1
100032d4:	781b      	ldrb	r3, [r3, #0]
100032d6:	b2ff      	uxtb	r7, r7
100032d8:	42bb      	cmp	r3, r7
100032da:	d2f3      	bcs.n	100032c4 <tud_task_ext+0x218>
100032dc:	4f48      	ldr	r7, [pc, #288]	; (10003400 <tud_task_ext+0x354>)
100032de:	2253      	movs	r2, #83	; 0x53
100032e0:	2100      	movs	r1, #0
100032e2:	0038      	movs	r0, r7
100032e4:	f7fe ffc0 	bl	10002268 <__wrap_memset>
100032e8:	2210      	movs	r2, #16
100032ea:	21ff      	movs	r1, #255	; 0xff
100032ec:	1cf8      	adds	r0, r7, #3
100032ee:	f7fe ffbb 	bl	10002268 <__wrap_memset>
100032f2:	0038      	movs	r0, r7
100032f4:	2220      	movs	r2, #32
100032f6:	3013      	adds	r0, #19
100032f8:	21ff      	movs	r1, #255	; 0xff
100032fa:	f7fe ffb5 	bl	10002268 <__wrap_memset>
100032fe:	f000 fc79 	bl	10003bf4 <usbd_control_reset>
10003302:	4b49      	ldr	r3, [pc, #292]	; (10003428 <tud_task_ext+0x37c>)
10003304:	2b00      	cmp	r3, #0
10003306:	d100      	bne.n	1000330a <tud_task_ext+0x25e>
10003308:	e6e1      	b.n	100030ce <tud_task_ext+0x22>
1000330a:	e000      	b.n	1000330e <tud_task_ext+0x262>
1000330c:	bf00      	nop
1000330e:	e6de      	b.n	100030ce <tud_task_ext+0x22>
10003310:	7823      	ldrb	r3, [r4, #0]
10003312:	4a3c      	ldr	r2, [pc, #240]	; (10003404 <tud_task_ext+0x358>)
10003314:	4698      	mov	r8, r3
10003316:	4b3c      	ldr	r3, [pc, #240]	; (10003408 <tud_task_ext+0x35c>)
10003318:	2700      	movs	r7, #0
1000331a:	4699      	mov	r9, r3
1000331c:	781b      	ldrb	r3, [r3, #0]
1000331e:	2a00      	cmp	r2, #0
10003320:	d01f      	beq.n	10003362 <tud_task_ext+0x2b6>
10003322:	4a3f      	ldr	r2, [pc, #252]	; (10003420 <tud_task_ext+0x374>)
10003324:	4693      	mov	fp, r2
10003326:	429f      	cmp	r7, r3
10003328:	d33a      	bcc.n	100033a0 <tud_task_ext+0x2f4>
1000332a:	d121      	bne.n	10003370 <tud_task_ext+0x2c4>
1000332c:	4b3d      	ldr	r3, [pc, #244]	; (10003424 <tud_task_ext+0x378>)
1000332e:	4640      	mov	r0, r8
10003330:	4798      	blx	r3
10003332:	464b      	mov	r3, r9
10003334:	3701      	adds	r7, #1
10003336:	781b      	ldrb	r3, [r3, #0]
10003338:	b2ff      	uxtb	r7, r7
1000333a:	42bb      	cmp	r3, r7
1000333c:	d2f3      	bcs.n	10003326 <tud_task_ext+0x27a>
1000333e:	4f30      	ldr	r7, [pc, #192]	; (10003400 <tud_task_ext+0x354>)
10003340:	2253      	movs	r2, #83	; 0x53
10003342:	2100      	movs	r1, #0
10003344:	0038      	movs	r0, r7
10003346:	f7fe ff8f 	bl	10002268 <__wrap_memset>
1000334a:	1cf8      	adds	r0, r7, #3
1000334c:	2210      	movs	r2, #16
1000334e:	21ff      	movs	r1, #255	; 0xff
10003350:	f7fe ff8a 	bl	10002268 <__wrap_memset>
10003354:	0038      	movs	r0, r7
10003356:	2220      	movs	r2, #32
10003358:	21ff      	movs	r1, #255	; 0xff
1000335a:	3013      	adds	r0, #19
1000335c:	f7fe ff84 	bl	10002268 <__wrap_memset>
10003360:	e007      	b.n	10003372 <tud_task_ext+0x2c6>
10003362:	4640      	mov	r0, r8
10003364:	f000 fdde 	bl	10003f24 <cdcd_reset>
10003368:	464b      	mov	r3, r9
1000336a:	781b      	ldrb	r3, [r3, #0]
1000336c:	2b00      	cmp	r3, #0
1000336e:	d0e6      	beq.n	1000333e <tud_task_ext+0x292>
10003370:	4f23      	ldr	r7, [pc, #140]	; (10003400 <tud_task_ext+0x354>)
10003372:	f000 fc3f 	bl	10003bf4 <usbd_control_reset>
10003376:	7923      	ldrb	r3, [r4, #4]
10003378:	70bb      	strb	r3, [r7, #2]
1000337a:	e6a8      	b.n	100030ce <tud_task_ext+0x22>
1000337c:	b00d      	add	sp, #52	; 0x34
1000337e:	bc3c      	pop	{r2, r3, r4, r5}
10003380:	4690      	mov	r8, r2
10003382:	4699      	mov	r9, r3
10003384:	46a2      	mov	sl, r4
10003386:	46ab      	mov	fp, r5
10003388:	bdf0      	pop	{r4, r5, r6, r7, pc}
1000338a:	465a      	mov	r2, fp
1000338c:	6812      	ldr	r2, [r2, #0]
1000338e:	007b      	lsls	r3, r7, #1
10003390:	4694      	mov	ip, r2
10003392:	19db      	adds	r3, r3, r7
10003394:	00db      	lsls	r3, r3, #3
10003396:	4463      	add	r3, ip
10003398:	2b00      	cmp	r3, #0
1000339a:	d0b0      	beq.n	100032fe <tud_task_ext+0x252>
1000339c:	685b      	ldr	r3, [r3, #4]
1000339e:	e795      	b.n	100032cc <tud_task_ext+0x220>
100033a0:	465a      	mov	r2, fp
100033a2:	6812      	ldr	r2, [r2, #0]
100033a4:	007b      	lsls	r3, r7, #1
100033a6:	4694      	mov	ip, r2
100033a8:	19db      	adds	r3, r3, r7
100033aa:	00db      	lsls	r3, r3, #3
100033ac:	4463      	add	r3, ip
100033ae:	2b00      	cmp	r3, #0
100033b0:	d0de      	beq.n	10003370 <tud_task_ext+0x2c4>
100033b2:	685b      	ldr	r3, [r3, #4]
100033b4:	e7bb      	b.n	1000332e <tud_task_ext+0x282>
100033b6:	4a1a      	ldr	r2, [pc, #104]	; (10003420 <tud_task_ext+0x374>)
100033b8:	005f      	lsls	r7, r3, #1
100033ba:	18fb      	adds	r3, r7, r3
100033bc:	6817      	ldr	r7, [r2, #0]
100033be:	00db      	lsls	r3, r3, #3
100033c0:	18ff      	adds	r7, r7, r3
100033c2:	2f00      	cmp	r7, #0
100033c4:	d000      	beq.n	100033c8 <tud_task_ext+0x31c>
100033c6:	e0b6      	b.n	10003536 <tud_task_ext+0x48a>
100033c8:	7820      	ldrb	r0, [r4, #0]
100033ca:	2100      	movs	r1, #0
100033cc:	f7ff fd62 	bl	10002e94 <dcd_edpt_stall>
100033d0:	7820      	ldrb	r0, [r4, #0]
100033d2:	2180      	movs	r1, #128	; 0x80
100033d4:	f7ff fd5e 	bl	10002e94 <dcd_edpt_stall>
100033d8:	e679      	b.n	100030ce <tud_task_ext+0x22>
100033da:	4640      	mov	r0, r8
100033dc:	f000 fda2 	bl	10003f24 <cdcd_reset>
100033e0:	464b      	mov	r3, r9
100033e2:	781b      	ldrb	r3, [r3, #0]
100033e4:	2b00      	cmp	r3, #0
100033e6:	d000      	beq.n	100033ea <tud_task_ext+0x33e>
100033e8:	e789      	b.n	100032fe <tud_task_ext+0x252>
100033ea:	e777      	b.n	100032dc <tud_task_ext+0x230>
100033ec:	7962      	ldrb	r2, [r4, #5]
100033ee:	7820      	ldrb	r0, [r4, #0]
100033f0:	68a3      	ldr	r3, [r4, #8]
100033f2:	f000 fc1d 	bl	10003c30 <usbd_control_xfer_cb>
100033f6:	e66a      	b.n	100030ce <tud_task_ext+0x22>
100033f8:	10004c40 	.word	0x10004c40
100033fc:	200013f4 	.word	0x200013f4
10003400:	2000139c 	.word	0x2000139c
10003404:	100025ed 	.word	0x100025ed
10003408:	20001a0d 	.word	0x20001a0d
1000340c:	10004115 	.word	0x10004115
10003410:	10004ccc 	.word	0x10004ccc
10003414:	20000f2c 	.word	0x20000f2c
	...
10003420:	20001074 	.word	0x20001074
10003424:	10003f25 	.word	0x10003f25
10003428:	00000000 	.word	0x00000000
1000342c:	48b1      	ldr	r0, [pc, #708]	; (100036f4 <tud_task_ext+0x648>)
1000342e:	2800      	cmp	r0, #0
10003430:	d0ca      	beq.n	100033c8 <tud_task_ext+0x31c>
10003432:	f000 fbe9 	bl	10003c08 <usbd_control_set_complete_callback>
10003436:	aa0a      	add	r2, sp, #40	; 0x28
10003438:	2101      	movs	r1, #1
1000343a:	4658      	mov	r0, fp
1000343c:	e000      	b.n	10003440 <tud_task_ext+0x394>
1000343e:	bf00      	nop
10003440:	2800      	cmp	r0, #0
10003442:	d000      	beq.n	10003446 <tud_task_ext+0x39a>
10003444:	e643      	b.n	100030ce <tud_task_ext+0x22>
10003446:	e7bf      	b.n	100033c8 <tud_task_ext+0x31c>
10003448:	2a20      	cmp	r2, #32
1000344a:	d046      	beq.n	100034da <tud_task_ext+0x42e>
1000344c:	2a00      	cmp	r2, #0
1000344e:	d1bb      	bne.n	100033c8 <tud_task_ext+0x31c>
10003450:	7963      	ldrb	r3, [r4, #5]
10003452:	2b09      	cmp	r3, #9
10003454:	d8b8      	bhi.n	100033c8 <tud_task_ext+0x31c>
10003456:	4aa8      	ldr	r2, [pc, #672]	; (100036f8 <tud_task_ext+0x64c>)
10003458:	009b      	lsls	r3, r3, #2
1000345a:	58d3      	ldr	r3, [r2, r3]
1000345c:	469f      	mov	pc, r3
1000345e:	005a      	lsls	r2, r3, #1
10003460:	18d3      	adds	r3, r2, r3
10003462:	4aa6      	ldr	r2, [pc, #664]	; (100036fc <tud_task_ext+0x650>)
10003464:	00db      	lsls	r3, r3, #3
10003466:	6812      	ldr	r2, [r2, #0]
10003468:	18d3      	adds	r3, r2, r3
1000346a:	2b00      	cmp	r3, #0
1000346c:	d100      	bne.n	10003470 <tud_task_ext+0x3c4>
1000346e:	e785      	b.n	1000337c <tud_task_ext+0x2d0>
10003470:	691f      	ldr	r7, [r3, #16]
10003472:	e679      	b.n	10003168 <tud_task_ext+0xbc>
10003474:	7a23      	ldrb	r3, [r4, #8]
10003476:	2b0f      	cmp	r3, #15
10003478:	d8a6      	bhi.n	100033c8 <tud_task_ext+0x31c>
1000347a:	4aa1      	ldr	r2, [pc, #644]	; (10003700 <tud_task_ext+0x654>)
1000347c:	18eb      	adds	r3, r5, r3
1000347e:	78db      	ldrb	r3, [r3, #3]
10003480:	2a00      	cmp	r2, #0
10003482:	d005      	beq.n	10003490 <tud_task_ext+0x3e4>
10003484:	4a9f      	ldr	r2, [pc, #636]	; (10003704 <tud_task_ext+0x658>)
10003486:	7812      	ldrb	r2, [r2, #0]
10003488:	4293      	cmp	r3, r2
1000348a:	d356      	bcc.n	1000353a <tud_task_ext+0x48e>
1000348c:	1a9b      	subs	r3, r3, r2
1000348e:	b2db      	uxtb	r3, r3
10003490:	2b00      	cmp	r3, #0
10003492:	d199      	bne.n	100033c8 <tud_task_ext+0x31c>
10003494:	489c      	ldr	r0, [pc, #624]	; (10003708 <tud_task_ext+0x65c>)
10003496:	4f9d      	ldr	r7, [pc, #628]	; (1000370c <tud_task_ext+0x660>)
10003498:	f000 fbb6 	bl	10003c08 <usbd_control_set_complete_callback>
1000349c:	68fb      	ldr	r3, [r7, #12]
1000349e:	aa0a      	add	r2, sp, #40	; 0x28
100034a0:	2101      	movs	r1, #1
100034a2:	4658      	mov	r0, fp
100034a4:	4798      	blx	r3
100034a6:	2800      	cmp	r0, #0
100034a8:	d000      	beq.n	100034ac <tud_task_ext+0x400>
100034aa:	e610      	b.n	100030ce <tud_task_ext+0x22>
100034ac:	2760      	movs	r7, #96	; 0x60
100034ae:	7923      	ldrb	r3, [r4, #4]
100034b0:	401f      	ands	r7, r3
100034b2:	d189      	bne.n	100033c8 <tud_task_ext+0x31c>
100034b4:	7963      	ldrb	r3, [r4, #5]
100034b6:	3b0a      	subs	r3, #10
100034b8:	2b01      	cmp	r3, #1
100034ba:	d885      	bhi.n	100033c8 <tud_task_ext+0x31c>
100034bc:	f000 fba4 	bl	10003c08 <usbd_control_set_complete_callback>
100034c0:	7963      	ldrb	r3, [r4, #5]
100034c2:	2b0a      	cmp	r3, #10
100034c4:	d000      	beq.n	100034c8 <tud_task_ext+0x41c>
100034c6:	e6d1      	b.n	1000326c <tud_task_ext+0x1c0>
100034c8:	ab08      	add	r3, sp, #32
100034ca:	1c9a      	adds	r2, r3, #2
100034cc:	a90a      	add	r1, sp, #40	; 0x28
100034ce:	2301      	movs	r3, #1
100034d0:	4658      	mov	r0, fp
100034d2:	7017      	strb	r7, [r2, #0]
100034d4:	f000 fb34 	bl	10003b40 <tud_control_xfer>
100034d8:	e5f9      	b.n	100030ce <tud_task_ext+0x22>
100034da:	7a23      	ldrb	r3, [r4, #8]
100034dc:	2b0f      	cmp	r3, #15
100034de:	d900      	bls.n	100034e2 <tud_task_ext+0x436>
100034e0:	e772      	b.n	100033c8 <tud_task_ext+0x31c>
100034e2:	4a87      	ldr	r2, [pc, #540]	; (10003700 <tud_task_ext+0x654>)
100034e4:	18eb      	adds	r3, r5, r3
100034e6:	78db      	ldrb	r3, [r3, #3]
100034e8:	2a00      	cmp	r2, #0
100034ea:	d006      	beq.n	100034fa <tud_task_ext+0x44e>
100034ec:	4a85      	ldr	r2, [pc, #532]	; (10003704 <tud_task_ext+0x658>)
100034ee:	7812      	ldrb	r2, [r2, #0]
100034f0:	4293      	cmp	r3, r2
100034f2:	d200      	bcs.n	100034f6 <tud_task_ext+0x44a>
100034f4:	e75f      	b.n	100033b6 <tud_task_ext+0x30a>
100034f6:	1a9b      	subs	r3, r3, r2
100034f8:	b2db      	uxtb	r3, r3
100034fa:	2b00      	cmp	r3, #0
100034fc:	d000      	beq.n	10003500 <tud_task_ext+0x454>
100034fe:	e763      	b.n	100033c8 <tud_task_ext+0x31c>
10003500:	4881      	ldr	r0, [pc, #516]	; (10003708 <tud_task_ext+0x65c>)
10003502:	4f82      	ldr	r7, [pc, #520]	; (1000370c <tud_task_ext+0x660>)
10003504:	f000 fb80 	bl	10003c08 <usbd_control_set_complete_callback>
10003508:	68fb      	ldr	r3, [r7, #12]
1000350a:	aa0a      	add	r2, sp, #40	; 0x28
1000350c:	2101      	movs	r1, #1
1000350e:	4658      	mov	r0, fp
10003510:	4798      	blx	r3
10003512:	e795      	b.n	10003440 <tud_task_ext+0x394>
10003514:	2700      	movs	r7, #0
10003516:	2a00      	cmp	r2, #0
10003518:	d100      	bne.n	1000351c <tud_task_ext+0x470>
1000351a:	e677      	b.n	1000320c <tud_task_ext+0x160>
1000351c:	e754      	b.n	100033c8 <tud_task_ext+0x31c>
1000351e:	0047      	lsls	r7, r0, #1
10003520:	1838      	adds	r0, r7, r0
10003522:	4f76      	ldr	r7, [pc, #472]	; (100036fc <tud_task_ext+0x650>)
10003524:	00c0      	lsls	r0, r0, #3
10003526:	683f      	ldr	r7, [r7, #0]
10003528:	183f      	adds	r7, r7, r0
1000352a:	2a00      	cmp	r2, #0
1000352c:	d100      	bne.n	10003530 <tud_task_ext+0x484>
1000352e:	e66d      	b.n	1000320c <tud_task_ext+0x160>
10003530:	2f00      	cmp	r7, #0
10003532:	d100      	bne.n	10003536 <tud_task_ext+0x48a>
10003534:	e748      	b.n	100033c8 <tud_task_ext+0x31c>
10003536:	68f8      	ldr	r0, [r7, #12]
10003538:	e7e4      	b.n	10003504 <tud_task_ext+0x458>
1000353a:	4a70      	ldr	r2, [pc, #448]	; (100036fc <tud_task_ext+0x650>)
1000353c:	005f      	lsls	r7, r3, #1
1000353e:	18fb      	adds	r3, r7, r3
10003540:	6817      	ldr	r7, [r2, #0]
10003542:	00db      	lsls	r3, r3, #3
10003544:	18ff      	adds	r7, r7, r3
10003546:	2f00      	cmp	r7, #0
10003548:	d100      	bne.n	1000354c <tud_task_ext+0x4a0>
1000354a:	e73d      	b.n	100033c8 <tud_task_ext+0x31c>
1000354c:	68f8      	ldr	r0, [r7, #12]
1000354e:	e7a3      	b.n	10003498 <tud_task_ext+0x3ec>
10003550:	786b      	ldrb	r3, [r5, #1]
10003552:	aa08      	add	r2, sp, #32
10003554:	3202      	adds	r2, #2
10003556:	7013      	strb	r3, [r2, #0]
10003558:	a90a      	add	r1, sp, #40	; 0x28
1000355a:	2301      	movs	r3, #1
1000355c:	4658      	mov	r0, fp
1000355e:	f000 faef 	bl	10003b40 <tud_control_xfer>
10003562:	e5b4      	b.n	100030ce <tud_task_ext+0x22>
10003564:	88e0      	ldrh	r0, [r4, #6]
10003566:	0a03      	lsrs	r3, r0, #8
10003568:	b2c0      	uxtb	r0, r0
1000356a:	2b0f      	cmp	r3, #15
1000356c:	d900      	bls.n	10003570 <tud_task_ext+0x4c4>
1000356e:	e72b      	b.n	100033c8 <tud_task_ext+0x31c>
10003570:	4967      	ldr	r1, [pc, #412]	; (10003710 <tud_task_ext+0x664>)
10003572:	009a      	lsls	r2, r3, #2
10003574:	588a      	ldr	r2, [r1, r2]
10003576:	4697      	mov	pc, r2
10003578:	a80a      	add	r0, sp, #40	; 0x28
1000357a:	f000 fb4b 	bl	10003c14 <usbd_control_set_request>
1000357e:	79a1      	ldrb	r1, [r4, #6]
10003580:	4658      	mov	r0, fp
10003582:	f7ff fb83 	bl	10002c8c <dcd_set_address>
10003586:	2202      	movs	r2, #2
10003588:	782b      	ldrb	r3, [r5, #0]
1000358a:	4313      	orrs	r3, r2
1000358c:	702b      	strb	r3, [r5, #0]
1000358e:	e59e      	b.n	100030ce <tud_task_ext+0x22>
10003590:	88e3      	ldrh	r3, [r4, #6]
10003592:	2b01      	cmp	r3, #1
10003594:	d000      	beq.n	10003598 <tud_task_ext+0x4ec>
10003596:	e717      	b.n	100033c8 <tud_task_ext+0x31c>
10003598:	2208      	movs	r2, #8
1000359a:	782b      	ldrb	r3, [r5, #0]
1000359c:	a90a      	add	r1, sp, #40	; 0x28
1000359e:	4313      	orrs	r3, r2
100035a0:	4658      	mov	r0, fp
100035a2:	702b      	strb	r3, [r5, #0]
100035a4:	f000 fab4 	bl	10003b10 <tud_control_status>
100035a8:	e591      	b.n	100030ce <tud_task_ext+0x22>
100035aa:	88e3      	ldrh	r3, [r4, #6]
100035ac:	2b01      	cmp	r3, #1
100035ae:	d000      	beq.n	100035b2 <tud_task_ext+0x506>
100035b0:	e70a      	b.n	100033c8 <tud_task_ext+0x31c>
100035b2:	2208      	movs	r2, #8
100035b4:	782b      	ldrb	r3, [r5, #0]
100035b6:	a90a      	add	r1, sp, #40	; 0x28
100035b8:	4393      	bics	r3, r2
100035ba:	4658      	mov	r0, fp
100035bc:	702b      	strb	r3, [r5, #0]
100035be:	f000 faa7 	bl	10003b10 <tud_control_status>
100035c2:	e584      	b.n	100030ce <tud_task_ext+0x22>
100035c4:	2002      	movs	r0, #2
100035c6:	7829      	ldrb	r1, [r5, #0]
100035c8:	ab08      	add	r3, sp, #32
100035ca:	1c9a      	adds	r2, r3, #2
100035cc:	068b      	lsls	r3, r1, #26
100035ce:	0889      	lsrs	r1, r1, #2
100035d0:	0fdb      	lsrs	r3, r3, #31
100035d2:	4001      	ands	r1, r0
100035d4:	430b      	orrs	r3, r1
100035d6:	8013      	strh	r3, [r2, #0]
100035d8:	a90a      	add	r1, sp, #40	; 0x28
100035da:	2302      	movs	r3, #2
100035dc:	4658      	mov	r0, fp
100035de:	f000 faaf 	bl	10003b40 <tud_control_xfer>
100035e2:	e574      	b.n	100030ce <tud_task_ext+0x22>
100035e4:	79a3      	ldrb	r3, [r4, #6]
100035e6:	9302      	str	r3, [sp, #8]
100035e8:	001a      	movs	r2, r3
100035ea:	786b      	ldrb	r3, [r5, #1]
100035ec:	429a      	cmp	r2, r3
100035ee:	d007      	beq.n	10003600 <tud_task_ext+0x554>
100035f0:	786b      	ldrb	r3, [r5, #1]
100035f2:	2b00      	cmp	r3, #0
100035f4:	d000      	beq.n	100035f8 <tud_task_ext+0x54c>
100035f6:	e0f6      	b.n	100037e6 <tud_task_ext+0x73a>
100035f8:	9b02      	ldr	r3, [sp, #8]
100035fa:	2b00      	cmp	r3, #0
100035fc:	d000      	beq.n	10003600 <tud_task_ext+0x554>
100035fe:	e08f      	b.n	10003720 <tud_task_ext+0x674>
10003600:	9b02      	ldr	r3, [sp, #8]
10003602:	a90a      	add	r1, sp, #40	; 0x28
10003604:	4658      	mov	r0, fp
10003606:	706b      	strb	r3, [r5, #1]
10003608:	f000 fa82 	bl	10003b10 <tud_control_status>
1000360c:	e55f      	b.n	100030ce <tud_task_ext+0x22>
1000360e:	4b41      	ldr	r3, [pc, #260]	; (10003714 <tud_task_ext+0x668>)
10003610:	2b00      	cmp	r3, #0
10003612:	d100      	bne.n	10003616 <tud_task_ext+0x56a>
10003614:	e6d8      	b.n	100033c8 <tud_task_ext+0x31c>
10003616:	e000      	b.n	1000361a <tud_task_ext+0x56e>
10003618:	bf00      	nop
1000361a:	1e02      	subs	r2, r0, #0
1000361c:	d100      	bne.n	10003620 <tud_task_ext+0x574>
1000361e:	e6d3      	b.n	100033c8 <tud_task_ext+0x31c>
10003620:	78c3      	ldrb	r3, [r0, #3]
10003622:	7881      	ldrb	r1, [r0, #2]
10003624:	021b      	lsls	r3, r3, #8
10003626:	430b      	orrs	r3, r1
10003628:	4658      	mov	r0, fp
1000362a:	a90a      	add	r1, sp, #40	; 0x28
1000362c:	f000 fa88 	bl	10003b40 <tud_control_xfer>
10003630:	e706      	b.n	10003440 <tud_task_ext+0x394>
10003632:	4b39      	ldr	r3, [pc, #228]	; (10003718 <tud_task_ext+0x66c>)
10003634:	2b00      	cmp	r3, #0
10003636:	d100      	bne.n	1000363a <tud_task_ext+0x58e>
10003638:	e6c6      	b.n	100033c8 <tud_task_ext+0x31c>
1000363a:	e000      	b.n	1000363e <tud_task_ext+0x592>
1000363c:	bf00      	nop
1000363e:	1e02      	subs	r2, r0, #0
10003640:	d100      	bne.n	10003644 <tud_task_ext+0x598>
10003642:	e6c1      	b.n	100033c8 <tud_task_ext+0x31c>
10003644:	7813      	ldrb	r3, [r2, #0]
10003646:	a90a      	add	r1, sp, #40	; 0x28
10003648:	4658      	mov	r0, fp
1000364a:	f000 fa79 	bl	10003b40 <tud_control_xfer>
1000364e:	e6f7      	b.n	10003440 <tud_task_ext+0x394>
10003650:	8921      	ldrh	r1, [r4, #8]
10003652:	f7ff f9d1 	bl	100029f8 <tud_descriptor_string_cb>
10003656:	1e02      	subs	r2, r0, #0
10003658:	d1f4      	bne.n	10003644 <tud_task_ext+0x598>
1000365a:	e6b5      	b.n	100033c8 <tud_task_ext+0x31c>
1000365c:	2b02      	cmp	r3, #2
1000365e:	d100      	bne.n	10003662 <tud_task_ext+0x5b6>
10003660:	e0ff      	b.n	10003862 <tud_task_ext+0x7b6>
10003662:	4b2e      	ldr	r3, [pc, #184]	; (1000371c <tud_task_ext+0x670>)
10003664:	2b00      	cmp	r3, #0
10003666:	d100      	bne.n	1000366a <tud_task_ext+0x5be>
10003668:	e6ae      	b.n	100033c8 <tud_task_ext+0x31c>
1000366a:	e000      	b.n	1000366e <tud_task_ext+0x5c2>
1000366c:	bf00      	nop
1000366e:	2800      	cmp	r0, #0
10003670:	d100      	bne.n	10003674 <tud_task_ext+0x5c8>
10003672:	e6a9      	b.n	100033c8 <tud_task_ext+0x31c>
10003674:	78c3      	ldrb	r3, [r0, #3]
10003676:	7882      	ldrb	r2, [r0, #2]
10003678:	021b      	lsls	r3, r3, #8
1000367a:	4313      	orrs	r3, r2
1000367c:	a90a      	add	r1, sp, #40	; 0x28
1000367e:	0002      	movs	r2, r0
10003680:	4658      	mov	r0, fp
10003682:	f000 fa5d 	bl	10003b40 <tud_control_xfer>
10003686:	e6db      	b.n	10003440 <tud_task_ext+0x394>
10003688:	f7ff f9ae 	bl	100029e8 <tud_descriptor_device_cb>
1000368c:	2312      	movs	r3, #18
1000368e:	0002      	movs	r2, r0
10003690:	a90a      	add	r1, sp, #40	; 0x28
10003692:	4658      	mov	r0, fp
10003694:	f000 fa54 	bl	10003b40 <tud_control_xfer>
10003698:	e6d2      	b.n	10003440 <tud_task_ext+0x394>
1000369a:	18eb      	adds	r3, r5, r3
1000369c:	4463      	add	r3, ip
1000369e:	3330      	adds	r3, #48	; 0x30
100036a0:	78db      	ldrb	r3, [r3, #3]
100036a2:	aa08      	add	r2, sp, #32
100036a4:	079b      	lsls	r3, r3, #30
100036a6:	0fdb      	lsrs	r3, r3, #31
100036a8:	3202      	adds	r2, #2
100036aa:	e794      	b.n	100035d6 <tud_task_ext+0x52a>
100036ac:	322f      	adds	r2, #47	; 0x2f
100036ae:	4691      	mov	r9, r2
100036b0:	4499      	add	r9, r3
100036b2:	464b      	mov	r3, r9
100036b4:	78db      	ldrb	r3, [r3, #3]
100036b6:	079b      	lsls	r3, r3, #30
100036b8:	d400      	bmi.n	100036bc <tud_task_ext+0x610>
100036ba:	e5c4      	b.n	10003246 <tud_task_ext+0x19a>
100036bc:	f7ff fc04 	bl	10002ec8 <dcd_edpt_clear_stall>
100036c0:	464b      	mov	r3, r9
100036c2:	2202      	movs	r2, #2
100036c4:	78db      	ldrb	r3, [r3, #3]
100036c6:	4393      	bics	r3, r2
100036c8:	464a      	mov	r2, r9
100036ca:	70d3      	strb	r3, [r2, #3]
100036cc:	78d3      	ldrb	r3, [r2, #3]
100036ce:	4642      	mov	r2, r8
100036d0:	4393      	bics	r3, r2
100036d2:	464a      	mov	r2, r9
100036d4:	70d3      	strb	r3, [r2, #3]
100036d6:	e5b6      	b.n	10003246 <tud_task_ext+0x19a>
100036d8:	f7ff fbdc 	bl	10002e94 <dcd_edpt_stall>
100036dc:	4643      	mov	r3, r8
100036de:	2202      	movs	r2, #2
100036e0:	78db      	ldrb	r3, [r3, #3]
100036e2:	4313      	orrs	r3, r2
100036e4:	4642      	mov	r2, r8
100036e6:	70d3      	strb	r3, [r2, #3]
100036e8:	78d3      	ldrb	r3, [r2, #3]
100036ea:	2201      	movs	r2, #1
100036ec:	4313      	orrs	r3, r2
100036ee:	4642      	mov	r2, r8
100036f0:	70d3      	strb	r3, [r2, #3]
100036f2:	e5a8      	b.n	10003246 <tud_task_ext+0x19a>
100036f4:	00000000 	.word	0x00000000
100036f8:	10004c64 	.word	0x10004c64
100036fc:	20001074 	.word	0x20001074
10003700:	100025ed 	.word	0x100025ed
10003704:	20001a0d 	.word	0x20001a0d
10003708:	10004039 	.word	0x10004039
1000370c:	10004ccc 	.word	0x10004ccc
10003710:	10004c8c 	.word	0x10004c8c
	...
10003720:	1e58      	subs	r0, r3, #1
10003722:	b2c0      	uxtb	r0, r0
10003724:	f7ff f964 	bl	100029f0 <tud_descriptor_configuration_cb>
10003728:	2800      	cmp	r0, #0
1000372a:	d100      	bne.n	1000372e <tud_task_ext+0x682>
1000372c:	e64c      	b.n	100033c8 <tud_task_ext+0x31c>
1000372e:	7843      	ldrb	r3, [r0, #1]
10003730:	9306      	str	r3, [sp, #24]
10003732:	2b02      	cmp	r3, #2
10003734:	d000      	beq.n	10003738 <tud_task_ext+0x68c>
10003736:	e647      	b.n	100033c8 <tud_task_ext+0x31c>
10003738:	2201      	movs	r2, #1
1000373a:	79c1      	ldrb	r1, [r0, #7]
1000373c:	114b      	asrs	r3, r1, #5
1000373e:	4013      	ands	r3, r2
10003740:	011b      	lsls	r3, r3, #4
10003742:	4699      	mov	r9, r3
10003744:	782b      	ldrb	r3, [r5, #0]
10003746:	1189      	asrs	r1, r1, #6
10003748:	4698      	mov	r8, r3
1000374a:	2310      	movs	r3, #16
1000374c:	4647      	mov	r7, r8
1000374e:	439f      	bics	r7, r3
10003750:	003b      	movs	r3, r7
10003752:	464f      	mov	r7, r9
10003754:	433b      	orrs	r3, r7
10003756:	2720      	movs	r7, #32
10003758:	4011      	ands	r1, r2
1000375a:	0149      	lsls	r1, r1, #5
1000375c:	43bb      	bics	r3, r7
1000375e:	430b      	orrs	r3, r1
10003760:	702b      	strb	r3, [r5, #0]
10003762:	2309      	movs	r3, #9
10003764:	4698      	mov	r8, r3
10003766:	78c3      	ldrb	r3, [r0, #3]
10003768:	7881      	ldrb	r1, [r0, #2]
1000376a:	021b      	lsls	r3, r3, #8
1000376c:	430b      	orrs	r3, r1
1000376e:	4480      	add	r8, r0
10003770:	18c3      	adds	r3, r0, r3
10003772:	9304      	str	r3, [sp, #16]
10003774:	9207      	str	r2, [sp, #28]
10003776:	46d9      	mov	r9, fp
10003778:	4647      	mov	r7, r8
1000377a:	4598      	cmp	r8, r3
1000377c:	d300      	bcc.n	10003780 <tud_task_ext+0x6d4>
1000377e:	e0b7      	b.n	100038f0 <tud_task_ext+0x844>
10003780:	9a07      	ldr	r2, [sp, #28]
10003782:	787b      	ldrb	r3, [r7, #1]
10003784:	9201      	str	r2, [sp, #4]
10003786:	2b0b      	cmp	r3, #11
10003788:	d103      	bne.n	10003792 <tud_task_ext+0x6e6>
1000378a:	78fb      	ldrb	r3, [r7, #3]
1000378c:	9301      	str	r3, [sp, #4]
1000378e:	783b      	ldrb	r3, [r7, #0]
10003790:	18ff      	adds	r7, r7, r3
10003792:	787b      	ldrb	r3, [r7, #1]
10003794:	2b04      	cmp	r3, #4
10003796:	d000      	beq.n	1000379a <tud_task_ext+0x6ee>
10003798:	e616      	b.n	100033c8 <tud_task_ext+0x31c>
1000379a:	2100      	movs	r1, #0
1000379c:	9b04      	ldr	r3, [sp, #16]
1000379e:	4a5e      	ldr	r2, [pc, #376]	; (10003918 <tud_task_ext+0x86c>)
100037a0:	1bdb      	subs	r3, r3, r7
100037a2:	b29b      	uxth	r3, r3
100037a4:	9303      	str	r3, [sp, #12]
100037a6:	4b5d      	ldr	r3, [pc, #372]	; (1000391c <tud_task_ext+0x870>)
100037a8:	4688      	mov	r8, r1
100037aa:	9305      	str	r3, [sp, #20]
100037ac:	781b      	ldrb	r3, [r3, #0]
100037ae:	428a      	cmp	r2, r1
100037b0:	d066      	beq.n	10003880 <tud_task_ext+0x7d4>
100037b2:	46b8      	mov	r8, r7
100037b4:	000f      	movs	r7, r1
100037b6:	429f      	cmp	r7, r3
100037b8:	d356      	bcc.n	10003868 <tud_task_ext+0x7bc>
100037ba:	d000      	beq.n	100037be <tud_task_ext+0x712>
100037bc:	e604      	b.n	100033c8 <tud_task_ext+0x31c>
100037be:	4a58      	ldr	r2, [pc, #352]	; (10003920 <tud_task_ext+0x874>)
100037c0:	4b58      	ldr	r3, [pc, #352]	; (10003924 <tud_task_ext+0x878>)
100037c2:	4693      	mov	fp, r2
100037c4:	9a03      	ldr	r2, [sp, #12]
100037c6:	4641      	mov	r1, r8
100037c8:	4648      	mov	r0, r9
100037ca:	4798      	blx	r3
100037cc:	2808      	cmp	r0, #8
100037ce:	d903      	bls.n	100037d8 <tud_task_ext+0x72c>
100037d0:	9b03      	ldr	r3, [sp, #12]
100037d2:	4283      	cmp	r3, r0
100037d4:	d300      	bcc.n	100037d8 <tud_task_ext+0x72c>
100037d6:	e092      	b.n	100038fe <tud_task_ext+0x852>
100037d8:	9b05      	ldr	r3, [sp, #20]
100037da:	3701      	adds	r7, #1
100037dc:	781b      	ldrb	r3, [r3, #0]
100037de:	b2ff      	uxtb	r7, r7
100037e0:	42bb      	cmp	r3, r7
100037e2:	d2e8      	bcs.n	100037b6 <tud_task_ext+0x70a>
100037e4:	e5f0      	b.n	100033c8 <tud_task_ext+0x31c>
100037e6:	4658      	mov	r0, fp
100037e8:	f7ff fb3e 	bl	10002e68 <dcd_edpt_close_all>
100037ec:	78ab      	ldrb	r3, [r5, #2]
100037ee:	4a4a      	ldr	r2, [pc, #296]	; (10003918 <tud_task_ext+0x86c>)
100037f0:	9301      	str	r3, [sp, #4]
100037f2:	4b4a      	ldr	r3, [pc, #296]	; (1000391c <tud_task_ext+0x870>)
100037f4:	2700      	movs	r7, #0
100037f6:	4699      	mov	r9, r3
100037f8:	781b      	ldrb	r3, [r3, #0]
100037fa:	2a00      	cmp	r2, #0
100037fc:	d00e      	beq.n	1000381c <tud_task_ext+0x770>
100037fe:	4a4a      	ldr	r2, [pc, #296]	; (10003928 <tud_task_ext+0x87c>)
10003800:	4690      	mov	r8, r2
10003802:	429f      	cmp	r7, r3
10003804:	d323      	bcc.n	1000384e <tud_task_ext+0x7a2>
10003806:	d11f      	bne.n	10003848 <tud_task_ext+0x79c>
10003808:	4b48      	ldr	r3, [pc, #288]	; (1000392c <tud_task_ext+0x880>)
1000380a:	4658      	mov	r0, fp
1000380c:	4798      	blx	r3
1000380e:	464b      	mov	r3, r9
10003810:	3701      	adds	r7, #1
10003812:	781b      	ldrb	r3, [r3, #0]
10003814:	b2ff      	uxtb	r7, r7
10003816:	42bb      	cmp	r3, r7
10003818:	d2f3      	bcs.n	10003802 <tud_task_ext+0x756>
1000381a:	e006      	b.n	1000382a <tud_task_ext+0x77e>
1000381c:	4658      	mov	r0, fp
1000381e:	f000 fb81 	bl	10003f24 <cdcd_reset>
10003822:	464b      	mov	r3, r9
10003824:	781b      	ldrb	r3, [r3, #0]
10003826:	2b00      	cmp	r3, #0
10003828:	d10e      	bne.n	10003848 <tud_task_ext+0x79c>
1000382a:	2253      	movs	r2, #83	; 0x53
1000382c:	2100      	movs	r1, #0
1000382e:	0028      	movs	r0, r5
10003830:	f7fe fd1a 	bl	10002268 <__wrap_memset>
10003834:	2210      	movs	r2, #16
10003836:	21ff      	movs	r1, #255	; 0xff
10003838:	1ce8      	adds	r0, r5, #3
1000383a:	f7fe fd15 	bl	10002268 <__wrap_memset>
1000383e:	2220      	movs	r2, #32
10003840:	21ff      	movs	r1, #255	; 0xff
10003842:	483b      	ldr	r0, [pc, #236]	; (10003930 <tud_task_ext+0x884>)
10003844:	f7fe fd10 	bl	10002268 <__wrap_memset>
10003848:	9b01      	ldr	r3, [sp, #4]
1000384a:	70ab      	strb	r3, [r5, #2]
1000384c:	e6d4      	b.n	100035f8 <tud_task_ext+0x54c>
1000384e:	4642      	mov	r2, r8
10003850:	2318      	movs	r3, #24
10003852:	6812      	ldr	r2, [r2, #0]
10003854:	437b      	muls	r3, r7
10003856:	4694      	mov	ip, r2
10003858:	4463      	add	r3, ip
1000385a:	2b00      	cmp	r3, #0
1000385c:	d0f4      	beq.n	10003848 <tud_task_ext+0x79c>
1000385e:	685b      	ldr	r3, [r3, #4]
10003860:	e7d3      	b.n	1000380a <tud_task_ext+0x75e>
10003862:	f7ff f8c5 	bl	100029f0 <tud_descriptor_configuration_cb>
10003866:	e702      	b.n	1000366e <tud_task_ext+0x5c2>
10003868:	4b2f      	ldr	r3, [pc, #188]	; (10003928 <tud_task_ext+0x87c>)
1000386a:	681a      	ldr	r2, [r3, #0]
1000386c:	2318      	movs	r3, #24
1000386e:	4693      	mov	fp, r2
10003870:	437b      	muls	r3, r7
10003872:	449b      	add	fp, r3
10003874:	465b      	mov	r3, fp
10003876:	2b00      	cmp	r3, #0
10003878:	d100      	bne.n	1000387c <tud_task_ext+0x7d0>
1000387a:	e5a5      	b.n	100033c8 <tud_task_ext+0x31c>
1000387c:	689b      	ldr	r3, [r3, #8]
1000387e:	e7a1      	b.n	100037c4 <tud_task_ext+0x718>
10003880:	9b03      	ldr	r3, [sp, #12]
10003882:	0039      	movs	r1, r7
10003884:	001a      	movs	r2, r3
10003886:	4648      	mov	r0, r9
10003888:	469b      	mov	fp, r3
1000388a:	f000 fb61 	bl	10003f50 <cdcd_open>
1000388e:	4684      	mov	ip, r0
10003890:	2808      	cmp	r0, #8
10003892:	d800      	bhi.n	10003896 <tud_task_ext+0x7ea>
10003894:	e598      	b.n	100033c8 <tud_task_ext+0x31c>
10003896:	465a      	mov	r2, fp
10003898:	4282      	cmp	r2, r0
1000389a:	d200      	bcs.n	1000389e <tud_task_ext+0x7f2>
1000389c:	e594      	b.n	100033c8 <tud_task_ext+0x31c>
1000389e:	4b20      	ldr	r3, [pc, #128]	; (10003920 <tud_task_ext+0x874>)
100038a0:	469b      	mov	fp, r3
100038a2:	9b01      	ldr	r3, [sp, #4]
100038a4:	2b01      	cmp	r3, #1
100038a6:	d02f      	beq.n	10003908 <tud_task_ext+0x85c>
100038a8:	2200      	movs	r2, #0
100038aa:	4640      	mov	r0, r8
100038ac:	e00a      	b.n	100038c4 <tud_task_ext+0x818>
100038ae:	78bb      	ldrb	r3, [r7, #2]
100038b0:	18d3      	adds	r3, r2, r3
100038b2:	b2db      	uxtb	r3, r3
100038b4:	18eb      	adds	r3, r5, r3
100038b6:	78d9      	ldrb	r1, [r3, #3]
100038b8:	29ff      	cmp	r1, #255	; 0xff
100038ba:	d000      	beq.n	100038be <tud_task_ext+0x812>
100038bc:	e584      	b.n	100033c8 <tud_task_ext+0x31c>
100038be:	3201      	adds	r2, #1
100038c0:	70d8      	strb	r0, [r3, #3]
100038c2:	b2d2      	uxtb	r2, r2
100038c4:	9b01      	ldr	r3, [sp, #4]
100038c6:	429a      	cmp	r2, r3
100038c8:	d1f1      	bne.n	100038ae <tud_task_ext+0x802>
100038ca:	46e3      	mov	fp, ip
100038cc:	4680      	mov	r8, r0
100038ce:	0003      	movs	r3, r0
100038d0:	0039      	movs	r1, r7
100038d2:	4662      	mov	r2, ip
100038d4:	4816      	ldr	r0, [pc, #88]	; (10003930 <tud_task_ext+0x884>)
100038d6:	f000 fd71 	bl	100043bc <tu_edpt_bind_driver>
100038da:	9b05      	ldr	r3, [sp, #20]
100038dc:	445f      	add	r7, fp
100038de:	781b      	ldrb	r3, [r3, #0]
100038e0:	4543      	cmp	r3, r8
100038e2:	d200      	bcs.n	100038e6 <tud_task_ext+0x83a>
100038e4:	e570      	b.n	100033c8 <tud_task_ext+0x31c>
100038e6:	9b04      	ldr	r3, [sp, #16]
100038e8:	42bb      	cmp	r3, r7
100038ea:	d900      	bls.n	100038ee <tud_task_ext+0x842>
100038ec:	e748      	b.n	10003780 <tud_task_ext+0x6d4>
100038ee:	46cb      	mov	fp, r9
100038f0:	4b10      	ldr	r3, [pc, #64]	; (10003934 <tud_task_ext+0x888>)
100038f2:	2b00      	cmp	r3, #0
100038f4:	d100      	bne.n	100038f8 <tud_task_ext+0x84c>
100038f6:	e683      	b.n	10003600 <tud_task_ext+0x554>
100038f8:	e000      	b.n	100038fc <tud_task_ext+0x850>
100038fa:	bf00      	nop
100038fc:	e680      	b.n	10003600 <tud_task_ext+0x554>
100038fe:	003b      	movs	r3, r7
10003900:	4684      	mov	ip, r0
10003902:	4647      	mov	r7, r8
10003904:	4698      	mov	r8, r3
10003906:	e7cc      	b.n	100038a2 <tud_task_ext+0x7f6>
10003908:	465a      	mov	r2, fp
1000390a:	4b06      	ldr	r3, [pc, #24]	; (10003924 <tud_task_ext+0x878>)
1000390c:	6892      	ldr	r2, [r2, #8]
1000390e:	429a      	cmp	r2, r3
10003910:	d1ca      	bne.n	100038a8 <tud_task_ext+0x7fc>
10003912:	9b06      	ldr	r3, [sp, #24]
10003914:	9301      	str	r3, [sp, #4]
10003916:	e7c7      	b.n	100038a8 <tud_task_ext+0x7fc>
10003918:	100025ed 	.word	0x100025ed
1000391c:	20001a0d 	.word	0x20001a0d
10003920:	10004ccc 	.word	0x10004ccc
10003924:	10003f51 	.word	0x10003f51
10003928:	20001074 	.word	0x20001074
1000392c:	10003f25 	.word	0x10003f25
10003930:	200013af 	.word	0x200013af
10003934:	00000000 	.word	0x00000000

10003938 <usbd_open_edpt_pair>:
10003938:	b5f8      	push	{r3, r4, r5, r6, r7, lr}
1000393a:	4657      	mov	r7, sl
1000393c:	464e      	mov	r6, r9
1000393e:	46de      	mov	lr, fp
10003940:	4645      	mov	r5, r8
10003942:	000c      	movs	r4, r1
10003944:	b5e0      	push	{r5, r6, r7, lr}
10003946:	0016      	movs	r6, r2
10003948:	001f      	movs	r7, r3
1000394a:	2a00      	cmp	r2, #0
1000394c:	d04b      	beq.n	100039e6 <usbd_open_edpt_pair+0xae>
1000394e:	784b      	ldrb	r3, [r1, #1]
10003950:	2b05      	cmp	r3, #5
10003952:	d108      	bne.n	10003966 <usbd_open_edpt_pair+0x2e>
10003954:	78cb      	ldrb	r3, [r1, #3]
10003956:	079b      	lsls	r3, r3, #30
10003958:	0f9b      	lsrs	r3, r3, #30
1000395a:	42bb      	cmp	r3, r7
1000395c:	d103      	bne.n	10003966 <usbd_open_edpt_pair+0x2e>
1000395e:	2270      	movs	r2, #112	; 0x70
10003960:	788b      	ldrb	r3, [r1, #2]
10003962:	421a      	tst	r2, r3
10003964:	d006      	beq.n	10003974 <usbd_open_edpt_pair+0x3c>
10003966:	2000      	movs	r0, #0
10003968:	bc3c      	pop	{r2, r3, r4, r5}
1000396a:	4690      	mov	r8, r2
1000396c:	4699      	mov	r9, r3
1000396e:	46a2      	mov	sl, r4
10003970:	46ab      	mov	fp, r5
10003972:	bdf8      	pop	{r3, r4, r5, r6, r7, pc}
10003974:	4b1d      	ldr	r3, [pc, #116]	; (100039ec <usbd_open_edpt_pair+0xb4>)
10003976:	2500      	movs	r5, #0
10003978:	469b      	mov	fp, r3
1000397a:	781b      	ldrb	r3, [r3, #0]
1000397c:	4699      	mov	r9, r3
1000397e:	4b1c      	ldr	r3, [pc, #112]	; (100039f0 <usbd_open_edpt_pair+0xb8>)
10003980:	469a      	mov	sl, r3
10003982:	2370      	movs	r3, #112	; 0x70
10003984:	4698      	mov	r8, r3
10003986:	e002      	b.n	1000398e <usbd_open_edpt_pair+0x56>
10003988:	465b      	mov	r3, fp
1000398a:	781b      	ldrb	r3, [r3, #0]
1000398c:	4699      	mov	r9, r3
1000398e:	4653      	mov	r3, sl
10003990:	0020      	movs	r0, r4
10003992:	7899      	ldrb	r1, [r3, #2]
10003994:	f000 fcd8 	bl	10004348 <tu_edpt_validate>
10003998:	2800      	cmp	r0, #0
1000399a:	d0e4      	beq.n	10003966 <usbd_open_edpt_pair+0x2e>
1000399c:	0021      	movs	r1, r4
1000399e:	4648      	mov	r0, r9
100039a0:	f7ff f9dc 	bl	10002d5c <dcd_edpt_open>
100039a4:	2800      	cmp	r0, #0
100039a6:	d0de      	beq.n	10003966 <usbd_open_edpt_pair+0x2e>
100039a8:	78a3      	ldrb	r3, [r4, #2]
100039aa:	09da      	lsrs	r2, r3, #7
100039ac:	2a01      	cmp	r2, #1
100039ae:	d013      	beq.n	100039d8 <usbd_open_edpt_pair+0xa0>
100039b0:	9a0a      	ldr	r2, [sp, #40]	; 0x28
100039b2:	3501      	adds	r5, #1
100039b4:	7013      	strb	r3, [r2, #0]
100039b6:	7823      	ldrb	r3, [r4, #0]
100039b8:	18e4      	adds	r4, r4, r3
100039ba:	42b5      	cmp	r5, r6
100039bc:	da13      	bge.n	100039e6 <usbd_open_edpt_pair+0xae>
100039be:	7863      	ldrb	r3, [r4, #1]
100039c0:	2b05      	cmp	r3, #5
100039c2:	d1d0      	bne.n	10003966 <usbd_open_edpt_pair+0x2e>
100039c4:	78e3      	ldrb	r3, [r4, #3]
100039c6:	079b      	lsls	r3, r3, #30
100039c8:	0f9b      	lsrs	r3, r3, #30
100039ca:	42bb      	cmp	r3, r7
100039cc:	d1cb      	bne.n	10003966 <usbd_open_edpt_pair+0x2e>
100039ce:	4642      	mov	r2, r8
100039d0:	78a3      	ldrb	r3, [r4, #2]
100039d2:	421a      	tst	r2, r3
100039d4:	d1c7      	bne.n	10003966 <usbd_open_edpt_pair+0x2e>
100039d6:	e7d7      	b.n	10003988 <usbd_open_edpt_pair+0x50>
100039d8:	9a0b      	ldr	r2, [sp, #44]	; 0x2c
100039da:	3501      	adds	r5, #1
100039dc:	7013      	strb	r3, [r2, #0]
100039de:	7823      	ldrb	r3, [r4, #0]
100039e0:	18e4      	adds	r4, r4, r3
100039e2:	42b5      	cmp	r5, r6
100039e4:	dbeb      	blt.n	100039be <usbd_open_edpt_pair+0x86>
100039e6:	2001      	movs	r0, #1
100039e8:	e7be      	b.n	10003968 <usbd_open_edpt_pair+0x30>
100039ea:	46c0      	nop			; (mov r8, r8)
100039ec:	20000f2c 	.word	0x20000f2c
100039f0:	2000139c 	.word	0x2000139c

100039f4 <usbd_defer_func>:
100039f4:	2200      	movs	r2, #0
100039f6:	b510      	push	{r4, lr}
100039f8:	b084      	sub	sp, #16
100039fa:	ab01      	add	r3, sp, #4
100039fc:	9201      	str	r2, [sp, #4]
100039fe:	3208      	adds	r2, #8
10003a00:	705a      	strb	r2, [r3, #1]
10003a02:	4a0e      	ldr	r2, [pc, #56]	; (10003a3c <usbd_defer_func+0x48>)
10003a04:	6099      	str	r1, [r3, #8]
10003a06:	6814      	ldr	r4, [r2, #0]
10003a08:	6058      	str	r0, [r3, #4]
10003a0a:	6961      	ldr	r1, [r4, #20]
10003a0c:	f3ef 8210 	mrs	r2, PRIMASK
10003a10:	b672      	cpsid	i
10003a12:	6808      	ldr	r0, [r1, #0]
10003a14:	2800      	cmp	r0, #0
10003a16:	d0fc      	beq.n	10003a12 <usbd_defer_func+0x1e>
10003a18:	f3bf 8f5f 	dmb	sy
10003a1c:	61a2      	str	r2, [r4, #24]
10003a1e:	0019      	movs	r1, r3
10003a20:	0020      	movs	r0, r4
10003a22:	f000 fe1d 	bl	10004660 <tu_fifo_write>
10003a26:	6962      	ldr	r2, [r4, #20]
10003a28:	69a3      	ldr	r3, [r4, #24]
10003a2a:	f3bf 8f5f 	dmb	sy
10003a2e:	2100      	movs	r1, #0
10003a30:	6011      	str	r1, [r2, #0]
10003a32:	f383 8810 	msr	PRIMASK, r3
10003a36:	b004      	add	sp, #16
10003a38:	bd10      	pop	{r4, pc}
10003a3a:	46c0      	nop			; (mov r8, r8)
10003a3c:	200013f4 	.word	0x200013f4

10003a40 <usbd_edpt_open>:
10003a40:	2270      	movs	r2, #112	; 0x70
10003a42:	b570      	push	{r4, r5, r6, lr}
10003a44:	788b      	ldrb	r3, [r1, #2]
10003a46:	000c      	movs	r4, r1
10003a48:	421a      	tst	r2, r3
10003a4a:	d001      	beq.n	10003a50 <usbd_edpt_open+0x10>
10003a4c:	2000      	movs	r0, #0
10003a4e:	bd70      	pop	{r4, r5, r6, pc}
10003a50:	4b06      	ldr	r3, [pc, #24]	; (10003a6c <usbd_edpt_open+0x2c>)
10003a52:	0020      	movs	r0, r4
10003a54:	781d      	ldrb	r5, [r3, #0]
10003a56:	4b06      	ldr	r3, [pc, #24]	; (10003a70 <usbd_edpt_open+0x30>)
10003a58:	7899      	ldrb	r1, [r3, #2]
10003a5a:	f000 fc75 	bl	10004348 <tu_edpt_validate>
10003a5e:	2800      	cmp	r0, #0
10003a60:	d0f4      	beq.n	10003a4c <usbd_edpt_open+0xc>
10003a62:	0021      	movs	r1, r4
10003a64:	0028      	movs	r0, r5
10003a66:	f7ff f979 	bl	10002d5c <dcd_edpt_open>
10003a6a:	e7f0      	b.n	10003a4e <usbd_edpt_open+0xe>
10003a6c:	20000f2c 	.word	0x20000f2c
10003a70:	2000139c 	.word	0x2000139c

10003a74 <usbd_edpt_claim>:
10003a74:	207f      	movs	r0, #127	; 0x7f
10003a76:	4b07      	ldr	r3, [pc, #28]	; (10003a94 <usbd_edpt_claim+0x20>)
10003a78:	b510      	push	{r4, lr}
10003a7a:	681a      	ldr	r2, [r3, #0]
10003a7c:	4008      	ands	r0, r1
10003a7e:	09cb      	lsrs	r3, r1, #7
10003a80:	3333      	adds	r3, #51	; 0x33
10003a82:	0040      	lsls	r0, r0, #1
10003a84:	18c0      	adds	r0, r0, r3
10003a86:	4b04      	ldr	r3, [pc, #16]	; (10003a98 <usbd_edpt_claim+0x24>)
10003a88:	0011      	movs	r1, r2
10003a8a:	1818      	adds	r0, r3, r0
10003a8c:	f000 fc1a 	bl	100042c4 <tu_edpt_claim>
10003a90:	bd10      	pop	{r4, pc}
10003a92:	46c0      	nop			; (mov r8, r8)
10003a94:	200013f0 	.word	0x200013f0
10003a98:	2000139c 	.word	0x2000139c

10003a9c <usbd_edpt_release>:
10003a9c:	207f      	movs	r0, #127	; 0x7f
10003a9e:	4b07      	ldr	r3, [pc, #28]	; (10003abc <usbd_edpt_release+0x20>)
10003aa0:	b510      	push	{r4, lr}
10003aa2:	681a      	ldr	r2, [r3, #0]
10003aa4:	4008      	ands	r0, r1
10003aa6:	09cb      	lsrs	r3, r1, #7
10003aa8:	3333      	adds	r3, #51	; 0x33
10003aaa:	0040      	lsls	r0, r0, #1
10003aac:	18c0      	adds	r0, r0, r3
10003aae:	4b04      	ldr	r3, [pc, #16]	; (10003ac0 <usbd_edpt_release+0x24>)
10003ab0:	0011      	movs	r1, r2
10003ab2:	1818      	adds	r0, r3, r0
10003ab4:	f000 fc2c 	bl	10004310 <tu_edpt_release>
10003ab8:	bd10      	pop	{r4, pc}
10003aba:	46c0      	nop			; (mov r8, r8)
10003abc:	200013f0 	.word	0x200013f0
10003ac0:	2000139c 	.word	0x2000139c

10003ac4 <usbd_edpt_xfer>:
10003ac4:	b570      	push	{r4, r5, r6, lr}
10003ac6:	247f      	movs	r4, #127	; 0x7f
10003ac8:	400c      	ands	r4, r1
10003aca:	0060      	lsls	r0, r4, #1
10003acc:	4c0e      	ldr	r4, [pc, #56]	; (10003b08 <usbd_edpt_xfer+0x44>)
10003ace:	09cd      	lsrs	r5, r1, #7
10003ad0:	1824      	adds	r4, r4, r0
10003ad2:	1964      	adds	r4, r4, r5
10003ad4:	3430      	adds	r4, #48	; 0x30
10003ad6:	78e5      	ldrb	r5, [r4, #3]
10003ad8:	2000      	movs	r0, #0
10003ada:	07ed      	lsls	r5, r5, #31
10003adc:	d500      	bpl.n	10003ae0 <usbd_edpt_xfer+0x1c>
10003ade:	bd70      	pop	{r4, r5, r6, pc}
10003ae0:	2601      	movs	r6, #1
10003ae2:	78e5      	ldrb	r5, [r4, #3]
10003ae4:	4809      	ldr	r0, [pc, #36]	; (10003b0c <usbd_edpt_xfer+0x48>)
10003ae6:	4335      	orrs	r5, r6
10003ae8:	7800      	ldrb	r0, [r0, #0]
10003aea:	70e5      	strb	r5, [r4, #3]
10003aec:	f7ff f9c0 	bl	10002e70 <dcd_edpt_xfer>
10003af0:	2800      	cmp	r0, #0
10003af2:	d1f4      	bne.n	10003ade <usbd_edpt_xfer+0x1a>
10003af4:	2201      	movs	r2, #1
10003af6:	78e3      	ldrb	r3, [r4, #3]
10003af8:	4393      	bics	r3, r2
10003afa:	70e3      	strb	r3, [r4, #3]
10003afc:	78e3      	ldrb	r3, [r4, #3]
10003afe:	3203      	adds	r2, #3
10003b00:	4393      	bics	r3, r2
10003b02:	70e3      	strb	r3, [r4, #3]
10003b04:	e7eb      	b.n	10003ade <usbd_edpt_xfer+0x1a>
10003b06:	46c0      	nop			; (mov r8, r8)
10003b08:	2000139c 	.word	0x2000139c
10003b0c:	20000f2c 	.word	0x20000f2c

10003b10 <tud_control_status>:
10003b10:	b570      	push	{r4, r5, r6, lr}
10003b12:	4c0a      	ldr	r4, [pc, #40]	; (10003b3c <tud_control_status+0x2c>)
10003b14:	0006      	movs	r6, r0
10003b16:	2208      	movs	r2, #8
10003b18:	0020      	movs	r0, r4
10003b1a:	000d      	movs	r5, r1
10003b1c:	f7fe fbaa 	bl	10002274 <__wrap___aeabi_memcpy>
10003b20:	2100      	movs	r1, #0
10003b22:	5669      	ldrsb	r1, [r5, r1]
10003b24:	2300      	movs	r3, #0
10003b26:	43c9      	mvns	r1, r1
10003b28:	0fc9      	lsrs	r1, r1, #31
10003b2a:	0030      	movs	r0, r6
10003b2c:	60e3      	str	r3, [r4, #12]
10003b2e:	01c9      	lsls	r1, r1, #7
10003b30:	2200      	movs	r2, #0
10003b32:	60a3      	str	r3, [r4, #8]
10003b34:	f7ff ffc6 	bl	10003ac4 <usbd_edpt_xfer>
10003b38:	bd70      	pop	{r4, r5, r6, pc}
10003b3a:	46c0      	nop			; (mov r8, r8)
10003b3c:	20001340 	.word	0x20001340

10003b40 <tud_control_xfer>:
10003b40:	b5f0      	push	{r4, r5, r6, r7, lr}
10003b42:	46c6      	mov	lr, r8
10003b44:	4690      	mov	r8, r2
10003b46:	4c29      	ldr	r4, [pc, #164]	; (10003bec <tud_control_xfer+0xac>)
10003b48:	2208      	movs	r2, #8
10003b4a:	b500      	push	{lr}
10003b4c:	0006      	movs	r6, r0
10003b4e:	0020      	movs	r0, r4
10003b50:	000d      	movs	r5, r1
10003b52:	001f      	movs	r7, r3
10003b54:	f7fe fb8e 	bl	10002274 <__wrap___aeabi_memcpy>
10003b58:	4643      	mov	r3, r8
10003b5a:	60a3      	str	r3, [r4, #8]
10003b5c:	2300      	movs	r3, #0
10003b5e:	81e3      	strh	r3, [r4, #14]
10003b60:	79eb      	ldrb	r3, [r5, #7]
10003b62:	79aa      	ldrb	r2, [r5, #6]
10003b64:	021b      	lsls	r3, r3, #8
10003b66:	4313      	orrs	r3, r2
10003b68:	1c1a      	adds	r2, r3, #0
10003b6a:	42bb      	cmp	r3, r7
10003b6c:	d900      	bls.n	10003b70 <tud_control_xfer+0x30>
10003b6e:	1c3a      	adds	r2, r7, #0
10003b70:	b297      	uxth	r7, r2
10003b72:	81a2      	strh	r2, [r4, #12]
10003b74:	2b00      	cmp	r3, #0
10003b76:	d012      	beq.n	10003b9e <tud_control_xfer+0x5e>
10003b78:	2f00      	cmp	r7, #0
10003b7a:	d01d      	beq.n	10003bb8 <tud_control_xfer+0x78>
10003b7c:	4643      	mov	r3, r8
10003b7e:	2b00      	cmp	r3, #0
10003b80:	d031      	beq.n	10003be6 <tud_control_xfer+0xa6>
10003b82:	1c3b      	adds	r3, r7, #0
10003b84:	2f40      	cmp	r7, #64	; 0x40
10003b86:	d81d      	bhi.n	10003bc4 <tud_control_xfer+0x84>
10003b88:	b29f      	uxth	r7, r3
10003b8a:	7823      	ldrb	r3, [r4, #0]
10003b8c:	2b7f      	cmp	r3, #127	; 0x7f
10003b8e:	d81e      	bhi.n	10003bce <tud_control_xfer+0x8e>
10003b90:	2100      	movs	r1, #0
10003b92:	4a17      	ldr	r2, [pc, #92]	; (10003bf0 <tud_control_xfer+0xb0>)
10003b94:	003b      	movs	r3, r7
10003b96:	0030      	movs	r0, r6
10003b98:	f7ff ff94 	bl	10003ac4 <usbd_edpt_xfer>
10003b9c:	e009      	b.n	10003bb2 <tud_control_xfer+0x72>
10003b9e:	2100      	movs	r1, #0
10003ba0:	5669      	ldrsb	r1, [r5, r1]
10003ba2:	2300      	movs	r3, #0
10003ba4:	43c9      	mvns	r1, r1
10003ba6:	0fc9      	lsrs	r1, r1, #31
10003ba8:	01c9      	lsls	r1, r1, #7
10003baa:	2200      	movs	r2, #0
10003bac:	0030      	movs	r0, r6
10003bae:	f7ff ff89 	bl	10003ac4 <usbd_edpt_xfer>
10003bb2:	bc04      	pop	{r2}
10003bb4:	4690      	mov	r8, r2
10003bb6:	bdf0      	pop	{r4, r5, r6, r7, pc}
10003bb8:	7823      	ldrb	r3, [r4, #0]
10003bba:	2b7f      	cmp	r3, #127	; 0x7f
10003bbc:	d910      	bls.n	10003be0 <tud_control_xfer+0xa0>
10003bbe:	2180      	movs	r1, #128	; 0x80
10003bc0:	2200      	movs	r2, #0
10003bc2:	e7e7      	b.n	10003b94 <tud_control_xfer+0x54>
10003bc4:	2340      	movs	r3, #64	; 0x40
10003bc6:	b29f      	uxth	r7, r3
10003bc8:	7823      	ldrb	r3, [r4, #0]
10003bca:	2b7f      	cmp	r3, #127	; 0x7f
10003bcc:	d9e0      	bls.n	10003b90 <tud_control_xfer+0x50>
10003bce:	4c08      	ldr	r4, [pc, #32]	; (10003bf0 <tud_control_xfer+0xb0>)
10003bd0:	003a      	movs	r2, r7
10003bd2:	4641      	mov	r1, r8
10003bd4:	0020      	movs	r0, r4
10003bd6:	f7fe fb4d 	bl	10002274 <__wrap___aeabi_memcpy>
10003bda:	2180      	movs	r1, #128	; 0x80
10003bdc:	0022      	movs	r2, r4
10003bde:	e7d9      	b.n	10003b94 <tud_control_xfer+0x54>
10003be0:	2100      	movs	r1, #0
10003be2:	2200      	movs	r2, #0
10003be4:	e7d6      	b.n	10003b94 <tud_control_xfer+0x54>
10003be6:	2000      	movs	r0, #0
10003be8:	e7e3      	b.n	10003bb2 <tud_control_xfer+0x72>
10003bea:	46c0      	nop			; (mov r8, r8)
10003bec:	20001340 	.word	0x20001340
10003bf0:	2000135c 	.word	0x2000135c

10003bf4 <usbd_control_reset>:
10003bf4:	b510      	push	{r4, lr}
10003bf6:	2214      	movs	r2, #20
10003bf8:	2100      	movs	r1, #0
10003bfa:	4802      	ldr	r0, [pc, #8]	; (10003c04 <usbd_control_reset+0x10>)
10003bfc:	f7fe fb34 	bl	10002268 <__wrap_memset>
10003c00:	bd10      	pop	{r4, pc}
10003c02:	46c0      	nop			; (mov r8, r8)
10003c04:	20001340 	.word	0x20001340

10003c08 <usbd_control_set_complete_callback>:
10003c08:	4b01      	ldr	r3, [pc, #4]	; (10003c10 <usbd_control_set_complete_callback+0x8>)
10003c0a:	6118      	str	r0, [r3, #16]
10003c0c:	4770      	bx	lr
10003c0e:	46c0      	nop			; (mov r8, r8)
10003c10:	20001340 	.word	0x20001340

10003c14 <usbd_control_set_request>:
10003c14:	b510      	push	{r4, lr}
10003c16:	4c05      	ldr	r4, [pc, #20]	; (10003c2c <usbd_control_set_request+0x18>)
10003c18:	0001      	movs	r1, r0
10003c1a:	2208      	movs	r2, #8
10003c1c:	0020      	movs	r0, r4
10003c1e:	f7fe fb29 	bl	10002274 <__wrap___aeabi_memcpy>
10003c22:	2300      	movs	r3, #0
10003c24:	60a3      	str	r3, [r4, #8]
10003c26:	60e3      	str	r3, [r4, #12]
10003c28:	bd10      	pop	{r4, pc}
10003c2a:	46c0      	nop			; (mov r8, r8)
10003c2c:	20001340 	.word	0x20001340

10003c30 <usbd_control_xfer_cb>:
10003c30:	b5f8      	push	{r3, r4, r5, r6, r7, lr}
10003c32:	4c3b      	ldr	r4, [pc, #236]	; (10003d20 <usbd_control_xfer_cb+0xf0>)
10003c34:	001d      	movs	r5, r3
10003c36:	7823      	ldrb	r3, [r4, #0]
10003c38:	0006      	movs	r6, r0
10003c3a:	09da      	lsrs	r2, r3, #7
10003c3c:	09c9      	lsrs	r1, r1, #7
10003c3e:	428a      	cmp	r2, r1
10003c40:	d013      	beq.n	10003c6a <usbd_control_xfer_cb+0x3a>
10003c42:	2000      	movs	r0, #0
10003c44:	2d00      	cmp	r5, #0
10003c46:	d000      	beq.n	10003c4a <usbd_control_xfer_cb+0x1a>
10003c48:	bdf8      	pop	{r3, r4, r5, r6, r7, pc}
10003c4a:	4b36      	ldr	r3, [pc, #216]	; (10003d24 <usbd_control_xfer_cb+0xf4>)
10003c4c:	2b00      	cmp	r3, #0
10003c4e:	d003      	beq.n	10003c58 <usbd_control_xfer_cb+0x28>
10003c50:	0021      	movs	r1, r4
10003c52:	0030      	movs	r0, r6
10003c54:	f7ff f874 	bl	10002d40 <dcd_edpt0_status_complete>
10003c58:	6923      	ldr	r3, [r4, #16]
10003c5a:	2b00      	cmp	r3, #0
10003c5c:	d043      	beq.n	10003ce6 <usbd_control_xfer_cb+0xb6>
10003c5e:	0022      	movs	r2, r4
10003c60:	2103      	movs	r1, #3
10003c62:	0030      	movs	r0, r6
10003c64:	4798      	blx	r3
10003c66:	2001      	movs	r0, #1
10003c68:	e7ee      	b.n	10003c48 <usbd_control_xfer_cb+0x18>
10003c6a:	68a0      	ldr	r0, [r4, #8]
10003c6c:	2b7f      	cmp	r3, #127	; 0x7f
10003c6e:	d806      	bhi.n	10003c7e <usbd_control_xfer_cb+0x4e>
10003c70:	2800      	cmp	r0, #0
10003c72:	d036      	beq.n	10003ce2 <usbd_control_xfer_cb+0xb2>
10003c74:	002a      	movs	r2, r5
10003c76:	492c      	ldr	r1, [pc, #176]	; (10003d28 <usbd_control_xfer_cb+0xf8>)
10003c78:	f7fe fafc 	bl	10002274 <__wrap___aeabi_memcpy>
10003c7c:	68a0      	ldr	r0, [r4, #8]
10003c7e:	89e2      	ldrh	r2, [r4, #14]
10003c80:	88e3      	ldrh	r3, [r4, #6]
10003c82:	1952      	adds	r2, r2, r5
10003c84:	b292      	uxth	r2, r2
10003c86:	1940      	adds	r0, r0, r5
10003c88:	81e2      	strh	r2, [r4, #14]
10003c8a:	60a0      	str	r0, [r4, #8]
10003c8c:	4293      	cmp	r3, r2
10003c8e:	d014      	beq.n	10003cba <usbd_control_xfer_cb+0x8a>
10003c90:	2d3f      	cmp	r5, #63	; 0x3f
10003c92:	d912      	bls.n	10003cba <usbd_control_xfer_cb+0x8a>
10003c94:	89a5      	ldrh	r5, [r4, #12]
10003c96:	1aa9      	subs	r1, r5, r2
10003c98:	1c0f      	adds	r7, r1, #0
10003c9a:	b289      	uxth	r1, r1
10003c9c:	2940      	cmp	r1, #64	; 0x40
10003c9e:	d82e      	bhi.n	10003cfe <usbd_control_xfer_cb+0xce>
10003ca0:	7823      	ldrb	r3, [r4, #0]
10003ca2:	b2bf      	uxth	r7, r7
10003ca4:	2b7f      	cmp	r3, #127	; 0x7f
10003ca6:	d82c      	bhi.n	10003d02 <usbd_control_xfer_cb+0xd2>
10003ca8:	2100      	movs	r1, #0
10003caa:	42aa      	cmp	r2, r5
10003cac:	d035      	beq.n	10003d1a <usbd_control_xfer_cb+0xea>
10003cae:	4a1e      	ldr	r2, [pc, #120]	; (10003d28 <usbd_control_xfer_cb+0xf8>)
10003cb0:	003b      	movs	r3, r7
10003cb2:	0030      	movs	r0, r6
10003cb4:	f7ff ff06 	bl	10003ac4 <usbd_edpt_xfer>
10003cb8:	e7c6      	b.n	10003c48 <usbd_control_xfer_cb+0x18>
10003cba:	6923      	ldr	r3, [r4, #16]
10003cbc:	2b00      	cmp	r3, #0
10003cbe:	d005      	beq.n	10003ccc <usbd_control_xfer_cb+0x9c>
10003cc0:	0022      	movs	r2, r4
10003cc2:	2102      	movs	r1, #2
10003cc4:	0030      	movs	r0, r6
10003cc6:	4798      	blx	r3
10003cc8:	2800      	cmp	r0, #0
10003cca:	d00e      	beq.n	10003cea <usbd_control_xfer_cb+0xba>
10003ccc:	2100      	movs	r1, #0
10003cce:	5661      	ldrsb	r1, [r4, r1]
10003cd0:	2300      	movs	r3, #0
10003cd2:	43c9      	mvns	r1, r1
10003cd4:	0fc9      	lsrs	r1, r1, #31
10003cd6:	01c9      	lsls	r1, r1, #7
10003cd8:	2200      	movs	r2, #0
10003cda:	0030      	movs	r0, r6
10003cdc:	f7ff fef2 	bl	10003ac4 <usbd_edpt_xfer>
10003ce0:	e7b2      	b.n	10003c48 <usbd_control_xfer_cb+0x18>
10003ce2:	2000      	movs	r0, #0
10003ce4:	e7b0      	b.n	10003c48 <usbd_control_xfer_cb+0x18>
10003ce6:	2001      	movs	r0, #1
10003ce8:	e7ae      	b.n	10003c48 <usbd_control_xfer_cb+0x18>
10003cea:	2100      	movs	r1, #0
10003cec:	0030      	movs	r0, r6
10003cee:	f7ff f8d1 	bl	10002e94 <dcd_edpt_stall>
10003cf2:	0030      	movs	r0, r6
10003cf4:	2180      	movs	r1, #128	; 0x80
10003cf6:	f7ff f8cd 	bl	10002e94 <dcd_edpt_stall>
10003cfa:	2001      	movs	r0, #1
10003cfc:	e7a4      	b.n	10003c48 <usbd_control_xfer_cb+0x18>
10003cfe:	2740      	movs	r7, #64	; 0x40
10003d00:	e7ce      	b.n	10003ca0 <usbd_control_xfer_cb+0x70>
10003d02:	2180      	movs	r1, #128	; 0x80
10003d04:	42aa      	cmp	r2, r5
10003d06:	d008      	beq.n	10003d1a <usbd_control_xfer_cb+0xea>
10003d08:	4c07      	ldr	r4, [pc, #28]	; (10003d28 <usbd_control_xfer_cb+0xf8>)
10003d0a:	0001      	movs	r1, r0
10003d0c:	003a      	movs	r2, r7
10003d0e:	0020      	movs	r0, r4
10003d10:	f7fe fab0 	bl	10002274 <__wrap___aeabi_memcpy>
10003d14:	2180      	movs	r1, #128	; 0x80
10003d16:	0022      	movs	r2, r4
10003d18:	e7ca      	b.n	10003cb0 <usbd_control_xfer_cb+0x80>
10003d1a:	2200      	movs	r2, #0
10003d1c:	e7c8      	b.n	10003cb0 <usbd_control_xfer_cb+0x80>
10003d1e:	46c0      	nop			; (mov r8, r8)
10003d20:	20001340 	.word	0x20001340
10003d24:	10002d41 	.word	0x10002d41
10003d28:	2000135c 	.word	0x2000135c

10003d2c <tud_cdc_n_connected>:
10003d2c:	b510      	push	{r4, lr}
10003d2e:	0004      	movs	r4, r0
10003d30:	f7ff f930 	bl	10002f94 <tud_mounted>
10003d34:	2800      	cmp	r0, #0
10003d36:	d101      	bne.n	10003d3c <tud_cdc_n_connected+0x10>
10003d38:	2000      	movs	r0, #0
10003d3a:	bd10      	pop	{r4, pc}
10003d3c:	f7ff f932 	bl	10002fa4 <tud_suspended>
10003d40:	2800      	cmp	r0, #0
10003d42:	d1f9      	bne.n	10003d38 <tud_cdc_n_connected+0xc>
10003d44:	20b2      	movs	r0, #178	; 0xb2
10003d46:	0080      	lsls	r0, r0, #2
10003d48:	4344      	muls	r4, r0
10003d4a:	4803      	ldr	r0, [pc, #12]	; (10003d58 <tud_cdc_n_connected+0x2c>)
10003d4c:	1900      	adds	r0, r0, r4
10003d4e:	7903      	ldrb	r3, [r0, #4]
10003d50:	2001      	movs	r0, #1
10003d52:	4018      	ands	r0, r3
10003d54:	e7f1      	b.n	10003d3a <tud_cdc_n_connected+0xe>
10003d56:	46c0      	nop			; (mov r8, r8)
10003d58:	20001078 	.word	0x20001078

10003d5c <tud_cdc_n_available>:
10003d5c:	23b2      	movs	r3, #178	; 0xb2
10003d5e:	009b      	lsls	r3, r3, #2
10003d60:	4358      	muls	r0, r3
10003d62:	b510      	push	{r4, lr}
10003d64:	4b02      	ldr	r3, [pc, #8]	; (10003d70 <tud_cdc_n_available+0x14>)
10003d66:	3010      	adds	r0, #16
10003d68:	18c0      	adds	r0, r0, r3
10003d6a:	f000 fb7f 	bl	1000446c <tu_fifo_count>
10003d6e:	bd10      	pop	{r4, pc}
10003d70:	20001078 	.word	0x20001078

10003d74 <tud_cdc_n_read>:
10003d74:	b5f0      	push	{r4, r5, r6, r7, lr}
10003d76:	25b2      	movs	r5, #178	; 0xb2
10003d78:	00ad      	lsls	r5, r5, #2
10003d7a:	4345      	muls	r5, r0
10003d7c:	002c      	movs	r4, r5
10003d7e:	46c6      	mov	lr, r8
10003d80:	4e17      	ldr	r6, [pc, #92]	; (10003de0 <tud_cdc_n_read+0x6c>)
10003d82:	3410      	adds	r4, #16
10003d84:	19a4      	adds	r4, r4, r6
10003d86:	b500      	push	{lr}
10003d88:	b292      	uxth	r2, r2
10003d8a:	0020      	movs	r0, r4
10003d8c:	f000 fbf0 	bl	10004570 <tu_fifo_read_n>
10003d90:	0007      	movs	r7, r0
10003d92:	0020      	movs	r0, r4
10003d94:	f000 fb86 	bl	100044a4 <tu_fifo_remaining>
10003d98:	283f      	cmp	r0, #63	; 0x3f
10003d9a:	d803      	bhi.n	10003da4 <tud_cdc_n_read+0x30>
10003d9c:	0038      	movs	r0, r7
10003d9e:	bc04      	pop	{r2}
10003da0:	4690      	mov	r8, r2
10003da2:	bdf0      	pop	{r4, r5, r6, r7, pc}
10003da4:	1973      	adds	r3, r6, r5
10003da6:	78d9      	ldrb	r1, [r3, #3]
10003da8:	2000      	movs	r0, #0
10003daa:	4698      	mov	r8, r3
10003dac:	f7ff fe62 	bl	10003a74 <usbd_edpt_claim>
10003db0:	2800      	cmp	r0, #0
10003db2:	d0f3      	beq.n	10003d9c <tud_cdc_n_read+0x28>
10003db4:	0020      	movs	r0, r4
10003db6:	f000 fb75 	bl	100044a4 <tu_fifo_remaining>
10003dba:	283f      	cmp	r0, #63	; 0x3f
10003dbc:	d90a      	bls.n	10003dd4 <tud_cdc_n_read+0x60>
10003dbe:	2392      	movs	r3, #146	; 0x92
10003dc0:	009b      	lsls	r3, r3, #2
10003dc2:	18ea      	adds	r2, r5, r3
10003dc4:	4643      	mov	r3, r8
10003dc6:	1992      	adds	r2, r2, r6
10003dc8:	78d9      	ldrb	r1, [r3, #3]
10003dca:	2000      	movs	r0, #0
10003dcc:	2340      	movs	r3, #64	; 0x40
10003dce:	f7ff fe79 	bl	10003ac4 <usbd_edpt_xfer>
10003dd2:	e7e3      	b.n	10003d9c <tud_cdc_n_read+0x28>
10003dd4:	4643      	mov	r3, r8
10003dd6:	2000      	movs	r0, #0
10003dd8:	78d9      	ldrb	r1, [r3, #3]
10003dda:	f7ff fe5f 	bl	10003a9c <usbd_edpt_release>
10003dde:	e7dd      	b.n	10003d9c <tud_cdc_n_read+0x28>
10003de0:	20001078 	.word	0x20001078

10003de4 <tud_cdc_n_write_flush>:
10003de4:	b5f8      	push	{r3, r4, r5, r6, r7, lr}
10003de6:	0005      	movs	r5, r0
10003de8:	f7ff f8d4 	bl	10002f94 <tud_mounted>
10003dec:	2800      	cmp	r0, #0
10003dee:	d101      	bne.n	10003df4 <tud_cdc_n_write_flush+0x10>
10003df0:	2000      	movs	r0, #0
10003df2:	bdf8      	pop	{r3, r4, r5, r6, r7, pc}
10003df4:	f7ff f8d6 	bl	10002fa4 <tud_suspended>
10003df8:	2800      	cmp	r0, #0
10003dfa:	d1f9      	bne.n	10003df0 <tud_cdc_n_write_flush+0xc>
10003dfc:	24b2      	movs	r4, #178	; 0xb2
10003dfe:	00a4      	lsls	r4, r4, #2
10003e00:	436c      	muls	r4, r5
10003e02:	0025      	movs	r5, r4
10003e04:	4e14      	ldr	r6, [pc, #80]	; (10003e58 <tud_cdc_n_write_flush+0x74>)
10003e06:	3524      	adds	r5, #36	; 0x24
10003e08:	19ad      	adds	r5, r5, r6
10003e0a:	0028      	movs	r0, r5
10003e0c:	f000 fb2e 	bl	1000446c <tu_fifo_count>
10003e10:	2800      	cmp	r0, #0
10003e12:	d0ed      	beq.n	10003df0 <tud_cdc_n_write_flush+0xc>
10003e14:	1937      	adds	r7, r6, r4
10003e16:	78b9      	ldrb	r1, [r7, #2]
10003e18:	2000      	movs	r0, #0
10003e1a:	f7ff fe2b 	bl	10003a74 <usbd_edpt_claim>
10003e1e:	2800      	cmp	r0, #0
10003e20:	d0e6      	beq.n	10003df0 <tud_cdc_n_write_flush+0xc>
10003e22:	23a2      	movs	r3, #162	; 0xa2
10003e24:	009b      	lsls	r3, r3, #2
10003e26:	469c      	mov	ip, r3
10003e28:	4464      	add	r4, ip
10003e2a:	19a4      	adds	r4, r4, r6
10003e2c:	0021      	movs	r1, r4
10003e2e:	0028      	movs	r0, r5
10003e30:	2240      	movs	r2, #64	; 0x40
10003e32:	f000 fb9d 	bl	10004570 <tu_fifo_read_n>
10003e36:	78b9      	ldrb	r1, [r7, #2]
10003e38:	1e05      	subs	r5, r0, #0
10003e3a:	d008      	beq.n	10003e4e <tud_cdc_n_write_flush+0x6a>
10003e3c:	0003      	movs	r3, r0
10003e3e:	0022      	movs	r2, r4
10003e40:	2000      	movs	r0, #0
10003e42:	f7ff fe3f 	bl	10003ac4 <usbd_edpt_xfer>
10003e46:	2800      	cmp	r0, #0
10003e48:	d0d2      	beq.n	10003df0 <tud_cdc_n_write_flush+0xc>
10003e4a:	0028      	movs	r0, r5
10003e4c:	e7d1      	b.n	10003df2 <tud_cdc_n_write_flush+0xe>
10003e4e:	2000      	movs	r0, #0
10003e50:	f7ff fe24 	bl	10003a9c <usbd_edpt_release>
10003e54:	e7cc      	b.n	10003df0 <tud_cdc_n_write_flush+0xc>
10003e56:	46c0      	nop			; (mov r8, r8)
10003e58:	20001078 	.word	0x20001078

10003e5c <tud_cdc_n_write>:
10003e5c:	b570      	push	{r4, r5, r6, lr}
10003e5e:	24b2      	movs	r4, #178	; 0xb2
10003e60:	00a4      	lsls	r4, r4, #2
10003e62:	4344      	muls	r4, r0
10003e64:	4b09      	ldr	r3, [pc, #36]	; (10003e8c <tud_cdc_n_write+0x30>)
10003e66:	3424      	adds	r4, #36	; 0x24
10003e68:	18e4      	adds	r4, r4, r3
10003e6a:	0005      	movs	r5, r0
10003e6c:	b292      	uxth	r2, r2
10003e6e:	0020      	movs	r0, r4
10003e70:	f000 fc3c 	bl	100046ec <tu_fifo_write_n>
10003e74:	0006      	movs	r6, r0
10003e76:	0020      	movs	r0, r4
10003e78:	f000 faf8 	bl	1000446c <tu_fifo_count>
10003e7c:	283f      	cmp	r0, #63	; 0x3f
10003e7e:	d801      	bhi.n	10003e84 <tud_cdc_n_write+0x28>
10003e80:	0030      	movs	r0, r6
10003e82:	bd70      	pop	{r4, r5, r6, pc}
10003e84:	0028      	movs	r0, r5
10003e86:	f7ff ffad 	bl	10003de4 <tud_cdc_n_write_flush>
10003e8a:	e7f9      	b.n	10003e80 <tud_cdc_n_write+0x24>
10003e8c:	20001078 	.word	0x20001078

10003e90 <tud_cdc_n_write_available>:
10003e90:	23b2      	movs	r3, #178	; 0xb2
10003e92:	009b      	lsls	r3, r3, #2
10003e94:	4358      	muls	r0, r3
10003e96:	b510      	push	{r4, lr}
10003e98:	4b02      	ldr	r3, [pc, #8]	; (10003ea4 <tud_cdc_n_write_available+0x14>)
10003e9a:	3024      	adds	r0, #36	; 0x24
10003e9c:	18c0      	adds	r0, r0, r3
10003e9e:	f000 fb01 	bl	100044a4 <tu_fifo_remaining>
10003ea2:	bd10      	pop	{r4, pc}
10003ea4:	20001078 	.word	0x20001078

10003ea8 <cdcd_init>:
10003ea8:	22b2      	movs	r2, #178	; 0xb2
10003eaa:	b5f0      	push	{r4, r5, r6, r7, lr}
10003eac:	4c1b      	ldr	r4, [pc, #108]	; (10003f1c <cdcd_init+0x74>)
10003eae:	b083      	sub	sp, #12
10003eb0:	0092      	lsls	r2, r2, #2
10003eb2:	2100      	movs	r1, #0
10003eb4:	0020      	movs	r0, r4
10003eb6:	f7fe f9d7 	bl	10002268 <__wrap_memset>
10003eba:	23ff      	movs	r3, #255	; 0xff
10003ebc:	7163      	strb	r3, [r4, #5]
10003ebe:	4b18      	ldr	r3, [pc, #96]	; (10003f20 <cdcd_init+0x78>)
10003ec0:	2680      	movs	r6, #128	; 0x80
10003ec2:	2500      	movs	r5, #0
10003ec4:	80e3      	strh	r3, [r4, #6]
10003ec6:	2701      	movs	r7, #1
10003ec8:	2308      	movs	r3, #8
10003eca:	0021      	movs	r1, r4
10003ecc:	0020      	movs	r0, r4
10003ece:	0076      	lsls	r6, r6, #1
10003ed0:	7323      	strb	r3, [r4, #12]
10003ed2:	8127      	strh	r7, [r4, #8]
10003ed4:	0032      	movs	r2, r6
10003ed6:	3138      	adds	r1, #56	; 0x38
10003ed8:	9500      	str	r5, [sp, #0]
10003eda:	3b07      	subs	r3, #7
10003edc:	3010      	adds	r0, #16
10003ede:	f000 fa87 	bl	100043f0 <tu_fifo_config>
10003ee2:	0021      	movs	r1, r4
10003ee4:	0020      	movs	r0, r4
10003ee6:	3139      	adds	r1, #57	; 0x39
10003ee8:	0032      	movs	r2, r6
10003eea:	31ff      	adds	r1, #255	; 0xff
10003eec:	9700      	str	r7, [sp, #0]
10003eee:	2301      	movs	r3, #1
10003ef0:	3024      	adds	r0, #36	; 0x24
10003ef2:	f000 fa7d 	bl	100043f0 <tu_fifo_config>
10003ef6:	238e      	movs	r3, #142	; 0x8e
10003ef8:	009b      	lsls	r3, r3, #2
10003efa:	18e6      	adds	r6, r4, r3
10003efc:	0030      	movs	r0, r6
10003efe:	f7fc fd7f 	bl	10000a00 <mutex_init>
10003f02:	2390      	movs	r3, #144	; 0x90
10003f04:	009b      	lsls	r3, r3, #2
10003f06:	6226      	str	r6, [r4, #32]
10003f08:	18e6      	adds	r6, r4, r3
10003f0a:	61e5      	str	r5, [r4, #28]
10003f0c:	0030      	movs	r0, r6
10003f0e:	f7fc fd77 	bl	10000a00 <mutex_init>
10003f12:	6326      	str	r6, [r4, #48]	; 0x30
10003f14:	6365      	str	r5, [r4, #52]	; 0x34
10003f16:	b003      	add	sp, #12
10003f18:	bdf0      	pop	{r4, r5, r6, r7, pc}
10003f1a:	46c0      	nop			; (mov r8, r8)
10003f1c:	20001078 	.word	0x20001078
10003f20:	ffffc200 	.word	0xffffc200

10003f24 <cdcd_reset>:
10003f24:	b510      	push	{r4, lr}
10003f26:	4c09      	ldr	r4, [pc, #36]	; (10003f4c <cdcd_reset+0x28>)
10003f28:	2205      	movs	r2, #5
10003f2a:	2100      	movs	r1, #0
10003f2c:	0020      	movs	r0, r4
10003f2e:	f7fe f99b 	bl	10002268 <__wrap_memset>
10003f32:	0020      	movs	r0, r4
10003f34:	3424      	adds	r4, #36	; 0x24
10003f36:	3010      	adds	r0, #16
10003f38:	f000 fc88 	bl	1000484c <tu_fifo_clear>
10003f3c:	0020      	movs	r0, r4
10003f3e:	f000 fc85 	bl	1000484c <tu_fifo_clear>
10003f42:	2101      	movs	r1, #1
10003f44:	0020      	movs	r0, r4
10003f46:	f000 fca1 	bl	1000488c <tu_fifo_set_overwritable>
10003f4a:	bd10      	pop	{r4, pc}
10003f4c:	20001078 	.word	0x20001078

10003f50 <cdcd_open>:
10003f50:	b5f0      	push	{r4, r5, r6, r7, lr}
10003f52:	794b      	ldrb	r3, [r1, #5]
10003f54:	b083      	sub	sp, #12
10003f56:	0006      	movs	r6, r0
10003f58:	2b02      	cmp	r3, #2
10003f5a:	d102      	bne.n	10003f62 <cdcd_open+0x12>
10003f5c:	798b      	ldrb	r3, [r1, #6]
10003f5e:	2b02      	cmp	r3, #2
10003f60:	d003      	beq.n	10003f6a <cdcd_open+0x1a>
10003f62:	2400      	movs	r4, #0
10003f64:	0020      	movs	r0, r4
10003f66:	b003      	add	sp, #12
10003f68:	bdf0      	pop	{r4, r5, r6, r7, pc}
10003f6a:	4f30      	ldr	r7, [pc, #192]	; (1000402c <cdcd_open+0xdc>)
10003f6c:	78bb      	ldrb	r3, [r7, #2]
10003f6e:	2b00      	cmp	r3, #0
10003f70:	d1f7      	bne.n	10003f62 <cdcd_open+0x12>
10003f72:	788b      	ldrb	r3, [r1, #2]
10003f74:	2409      	movs	r4, #9
10003f76:	703b      	strb	r3, [r7, #0]
10003f78:	780d      	ldrb	r5, [r1, #0]
10003f7a:	194d      	adds	r5, r1, r5
10003f7c:	786b      	ldrb	r3, [r5, #1]
10003f7e:	2b24      	cmp	r3, #36	; 0x24
10003f80:	d10b      	bne.n	10003f9a <cdcd_open+0x4a>
10003f82:	2a08      	cmp	r2, #8
10003f84:	d802      	bhi.n	10003f8c <cdcd_open+0x3c>
10003f86:	e00f      	b.n	10003fa8 <cdcd_open+0x58>
10003f88:	42a2      	cmp	r2, r4
10003f8a:	d30d      	bcc.n	10003fa8 <cdcd_open+0x58>
10003f8c:	782b      	ldrb	r3, [r5, #0]
10003f8e:	18ed      	adds	r5, r5, r3
10003f90:	18e4      	adds	r4, r4, r3
10003f92:	786b      	ldrb	r3, [r5, #1]
10003f94:	b2a4      	uxth	r4, r4
10003f96:	2b24      	cmp	r3, #36	; 0x24
10003f98:	d0f6      	beq.n	10003f88 <cdcd_open+0x38>
10003f9a:	2b05      	cmp	r3, #5
10003f9c:	d021      	beq.n	10003fe2 <cdcd_open+0x92>
10003f9e:	2b04      	cmp	r3, #4
10003fa0:	d102      	bne.n	10003fa8 <cdcd_open+0x58>
10003fa2:	796b      	ldrb	r3, [r5, #5]
10003fa4:	2b0a      	cmp	r3, #10
10003fa6:	d02f      	beq.n	10004008 <cdcd_open+0xb8>
10003fa8:	4d21      	ldr	r5, [pc, #132]	; (10004030 <cdcd_open+0xe0>)
10003faa:	0028      	movs	r0, r5
10003fac:	f000 fa7a 	bl	100044a4 <tu_fifo_remaining>
10003fb0:	283f      	cmp	r0, #63	; 0x3f
10003fb2:	d9d7      	bls.n	10003f64 <cdcd_open+0x14>
10003fb4:	002e      	movs	r6, r5
10003fb6:	3e10      	subs	r6, #16
10003fb8:	78f1      	ldrb	r1, [r6, #3]
10003fba:	2000      	movs	r0, #0
10003fbc:	f7ff fd5a 	bl	10003a74 <usbd_edpt_claim>
10003fc0:	2800      	cmp	r0, #0
10003fc2:	d0cf      	beq.n	10003f64 <cdcd_open+0x14>
10003fc4:	0028      	movs	r0, r5
10003fc6:	f000 fa6d 	bl	100044a4 <tu_fifo_remaining>
10003fca:	283f      	cmp	r0, #63	; 0x3f
10003fcc:	d917      	bls.n	10003ffe <cdcd_open+0xae>
10003fce:	238e      	movs	r3, #142	; 0x8e
10003fd0:	009b      	lsls	r3, r3, #2
10003fd2:	18ea      	adds	r2, r5, r3
10003fd4:	3bf9      	subs	r3, #249	; 0xf9
10003fd6:	78f1      	ldrb	r1, [r6, #3]
10003fd8:	3bff      	subs	r3, #255	; 0xff
10003fda:	2000      	movs	r0, #0
10003fdc:	f7ff fd72 	bl	10003ac4 <usbd_edpt_xfer>
10003fe0:	e7c0      	b.n	10003f64 <cdcd_open+0x14>
10003fe2:	0029      	movs	r1, r5
10003fe4:	0030      	movs	r0, r6
10003fe6:	f7ff fd2b 	bl	10003a40 <usbd_edpt_open>
10003fea:	2800      	cmp	r0, #0
10003fec:	d0b9      	beq.n	10003f62 <cdcd_open+0x12>
10003fee:	78ab      	ldrb	r3, [r5, #2]
10003ff0:	707b      	strb	r3, [r7, #1]
10003ff2:	782b      	ldrb	r3, [r5, #0]
10003ff4:	18e4      	adds	r4, r4, r3
10003ff6:	18ed      	adds	r5, r5, r3
10003ff8:	b2a4      	uxth	r4, r4
10003ffa:	786b      	ldrb	r3, [r5, #1]
10003ffc:	e7cf      	b.n	10003f9e <cdcd_open+0x4e>
10003ffe:	78f1      	ldrb	r1, [r6, #3]
10004000:	2000      	movs	r0, #0
10004002:	f7ff fd4b 	bl	10003a9c <usbd_edpt_release>
10004006:	e7ad      	b.n	10003f64 <cdcd_open+0x14>
10004008:	4b0a      	ldr	r3, [pc, #40]	; (10004034 <cdcd_open+0xe4>)
1000400a:	782f      	ldrb	r7, [r5, #0]
1000400c:	9301      	str	r3, [sp, #4]
1000400e:	3301      	adds	r3, #1
10004010:	9300      	str	r3, [sp, #0]
10004012:	19e9      	adds	r1, r5, r7
10004014:	2302      	movs	r3, #2
10004016:	2202      	movs	r2, #2
10004018:	0030      	movs	r0, r6
1000401a:	f7ff fc8d 	bl	10003938 <usbd_open_edpt_pair>
1000401e:	2800      	cmp	r0, #0
10004020:	d09f      	beq.n	10003f62 <cdcd_open+0x12>
10004022:	340e      	adds	r4, #14
10004024:	19e4      	adds	r4, r4, r7
10004026:	b2a4      	uxth	r4, r4
10004028:	e7be      	b.n	10003fa8 <cdcd_open+0x58>
1000402a:	46c0      	nop			; (mov r8, r8)
1000402c:	20001078 	.word	0x20001078
10004030:	20001088 	.word	0x20001088
10004034:	2000107a 	.word	0x2000107a

10004038 <cdcd_control_xfer_cb>:
10004038:	b5f8      	push	{r3, r4, r5, r6, r7, lr}
1000403a:	2360      	movs	r3, #96	; 0x60
1000403c:	0014      	movs	r4, r2
1000403e:	7812      	ldrb	r2, [r2, #0]
10004040:	4013      	ands	r3, r2
10004042:	2200      	movs	r2, #0
10004044:	2b20      	cmp	r3, #32
10004046:	d114      	bne.n	10004072 <cdcd_control_xfer_cb+0x3a>
10004048:	4d2d      	ldr	r5, [pc, #180]	; (10004100 <cdcd_control_xfer_cb+0xc8>)
1000404a:	7963      	ldrb	r3, [r4, #5]
1000404c:	7927      	ldrb	r7, [r4, #4]
1000404e:	782e      	ldrb	r6, [r5, #0]
10004050:	021b      	lsls	r3, r3, #8
10004052:	433b      	orrs	r3, r7
10004054:	429e      	cmp	r6, r3
10004056:	d10c      	bne.n	10004072 <cdcd_control_xfer_cb+0x3a>
10004058:	7863      	ldrb	r3, [r4, #1]
1000405a:	2b21      	cmp	r3, #33	; 0x21
1000405c:	d036      	beq.n	100040cc <cdcd_control_xfer_cb+0x94>
1000405e:	d90a      	bls.n	10004076 <cdcd_control_xfer_cb+0x3e>
10004060:	2b22      	cmp	r3, #34	; 0x22
10004062:	d017      	beq.n	10004094 <cdcd_control_xfer_cb+0x5c>
10004064:	2b23      	cmp	r3, #35	; 0x23
10004066:	d104      	bne.n	10004072 <cdcd_control_xfer_cb+0x3a>
10004068:	2901      	cmp	r1, #1
1000406a:	d044      	beq.n	100040f6 <cdcd_control_xfer_cb+0xbe>
1000406c:	2903      	cmp	r1, #3
1000406e:	d036      	beq.n	100040de <cdcd_control_xfer_cb+0xa6>
10004070:	2201      	movs	r2, #1
10004072:	0010      	movs	r0, r2
10004074:	bdf8      	pop	{r3, r4, r5, r6, r7, pc}
10004076:	2b20      	cmp	r3, #32
10004078:	d1fb      	bne.n	10004072 <cdcd_control_xfer_cb+0x3a>
1000407a:	2901      	cmp	r1, #1
1000407c:	d028      	beq.n	100040d0 <cdcd_control_xfer_cb+0x98>
1000407e:	2903      	cmp	r1, #3
10004080:	d1f6      	bne.n	10004070 <cdcd_control_xfer_cb+0x38>
10004082:	4b20      	ldr	r3, [pc, #128]	; (10004104 <cdcd_control_xfer_cb+0xcc>)
10004084:	2b00      	cmp	r3, #0
10004086:	d0f3      	beq.n	10004070 <cdcd_control_xfer_cb+0x38>
10004088:	1da9      	adds	r1, r5, #6
1000408a:	2000      	movs	r0, #0
1000408c:	f7fe fab4 	bl	100025f8 <tud_cdc_line_coding_cb>
10004090:	2201      	movs	r2, #1
10004092:	e7ee      	b.n	10004072 <cdcd_control_xfer_cb+0x3a>
10004094:	2901      	cmp	r1, #1
10004096:	d02e      	beq.n	100040f6 <cdcd_control_xfer_cb+0xbe>
10004098:	2903      	cmp	r1, #3
1000409a:	d1e9      	bne.n	10004070 <cdcd_control_xfer_cb+0x38>
1000409c:	2601      	movs	r6, #1
1000409e:	78a1      	ldrb	r1, [r4, #2]
100040a0:	78e4      	ldrb	r4, [r4, #3]
100040a2:	0028      	movs	r0, r5
100040a4:	0224      	lsls	r4, r4, #8
100040a6:	430c      	orrs	r4, r1
100040a8:	0031      	movs	r1, r6
100040aa:	712c      	strb	r4, [r5, #4]
100040ac:	43a1      	bics	r1, r4
100040ae:	3024      	adds	r0, #36	; 0x24
100040b0:	f000 fbec 	bl	1000488c <tu_fifo_set_overwritable>
100040b4:	4b14      	ldr	r3, [pc, #80]	; (10004108 <cdcd_control_xfer_cb+0xd0>)
100040b6:	2b00      	cmp	r3, #0
100040b8:	d0da      	beq.n	10004070 <cdcd_control_xfer_cb+0x38>
100040ba:	0031      	movs	r1, r6
100040bc:	0862      	lsrs	r2, r4, #1
100040be:	4032      	ands	r2, r6
100040c0:	4021      	ands	r1, r4
100040c2:	2000      	movs	r0, #0
100040c4:	e000      	b.n	100040c8 <cdcd_control_xfer_cb+0x90>
100040c6:	bf00      	nop
100040c8:	2201      	movs	r2, #1
100040ca:	e7d2      	b.n	10004072 <cdcd_control_xfer_cb+0x3a>
100040cc:	2901      	cmp	r1, #1
100040ce:	d1cf      	bne.n	10004070 <cdcd_control_xfer_cb+0x38>
100040d0:	4a0e      	ldr	r2, [pc, #56]	; (1000410c <cdcd_control_xfer_cb+0xd4>)
100040d2:	2307      	movs	r3, #7
100040d4:	0021      	movs	r1, r4
100040d6:	f7ff fd33 	bl	10003b40 <tud_control_xfer>
100040da:	2201      	movs	r2, #1
100040dc:	e7c9      	b.n	10004072 <cdcd_control_xfer_cb+0x3a>
100040de:	4b0c      	ldr	r3, [pc, #48]	; (10004110 <cdcd_control_xfer_cb+0xd8>)
100040e0:	2b00      	cmp	r3, #0
100040e2:	d0c5      	beq.n	10004070 <cdcd_control_xfer_cb+0x38>
100040e4:	78e1      	ldrb	r1, [r4, #3]
100040e6:	78a3      	ldrb	r3, [r4, #2]
100040e8:	0209      	lsls	r1, r1, #8
100040ea:	4319      	orrs	r1, r3
100040ec:	2000      	movs	r0, #0
100040ee:	e000      	b.n	100040f2 <cdcd_control_xfer_cb+0xba>
100040f0:	bf00      	nop
100040f2:	2201      	movs	r2, #1
100040f4:	e7bd      	b.n	10004072 <cdcd_control_xfer_cb+0x3a>
100040f6:	0021      	movs	r1, r4
100040f8:	f7ff fd0a 	bl	10003b10 <tud_control_status>
100040fc:	2201      	movs	r2, #1
100040fe:	e7b8      	b.n	10004072 <cdcd_control_xfer_cb+0x3a>
10004100:	20001078 	.word	0x20001078
10004104:	100025f9 	.word	0x100025f9
10004108:	00000000 	.word	0x00000000
1000410c:	2000107e 	.word	0x2000107e
10004110:	00000000 	.word	0x00000000

10004114 <cdcd_xfer_cb>:
10004114:	b5f8      	push	{r3, r4, r5, r6, r7, lr}
10004116:	4657      	mov	r7, sl
10004118:	464e      	mov	r6, r9
1000411a:	4645      	mov	r5, r8
1000411c:	46de      	mov	lr, fp
1000411e:	b5e0      	push	{r5, r6, r7, lr}
10004120:	4c5e      	ldr	r4, [pc, #376]	; (1000429c <cdcd_xfer_cb+0x188>)
10004122:	001f      	movs	r7, r3
10004124:	78e3      	ldrb	r3, [r4, #3]
10004126:	4681      	mov	r9, r0
10004128:	000d      	movs	r5, r1
1000412a:	428b      	cmp	r3, r1
1000412c:	d165      	bne.n	100041fa <cdcd_xfer_cb+0xe6>
1000412e:	2392      	movs	r3, #146	; 0x92
10004130:	009b      	lsls	r3, r3, #2
10004132:	18e6      	adds	r6, r4, r3
10004134:	2310      	movs	r3, #16
10004136:	4698      	mov	r8, r3
10004138:	44a0      	add	r8, r4
1000413a:	b2ba      	uxth	r2, r7
1000413c:	0031      	movs	r1, r6
1000413e:	4640      	mov	r0, r8
10004140:	f000 fad4 	bl	100046ec <tu_fifo_write_n>
10004144:	4b56      	ldr	r3, [pc, #344]	; (100042a0 <cdcd_xfer_cb+0x18c>)
10004146:	2b00      	cmp	r3, #0
10004148:	d019      	beq.n	1000417e <cdcd_xfer_cb+0x6a>
1000414a:	7963      	ldrb	r3, [r4, #5]
1000414c:	2bff      	cmp	r3, #255	; 0xff
1000414e:	d016      	beq.n	1000417e <cdcd_xfer_cb+0x6a>
10004150:	2f00      	cmp	r7, #0
10004152:	d014      	beq.n	1000417e <cdcd_xfer_cb+0x6a>
10004154:	19f2      	adds	r2, r6, r7
10004156:	4692      	mov	sl, r2
10004158:	46a3      	mov	fp, r4
1000415a:	e003      	b.n	10004164 <cdcd_xfer_cb+0x50>
1000415c:	3601      	adds	r6, #1
1000415e:	45b2      	cmp	sl, r6
10004160:	d00d      	beq.n	1000417e <cdcd_xfer_cb+0x6a>
10004162:	7963      	ldrb	r3, [r4, #5]
10004164:	7832      	ldrb	r2, [r6, #0]
10004166:	429a      	cmp	r2, r3
10004168:	d1f8      	bne.n	1000415c <cdcd_xfer_cb+0x48>
1000416a:	4640      	mov	r0, r8
1000416c:	f000 f992 	bl	10004494 <tu_fifo_empty>
10004170:	2800      	cmp	r0, #0
10004172:	d1f3      	bne.n	1000415c <cdcd_xfer_cb+0x48>
10004174:	465b      	mov	r3, fp
10004176:	7959      	ldrb	r1, [r3, #5]
10004178:	e000      	b.n	1000417c <cdcd_xfer_cb+0x68>
1000417a:	bf00      	nop
1000417c:	e7ee      	b.n	1000415c <cdcd_xfer_cb+0x48>
1000417e:	4b49      	ldr	r3, [pc, #292]	; (100042a4 <cdcd_xfer_cb+0x190>)
10004180:	2b00      	cmp	r3, #0
10004182:	d005      	beq.n	10004190 <cdcd_xfer_cb+0x7c>
10004184:	4640      	mov	r0, r8
10004186:	f000 f985 	bl	10004494 <tu_fifo_empty>
1000418a:	2800      	cmp	r0, #0
1000418c:	d100      	bne.n	10004190 <cdcd_xfer_cb+0x7c>
1000418e:	e077      	b.n	10004280 <cdcd_xfer_cb+0x16c>
10004190:	4640      	mov	r0, r8
10004192:	f000 f987 	bl	100044a4 <tu_fifo_remaining>
10004196:	283f      	cmp	r0, #63	; 0x3f
10004198:	d859      	bhi.n	1000424e <cdcd_xfer_cb+0x13a>
1000419a:	4642      	mov	r2, r8
1000419c:	3a10      	subs	r2, #16
1000419e:	7893      	ldrb	r3, [r2, #2]
100041a0:	42ab      	cmp	r3, r5
100041a2:	d007      	beq.n	100041b4 <cdcd_xfer_cb+0xa0>
100041a4:	2401      	movs	r4, #1
100041a6:	0020      	movs	r0, r4
100041a8:	bc3c      	pop	{r2, r3, r4, r5}
100041aa:	4690      	mov	r8, r2
100041ac:	4699      	mov	r9, r3
100041ae:	46a2      	mov	sl, r4
100041b0:	46ab      	mov	fp, r5
100041b2:	bdf8      	pop	{r3, r4, r5, r6, r7, pc}
100041b4:	4b3c      	ldr	r3, [pc, #240]	; (100042a8 <cdcd_xfer_cb+0x194>)
100041b6:	2b00      	cmp	r3, #0
100041b8:	d002      	beq.n	100041c0 <cdcd_xfer_cb+0xac>
100041ba:	2000      	movs	r0, #0
100041bc:	e000      	b.n	100041c0 <cdcd_xfer_cb+0xac>
100041be:	bf00      	nop
100041c0:	f7fe fee8 	bl	10002f94 <tud_mounted>
100041c4:	2800      	cmp	r0, #0
100041c6:	d11d      	bne.n	10004204 <cdcd_xfer_cb+0xf0>
100041c8:	4c38      	ldr	r4, [pc, #224]	; (100042ac <cdcd_xfer_cb+0x198>)
100041ca:	0020      	movs	r0, r4
100041cc:	f000 f94e 	bl	1000446c <tu_fifo_count>
100041d0:	2800      	cmp	r0, #0
100041d2:	d1e7      	bne.n	100041a4 <cdcd_xfer_cb+0x90>
100041d4:	2f00      	cmp	r7, #0
100041d6:	d0e5      	beq.n	100041a4 <cdcd_xfer_cb+0x90>
100041d8:	06bb      	lsls	r3, r7, #26
100041da:	d1e3      	bne.n	100041a4 <cdcd_xfer_cb+0x90>
100041dc:	3c24      	subs	r4, #36	; 0x24
100041de:	78a1      	ldrb	r1, [r4, #2]
100041e0:	4648      	mov	r0, r9
100041e2:	f7ff fc47 	bl	10003a74 <usbd_edpt_claim>
100041e6:	0025      	movs	r5, r4
100041e8:	1e04      	subs	r4, r0, #0
100041ea:	d0db      	beq.n	100041a4 <cdcd_xfer_cb+0x90>
100041ec:	78a9      	ldrb	r1, [r5, #2]
100041ee:	2300      	movs	r3, #0
100041f0:	2200      	movs	r2, #0
100041f2:	4648      	mov	r0, r9
100041f4:	f7ff fc66 	bl	10003ac4 <usbd_edpt_xfer>
100041f8:	e7d5      	b.n	100041a6 <cdcd_xfer_cb+0x92>
100041fa:	78a3      	ldrb	r3, [r4, #2]
100041fc:	428b      	cmp	r3, r1
100041fe:	d0d9      	beq.n	100041b4 <cdcd_xfer_cb+0xa0>
10004200:	2400      	movs	r4, #0
10004202:	e7d0      	b.n	100041a6 <cdcd_xfer_cb+0x92>
10004204:	f7fe fece 	bl	10002fa4 <tud_suspended>
10004208:	4c28      	ldr	r4, [pc, #160]	; (100042ac <cdcd_xfer_cb+0x198>)
1000420a:	2800      	cmp	r0, #0
1000420c:	d1dd      	bne.n	100041ca <cdcd_xfer_cb+0xb6>
1000420e:	0020      	movs	r0, r4
10004210:	f000 f92c 	bl	1000446c <tu_fifo_count>
10004214:	2800      	cmp	r0, #0
10004216:	d0d8      	beq.n	100041ca <cdcd_xfer_cb+0xb6>
10004218:	0025      	movs	r5, r4
1000421a:	3d24      	subs	r5, #36	; 0x24
1000421c:	78a9      	ldrb	r1, [r5, #2]
1000421e:	2000      	movs	r0, #0
10004220:	f7ff fc28 	bl	10003a74 <usbd_edpt_claim>
10004224:	2800      	cmp	r0, #0
10004226:	d0d0      	beq.n	100041ca <cdcd_xfer_cb+0xb6>
10004228:	2399      	movs	r3, #153	; 0x99
1000422a:	009b      	lsls	r3, r3, #2
1000422c:	18e6      	adds	r6, r4, r3
1000422e:	0031      	movs	r1, r6
10004230:	2240      	movs	r2, #64	; 0x40
10004232:	0020      	movs	r0, r4
10004234:	f000 f99c 	bl	10004570 <tu_fifo_read_n>
10004238:	78a9      	ldrb	r1, [r5, #2]
1000423a:	2800      	cmp	r0, #0
1000423c:	d029      	beq.n	10004292 <cdcd_xfer_cb+0x17e>
1000423e:	0003      	movs	r3, r0
10004240:	0032      	movs	r2, r6
10004242:	2000      	movs	r0, #0
10004244:	f7ff fc3e 	bl	10003ac4 <usbd_edpt_xfer>
10004248:	2800      	cmp	r0, #0
1000424a:	d1ab      	bne.n	100041a4 <cdcd_xfer_cb+0x90>
1000424c:	e7bd      	b.n	100041ca <cdcd_xfer_cb+0xb6>
1000424e:	4644      	mov	r4, r8
10004250:	3c10      	subs	r4, #16
10004252:	78e1      	ldrb	r1, [r4, #3]
10004254:	2000      	movs	r0, #0
10004256:	f7ff fc0d 	bl	10003a74 <usbd_edpt_claim>
1000425a:	2800      	cmp	r0, #0
1000425c:	d101      	bne.n	10004262 <cdcd_xfer_cb+0x14e>
1000425e:	78a3      	ldrb	r3, [r4, #2]
10004260:	e79e      	b.n	100041a0 <cdcd_xfer_cb+0x8c>
10004262:	4640      	mov	r0, r8
10004264:	f000 f91e 	bl	100044a4 <tu_fifo_remaining>
10004268:	283f      	cmp	r0, #63	; 0x3f
1000426a:	d90c      	bls.n	10004286 <cdcd_xfer_cb+0x172>
1000426c:	228e      	movs	r2, #142	; 0x8e
1000426e:	0092      	lsls	r2, r2, #2
10004270:	2340      	movs	r3, #64	; 0x40
10004272:	4442      	add	r2, r8
10004274:	78e1      	ldrb	r1, [r4, #3]
10004276:	2000      	movs	r0, #0
10004278:	f7ff fc24 	bl	10003ac4 <usbd_edpt_xfer>
1000427c:	78a3      	ldrb	r3, [r4, #2]
1000427e:	e78f      	b.n	100041a0 <cdcd_xfer_cb+0x8c>
10004280:	f7fe fb34 	bl	100028ec <tud_cdc_rx_cb>
10004284:	e784      	b.n	10004190 <cdcd_xfer_cb+0x7c>
10004286:	78e1      	ldrb	r1, [r4, #3]
10004288:	2000      	movs	r0, #0
1000428a:	f7ff fc07 	bl	10003a9c <usbd_edpt_release>
1000428e:	78a3      	ldrb	r3, [r4, #2]
10004290:	e786      	b.n	100041a0 <cdcd_xfer_cb+0x8c>
10004292:	2000      	movs	r0, #0
10004294:	f7ff fc02 	bl	10003a9c <usbd_edpt_release>
10004298:	e797      	b.n	100041ca <cdcd_xfer_cb+0xb6>
1000429a:	46c0      	nop			; (mov r8, r8)
1000429c:	20001078 	.word	0x20001078
100042a0:	00000000 	.word	0x00000000
100042a4:	100028ed 	.word	0x100028ed
100042a8:	00000000 	.word	0x00000000
100042ac:	2000109c 	.word	0x2000109c

100042b0 <tusb_init>:
100042b0:	b510      	push	{r4, lr}
100042b2:	2000      	movs	r0, #0
100042b4:	f7fe fe88 	bl	10002fc8 <tud_init>
100042b8:	bd10      	pop	{r4, pc}
100042ba:	46c0      	nop			; (mov r8, r8)

100042bc <tusb_inited>:
100042bc:	b510      	push	{r4, lr}
100042be:	f7fe fe79 	bl	10002fb4 <tud_inited>
100042c2:	bd10      	pop	{r4, pc}

100042c4 <tu_edpt_claim>:
100042c4:	b570      	push	{r4, r5, r6, lr}
100042c6:	7804      	ldrb	r4, [r0, #0]
100042c8:	0005      	movs	r5, r0
100042ca:	07e4      	lsls	r4, r4, #31
100042cc:	000e      	movs	r6, r1
100042ce:	0fe4      	lsrs	r4, r4, #31
100042d0:	d116      	bne.n	10004300 <tu_edpt_claim+0x3c>
100042d2:	7803      	ldrb	r3, [r0, #0]
100042d4:	075b      	lsls	r3, r3, #29
100042d6:	d501      	bpl.n	100042dc <tu_edpt_claim+0x18>
100042d8:	0020      	movs	r0, r4
100042da:	bd70      	pop	{r4, r5, r6, pc}
100042dc:	2101      	movs	r1, #1
100042de:	0030      	movs	r0, r6
100042e0:	4249      	negs	r1, r1
100042e2:	f000 fb5d 	bl	100049a0 <__mutex_enter_timeout_ms_veneer>
100042e6:	782c      	ldrb	r4, [r5, #0]
100042e8:	07e4      	lsls	r4, r4, #31
100042ea:	0fe4      	lsrs	r4, r4, #31
100042ec:	d10a      	bne.n	10004304 <tu_edpt_claim+0x40>
100042ee:	782b      	ldrb	r3, [r5, #0]
100042f0:	075b      	lsls	r3, r3, #29
100042f2:	d408      	bmi.n	10004306 <tu_edpt_claim+0x42>
100042f4:	2204      	movs	r2, #4
100042f6:	782b      	ldrb	r3, [r5, #0]
100042f8:	2401      	movs	r4, #1
100042fa:	4313      	orrs	r3, r2
100042fc:	702b      	strb	r3, [r5, #0]
100042fe:	e002      	b.n	10004306 <tu_edpt_claim+0x42>
10004300:	2400      	movs	r4, #0
10004302:	e7e9      	b.n	100042d8 <tu_edpt_claim+0x14>
10004304:	2400      	movs	r4, #0
10004306:	0030      	movs	r0, r6
10004308:	f000 fb22 	bl	10004950 <__mutex_exit_veneer>
1000430c:	e7e4      	b.n	100042d8 <tu_edpt_claim+0x14>
1000430e:	46c0      	nop			; (mov r8, r8)

10004310 <tu_edpt_release>:
10004310:	b570      	push	{r4, r5, r6, lr}
10004312:	000e      	movs	r6, r1
10004314:	2101      	movs	r1, #1
10004316:	0005      	movs	r5, r0
10004318:	4249      	negs	r1, r1
1000431a:	0030      	movs	r0, r6
1000431c:	f000 fb40 	bl	100049a0 <__mutex_enter_timeout_ms_veneer>
10004320:	782c      	ldrb	r4, [r5, #0]
10004322:	0764      	lsls	r4, r4, #29
10004324:	0fe4      	lsrs	r4, r4, #31
10004326:	2c01      	cmp	r4, #1
10004328:	d004      	beq.n	10004334 <tu_edpt_release+0x24>
1000432a:	0030      	movs	r0, r6
1000432c:	f000 fb10 	bl	10004950 <__mutex_exit_veneer>
10004330:	0020      	movs	r0, r4
10004332:	bd70      	pop	{r4, r5, r6, pc}
10004334:	782b      	ldrb	r3, [r5, #0]
10004336:	07db      	lsls	r3, r3, #31
10004338:	d404      	bmi.n	10004344 <tu_edpt_release+0x34>
1000433a:	2204      	movs	r2, #4
1000433c:	782b      	ldrb	r3, [r5, #0]
1000433e:	4393      	bics	r3, r2
10004340:	702b      	strb	r3, [r5, #0]
10004342:	e7f2      	b.n	1000432a <tu_edpt_release+0x1a>
10004344:	2400      	movs	r4, #0
10004346:	e7f0      	b.n	1000432a <tu_edpt_release+0x1a>

10004348 <tu_edpt_validate>:
10004348:	7943      	ldrb	r3, [r0, #5]
1000434a:	7902      	ldrb	r2, [r0, #4]
1000434c:	021b      	lsls	r3, r3, #8
1000434e:	4313      	orrs	r3, r2
10004350:	055b      	lsls	r3, r3, #21
10004352:	0d5a      	lsrs	r2, r3, #21
10004354:	78c3      	ldrb	r3, [r0, #3]
10004356:	079b      	lsls	r3, r3, #30
10004358:	0f9b      	lsrs	r3, r3, #30
1000435a:	2b02      	cmp	r3, #2
1000435c:	d00d      	beq.n	1000437a <tu_edpt_validate+0x32>
1000435e:	d814      	bhi.n	1000438a <tu_edpt_validate+0x42>
10004360:	2000      	movs	r0, #0
10004362:	2b01      	cmp	r3, #1
10004364:	d108      	bne.n	10004378 <tu_edpt_validate+0x30>
10004366:	3902      	subs	r1, #2
10004368:	424b      	negs	r3, r1
1000436a:	4159      	adcs	r1, r3
1000436c:	4b11      	ldr	r3, [pc, #68]	; (100043b4 <tu_edpt_validate+0x6c>)
1000436e:	469c      	mov	ip, r3
10004370:	4461      	add	r1, ip
10004372:	4291      	cmp	r1, r2
10004374:	4140      	adcs	r0, r0
10004376:	b2c0      	uxtb	r0, r0
10004378:	4770      	bx	lr
1000437a:	2902      	cmp	r1, #2
1000437c:	d012      	beq.n	100043a4 <tu_edpt_validate+0x5c>
1000437e:	2000      	movs	r0, #0
10004380:	2340      	movs	r3, #64	; 0x40
10004382:	4293      	cmp	r3, r2
10004384:	4140      	adcs	r0, r0
10004386:	b2c0      	uxtb	r0, r0
10004388:	e7f6      	b.n	10004378 <tu_edpt_validate+0x30>
1000438a:	3902      	subs	r1, #2
1000438c:	424b      	negs	r3, r1
1000438e:	4159      	adcs	r1, r3
10004390:	23f0      	movs	r3, #240	; 0xf0
10004392:	2000      	movs	r0, #0
10004394:	4249      	negs	r1, r1
10004396:	009b      	lsls	r3, r3, #2
10004398:	4019      	ands	r1, r3
1000439a:	3140      	adds	r1, #64	; 0x40
1000439c:	4291      	cmp	r1, r2
1000439e:	4140      	adcs	r0, r0
100043a0:	b2c0      	uxtb	r0, r0
100043a2:	e7e9      	b.n	10004378 <tu_edpt_validate+0x30>
100043a4:	4b04      	ldr	r3, [pc, #16]	; (100043b8 <tu_edpt_validate+0x70>)
100043a6:	469c      	mov	ip, r3
100043a8:	4462      	add	r2, ip
100043aa:	4250      	negs	r0, r2
100043ac:	4150      	adcs	r0, r2
100043ae:	b2c0      	uxtb	r0, r0
100043b0:	e7e2      	b.n	10004378 <tu_edpt_validate+0x30>
100043b2:	46c0      	nop			; (mov r8, r8)
100043b4:	000003ff 	.word	0x000003ff
100043b8:	fffffe00 	.word	0xfffffe00

100043bc <tu_edpt_bind_driver>:
100043bc:	188a      	adds	r2, r1, r2
100043be:	b570      	push	{r4, r5, r6, lr}
100043c0:	4291      	cmp	r1, r2
100043c2:	d207      	bcs.n	100043d4 <tu_edpt_bind_driver+0x18>
100043c4:	267f      	movs	r6, #127	; 0x7f
100043c6:	784c      	ldrb	r4, [r1, #1]
100043c8:	2c05      	cmp	r4, #5
100043ca:	d004      	beq.n	100043d6 <tu_edpt_bind_driver+0x1a>
100043cc:	780c      	ldrb	r4, [r1, #0]
100043ce:	1909      	adds	r1, r1, r4
100043d0:	428a      	cmp	r2, r1
100043d2:	d8f8      	bhi.n	100043c6 <tu_edpt_bind_driver+0xa>
100043d4:	bd70      	pop	{r4, r5, r6, pc}
100043d6:	0034      	movs	r4, r6
100043d8:	788d      	ldrb	r5, [r1, #2]
100043da:	402c      	ands	r4, r5
100043dc:	0064      	lsls	r4, r4, #1
100043de:	1904      	adds	r4, r0, r4
100043e0:	09ed      	lsrs	r5, r5, #7
100043e2:	5563      	strb	r3, [r4, r5]
100043e4:	780c      	ldrb	r4, [r1, #0]
100043e6:	1909      	adds	r1, r1, r4
100043e8:	428a      	cmp	r2, r1
100043ea:	d8ec      	bhi.n	100043c6 <tu_edpt_bind_driver+0xa>
100043ec:	e7f2      	b.n	100043d4 <tu_edpt_bind_driver+0x18>
100043ee:	46c0      	nop			; (mov r8, r8)

100043f0 <tu_fifo_config>:
100043f0:	b5f0      	push	{r4, r5, r6, r7, lr}
100043f2:	46c6      	mov	lr, r8
100043f4:	b500      	push	{lr}
100043f6:	001d      	movs	r5, r3
100043f8:	ab06      	add	r3, sp, #24
100043fa:	781e      	ldrb	r6, [r3, #0]
100043fc:	2380      	movs	r3, #128	; 0x80
100043fe:	0004      	movs	r4, r0
10004400:	4688      	mov	r8, r1
10004402:	0017      	movs	r7, r2
10004404:	021b      	lsls	r3, r3, #8
10004406:	429a      	cmp	r2, r3
10004408:	d82e      	bhi.n	10004468 <tu_fifo_config+0x78>
1000440a:	68c0      	ldr	r0, [r0, #12]
1000440c:	2800      	cmp	r0, #0
1000440e:	d003      	beq.n	10004418 <tu_fifo_config+0x28>
10004410:	2101      	movs	r1, #1
10004412:	4249      	negs	r1, r1
10004414:	f000 fac4 	bl	100049a0 <__mutex_enter_timeout_ms_veneer>
10004418:	6920      	ldr	r0, [r4, #16]
1000441a:	2800      	cmp	r0, #0
1000441c:	d003      	beq.n	10004426 <tu_fifo_config+0x36>
1000441e:	2101      	movs	r1, #1
10004420:	4249      	negs	r1, r1
10004422:	f000 fabd 	bl	100049a0 <__mutex_enter_timeout_ms_veneer>
10004426:	4643      	mov	r3, r8
10004428:	6023      	str	r3, [r4, #0]
1000442a:	88e3      	ldrh	r3, [r4, #6]
1000442c:	046d      	lsls	r5, r5, #17
1000442e:	0bdb      	lsrs	r3, r3, #15
10004430:	0c6d      	lsrs	r5, r5, #17
10004432:	03db      	lsls	r3, r3, #15
10004434:	432b      	orrs	r3, r5
10004436:	80e3      	strh	r3, [r4, #6]
10004438:	045b      	lsls	r3, r3, #17
1000443a:	01f6      	lsls	r6, r6, #7
1000443c:	0e5b      	lsrs	r3, r3, #25
1000443e:	4333      	orrs	r3, r6
10004440:	71e3      	strb	r3, [r4, #7]
10004442:	2300      	movs	r3, #0
10004444:	68e0      	ldr	r0, [r4, #12]
10004446:	8163      	strh	r3, [r4, #10]
10004448:	80a7      	strh	r7, [r4, #4]
1000444a:	8123      	strh	r3, [r4, #8]
1000444c:	2800      	cmp	r0, #0
1000444e:	d001      	beq.n	10004454 <tu_fifo_config+0x64>
10004450:	f000 fa7e 	bl	10004950 <__mutex_exit_veneer>
10004454:	6920      	ldr	r0, [r4, #16]
10004456:	2401      	movs	r4, #1
10004458:	2800      	cmp	r0, #0
1000445a:	d001      	beq.n	10004460 <tu_fifo_config+0x70>
1000445c:	f000 fa78 	bl	10004950 <__mutex_exit_veneer>
10004460:	0020      	movs	r0, r4
10004462:	bc04      	pop	{r2}
10004464:	4690      	mov	r8, r2
10004466:	bdf0      	pop	{r4, r5, r6, r7, pc}
10004468:	2400      	movs	r4, #0
1000446a:	e7f9      	b.n	10004460 <tu_fifo_config+0x70>

1000446c <tu_fifo_count>:
1000446c:	8903      	ldrh	r3, [r0, #8]
1000446e:	8942      	ldrh	r2, [r0, #10]
10004470:	b29b      	uxth	r3, r3
10004472:	b292      	uxth	r2, r2
10004474:	8881      	ldrh	r1, [r0, #4]
10004476:	4293      	cmp	r3, r2
10004478:	d307      	bcc.n	1000448a <tu_fifo_count+0x1e>
1000447a:	1a9b      	subs	r3, r3, r2
1000447c:	b29b      	uxth	r3, r3
1000447e:	1c08      	adds	r0, r1, #0
10004480:	4299      	cmp	r1, r3
10004482:	d900      	bls.n	10004486 <tu_fifo_count+0x1a>
10004484:	1c18      	adds	r0, r3, #0
10004486:	b280      	uxth	r0, r0
10004488:	4770      	bx	lr
1000448a:	0048      	lsls	r0, r1, #1
1000448c:	1a82      	subs	r2, r0, r2
1000448e:	189b      	adds	r3, r3, r2
10004490:	b29b      	uxth	r3, r3
10004492:	e7f4      	b.n	1000447e <tu_fifo_count+0x12>

10004494 <tu_fifo_empty>:
10004494:	8903      	ldrh	r3, [r0, #8]
10004496:	8940      	ldrh	r0, [r0, #10]
10004498:	1a18      	subs	r0, r3, r0
1000449a:	4243      	negs	r3, r0
1000449c:	4158      	adcs	r0, r3
1000449e:	b2c0      	uxtb	r0, r0
100044a0:	4770      	bx	lr
100044a2:	46c0      	nop			; (mov r8, r8)

100044a4 <tu_fifo_remaining>:
100044a4:	8903      	ldrh	r3, [r0, #8]
100044a6:	8942      	ldrh	r2, [r0, #10]
100044a8:	b29b      	uxth	r3, r3
100044aa:	b292      	uxth	r2, r2
100044ac:	8881      	ldrh	r1, [r0, #4]
100044ae:	4293      	cmp	r3, r2
100044b0:	d307      	bcc.n	100044c2 <tu_fifo_remaining+0x1e>
100044b2:	1a9b      	subs	r3, r3, r2
100044b4:	b29b      	uxth	r3, r3
100044b6:	2000      	movs	r0, #0
100044b8:	4299      	cmp	r1, r3
100044ba:	d901      	bls.n	100044c0 <tu_fifo_remaining+0x1c>
100044bc:	1acb      	subs	r3, r1, r3
100044be:	b298      	uxth	r0, r3
100044c0:	4770      	bx	lr
100044c2:	0048      	lsls	r0, r1, #1
100044c4:	1a82      	subs	r2, r0, r2
100044c6:	189b      	adds	r3, r3, r2
100044c8:	b29b      	uxth	r3, r3
100044ca:	e7f4      	b.n	100044b6 <tu_fifo_remaining+0x12>

100044cc <tu_fifo_read>:
100044cc:	b570      	push	{r4, r5, r6, lr}
100044ce:	0004      	movs	r4, r0
100044d0:	6900      	ldr	r0, [r0, #16]
100044d2:	000d      	movs	r5, r1
100044d4:	2800      	cmp	r0, #0
100044d6:	d003      	beq.n	100044e0 <tu_fifo_read+0x14>
100044d8:	2101      	movs	r1, #1
100044da:	4249      	negs	r1, r1
100044dc:	f000 fa60 	bl	100049a0 <__mutex_enter_timeout_ms_veneer>
100044e0:	8920      	ldrh	r0, [r4, #8]
100044e2:	8961      	ldrh	r1, [r4, #10]
100044e4:	b280      	uxth	r0, r0
100044e6:	b289      	uxth	r1, r1
100044e8:	88a3      	ldrh	r3, [r4, #4]
100044ea:	4288      	cmp	r0, r1
100044ec:	d230      	bcs.n	10004550 <tu_fifo_read+0x84>
100044ee:	005a      	lsls	r2, r3, #1
100044f0:	1a52      	subs	r2, r2, r1
100044f2:	1882      	adds	r2, r0, r2
100044f4:	b292      	uxth	r2, r2
100044f6:	2a00      	cmp	r2, #0
100044f8:	d02e      	beq.n	10004558 <tu_fifo_read+0x8c>
100044fa:	4293      	cmp	r3, r2
100044fc:	d208      	bcs.n	10004510 <tu_fifo_read+0x44>
100044fe:	4298      	cmp	r0, r3
10004500:	d331      	bcc.n	10004566 <tu_fifo_read+0x9a>
10004502:	1ac1      	subs	r1, r0, r3
10004504:	b289      	uxth	r1, r1
10004506:	8161      	strh	r1, [r4, #10]
10004508:	428b      	cmp	r3, r1
1000450a:	d803      	bhi.n	10004514 <tu_fifo_read+0x48>
1000450c:	1ac9      	subs	r1, r1, r3
1000450e:	b289      	uxth	r1, r1
10004510:	428b      	cmp	r3, r1
10004512:	d9fb      	bls.n	1000450c <tu_fifo_read+0x40>
10004514:	6823      	ldr	r3, [r4, #0]
10004516:	88e2      	ldrh	r2, [r4, #6]
10004518:	469c      	mov	ip, r3
1000451a:	0452      	lsls	r2, r2, #17
1000451c:	0c52      	lsrs	r2, r2, #17
1000451e:	4351      	muls	r1, r2
10004520:	0028      	movs	r0, r5
10004522:	4461      	add	r1, ip
10004524:	f7fd fea6 	bl	10002274 <__wrap___aeabi_memcpy>
10004528:	8961      	ldrh	r1, [r4, #10]
1000452a:	88a3      	ldrh	r3, [r4, #4]
1000452c:	b289      	uxth	r1, r1
1000452e:	1c4a      	adds	r2, r1, #1
10004530:	b292      	uxth	r2, r2
10004532:	2501      	movs	r5, #1
10004534:	4291      	cmp	r1, r2
10004536:	d912      	bls.n	1000455e <tu_fifo_read+0x92>
10004538:	2200      	movs	r2, #0
1000453a:	005b      	lsls	r3, r3, #1
1000453c:	1ad2      	subs	r2, r2, r3
1000453e:	b292      	uxth	r2, r2
10004540:	6920      	ldr	r0, [r4, #16]
10004542:	8162      	strh	r2, [r4, #10]
10004544:	2800      	cmp	r0, #0
10004546:	d001      	beq.n	1000454c <tu_fifo_read+0x80>
10004548:	f000 fa02 	bl	10004950 <__mutex_exit_veneer>
1000454c:	0028      	movs	r0, r5
1000454e:	bd70      	pop	{r4, r5, r6, pc}
10004550:	1a42      	subs	r2, r0, r1
10004552:	b292      	uxth	r2, r2
10004554:	2a00      	cmp	r2, #0
10004556:	d1d0      	bne.n	100044fa <tu_fifo_read+0x2e>
10004558:	2500      	movs	r5, #0
1000455a:	8962      	ldrh	r2, [r4, #10]
1000455c:	b292      	uxth	r2, r2
1000455e:	005b      	lsls	r3, r3, #1
10004560:	429a      	cmp	r2, r3
10004562:	dbed      	blt.n	10004540 <tu_fifo_read+0x74>
10004564:	e7ea      	b.n	1000453c <tu_fifo_read+0x70>
10004566:	18c0      	adds	r0, r0, r3
10004568:	b281      	uxth	r1, r0
1000456a:	8161      	strh	r1, [r4, #10]
1000456c:	e7cc      	b.n	10004508 <tu_fifo_read+0x3c>
1000456e:	46c0      	nop			; (mov r8, r8)

10004570 <tu_fifo_read_n>:
10004570:	b5f0      	push	{r4, r5, r6, r7, lr}
10004572:	4646      	mov	r6, r8
10004574:	464f      	mov	r7, r9
10004576:	46d6      	mov	lr, sl
10004578:	b5c0      	push	{r6, r7, lr}
1000457a:	0006      	movs	r6, r0
1000457c:	6900      	ldr	r0, [r0, #16]
1000457e:	4688      	mov	r8, r1
10004580:	4691      	mov	r9, r2
10004582:	2800      	cmp	r0, #0
10004584:	d003      	beq.n	1000458e <tu_fifo_read_n+0x1e>
10004586:	2101      	movs	r1, #1
10004588:	4249      	negs	r1, r1
1000458a:	f000 fa09 	bl	100049a0 <__mutex_enter_timeout_ms_veneer>
1000458e:	8933      	ldrh	r3, [r6, #8]
10004590:	8974      	ldrh	r4, [r6, #10]
10004592:	b29b      	uxth	r3, r3
10004594:	b2a4      	uxth	r4, r4
10004596:	88b7      	ldrh	r7, [r6, #4]
10004598:	42a3      	cmp	r3, r4
1000459a:	d24c      	bcs.n	10004636 <tu_fifo_read_n+0xc6>
1000459c:	007d      	lsls	r5, r7, #1
1000459e:	1b2d      	subs	r5, r5, r4
100045a0:	195d      	adds	r5, r3, r5
100045a2:	b2ad      	uxth	r5, r5
100045a4:	2d00      	cmp	r5, #0
100045a6:	d04a      	beq.n	1000463e <tu_fifo_read_n+0xce>
100045a8:	42af      	cmp	r7, r5
100045aa:	d205      	bcs.n	100045b8 <tu_fifo_read_n+0x48>
100045ac:	42bb      	cmp	r3, r7
100045ae:	d254      	bcs.n	1000465a <tu_fifo_read_n+0xea>
100045b0:	19db      	adds	r3, r3, r7
100045b2:	b29c      	uxth	r4, r3
100045b4:	003d      	movs	r5, r7
100045b6:	8174      	strh	r4, [r6, #10]
100045b8:	464b      	mov	r3, r9
100045ba:	45a9      	cmp	r9, r5
100045bc:	d84b      	bhi.n	10004656 <tu_fifo_read_n+0xe6>
100045be:	b29d      	uxth	r5, r3
100045c0:	42a7      	cmp	r7, r4
100045c2:	d803      	bhi.n	100045cc <tu_fifo_read_n+0x5c>
100045c4:	1be4      	subs	r4, r4, r7
100045c6:	b2a4      	uxth	r4, r4
100045c8:	42a7      	cmp	r7, r4
100045ca:	d9fb      	bls.n	100045c4 <tu_fifo_read_n+0x54>
100045cc:	88f2      	ldrh	r2, [r6, #6]
100045ce:	1b38      	subs	r0, r7, r4
100045d0:	0452      	lsls	r2, r2, #17
100045d2:	0c53      	lsrs	r3, r2, #17
100045d4:	0019      	movs	r1, r3
100045d6:	4699      	mov	r9, r3
100045d8:	6833      	ldr	r3, [r6, #0]
100045da:	4361      	muls	r1, r4
100045dc:	469c      	mov	ip, r3
100045de:	b280      	uxth	r0, r0
100045e0:	4461      	add	r1, ip
100045e2:	42a8      	cmp	r0, r5
100045e4:	d231      	bcs.n	1000464a <tu_fifo_read_n+0xda>
100045e6:	464b      	mov	r3, r9
100045e8:	4358      	muls	r0, r3
100045ea:	b283      	uxth	r3, r0
100045ec:	001a      	movs	r2, r3
100045ee:	4640      	mov	r0, r8
100045f0:	469a      	mov	sl, r3
100045f2:	f7fd fe3f 	bl	10002274 <__wrap___aeabi_memcpy>
100045f6:	464b      	mov	r3, r9
100045f8:	4640      	mov	r0, r8
100045fa:	1bef      	subs	r7, r5, r7
100045fc:	19e4      	adds	r4, r4, r7
100045fe:	435c      	muls	r4, r3
10004600:	4450      	add	r0, sl
10004602:	b2a2      	uxth	r2, r4
10004604:	6831      	ldr	r1, [r6, #0]
10004606:	f7fd fe35 	bl	10002274 <__wrap___aeabi_memcpy>
1000460a:	8972      	ldrh	r2, [r6, #10]
1000460c:	88b7      	ldrh	r7, [r6, #4]
1000460e:	b292      	uxth	r2, r2
10004610:	1953      	adds	r3, r2, r5
10004612:	b29b      	uxth	r3, r3
10004614:	0079      	lsls	r1, r7, #1
10004616:	429a      	cmp	r2, r3
10004618:	d913      	bls.n	10004642 <tu_fifo_read_n+0xd2>
1000461a:	1a5b      	subs	r3, r3, r1
1000461c:	b29b      	uxth	r3, r3
1000461e:	6930      	ldr	r0, [r6, #16]
10004620:	8173      	strh	r3, [r6, #10]
10004622:	2800      	cmp	r0, #0
10004624:	d001      	beq.n	1000462a <tu_fifo_read_n+0xba>
10004626:	f000 f993 	bl	10004950 <__mutex_exit_veneer>
1000462a:	0028      	movs	r0, r5
1000462c:	bc1c      	pop	{r2, r3, r4}
1000462e:	4690      	mov	r8, r2
10004630:	4699      	mov	r9, r3
10004632:	46a2      	mov	sl, r4
10004634:	bdf0      	pop	{r4, r5, r6, r7, pc}
10004636:	1b1d      	subs	r5, r3, r4
10004638:	b2ad      	uxth	r5, r5
1000463a:	2d00      	cmp	r5, #0
1000463c:	d1b4      	bne.n	100045a8 <tu_fifo_read_n+0x38>
1000463e:	8973      	ldrh	r3, [r6, #10]
10004640:	b29b      	uxth	r3, r3
10004642:	0079      	lsls	r1, r7, #1
10004644:	428b      	cmp	r3, r1
10004646:	dbea      	blt.n	1000461e <tu_fifo_read_n+0xae>
10004648:	e7e7      	b.n	1000461a <tu_fifo_read_n+0xaa>
1000464a:	464a      	mov	r2, r9
1000464c:	4640      	mov	r0, r8
1000464e:	436a      	muls	r2, r5
10004650:	f7fd fe10 	bl	10002274 <__wrap___aeabi_memcpy>
10004654:	e7d9      	b.n	1000460a <tu_fifo_read_n+0x9a>
10004656:	1c2b      	adds	r3, r5, #0
10004658:	e7b1      	b.n	100045be <tu_fifo_read_n+0x4e>
1000465a:	1bdc      	subs	r4, r3, r7
1000465c:	b2a4      	uxth	r4, r4
1000465e:	e7a9      	b.n	100045b4 <tu_fifo_read_n+0x44>

10004660 <tu_fifo_write>:
10004660:	b5f8      	push	{r3, r4, r5, r6, r7, lr}
10004662:	0004      	movs	r4, r0
10004664:	68c0      	ldr	r0, [r0, #12]
10004666:	000e      	movs	r6, r1
10004668:	2800      	cmp	r0, #0
1000466a:	d003      	beq.n	10004674 <tu_fifo_write+0x14>
1000466c:	2101      	movs	r1, #1
1000466e:	4249      	negs	r1, r1
10004670:	f000 f996 	bl	100049a0 <__mutex_enter_timeout_ms_veneer>
10004674:	8925      	ldrh	r5, [r4, #8]
10004676:	8922      	ldrh	r2, [r4, #8]
10004678:	8961      	ldrh	r1, [r4, #10]
1000467a:	b292      	uxth	r2, r2
1000467c:	b289      	uxth	r1, r1
1000467e:	b2ad      	uxth	r5, r5
10004680:	88a3      	ldrh	r3, [r4, #4]
10004682:	428a      	cmp	r2, r1
10004684:	d32c      	bcc.n	100046e0 <tu_fifo_write+0x80>
10004686:	1a52      	subs	r2, r2, r1
10004688:	b292      	uxth	r2, r2
1000468a:	4293      	cmp	r3, r2
1000468c:	d809      	bhi.n	100046a2 <tu_fifo_write+0x42>
1000468e:	79e7      	ldrb	r7, [r4, #7]
10004690:	09ff      	lsrs	r7, r7, #7
10004692:	d106      	bne.n	100046a2 <tu_fifo_write+0x42>
10004694:	68e0      	ldr	r0, [r4, #12]
10004696:	2800      	cmp	r0, #0
10004698:	d001      	beq.n	1000469e <tu_fifo_write+0x3e>
1000469a:	f000 f959 	bl	10004950 <__mutex_exit_veneer>
1000469e:	0038      	movs	r0, r7
100046a0:	bdf8      	pop	{r3, r4, r5, r6, r7, pc}
100046a2:	0028      	movs	r0, r5
100046a4:	429d      	cmp	r5, r3
100046a6:	d303      	bcc.n	100046b0 <tu_fifo_write+0x50>
100046a8:	1ac0      	subs	r0, r0, r3
100046aa:	b280      	uxth	r0, r0
100046ac:	4298      	cmp	r0, r3
100046ae:	d2fb      	bcs.n	100046a8 <tu_fifo_write+0x48>
100046b0:	6823      	ldr	r3, [r4, #0]
100046b2:	88e2      	ldrh	r2, [r4, #6]
100046b4:	469c      	mov	ip, r3
100046b6:	0452      	lsls	r2, r2, #17
100046b8:	0c52      	lsrs	r2, r2, #17
100046ba:	4350      	muls	r0, r2
100046bc:	0031      	movs	r1, r6
100046be:	4460      	add	r0, ip
100046c0:	f7fd fdd8 	bl	10002274 <__wrap___aeabi_memcpy>
100046c4:	88a2      	ldrh	r2, [r4, #4]
100046c6:	1c6b      	adds	r3, r5, #1
100046c8:	b29b      	uxth	r3, r3
100046ca:	0052      	lsls	r2, r2, #1
100046cc:	429d      	cmp	r5, r3
100046ce:	d904      	bls.n	100046da <tu_fifo_write+0x7a>
100046d0:	1a9b      	subs	r3, r3, r2
100046d2:	b29b      	uxth	r3, r3
100046d4:	8123      	strh	r3, [r4, #8]
100046d6:	2701      	movs	r7, #1
100046d8:	e7dc      	b.n	10004694 <tu_fifo_write+0x34>
100046da:	4293      	cmp	r3, r2
100046dc:	dbfa      	blt.n	100046d4 <tu_fifo_write+0x74>
100046de:	e7f7      	b.n	100046d0 <tu_fifo_write+0x70>
100046e0:	0058      	lsls	r0, r3, #1
100046e2:	1a41      	subs	r1, r0, r1
100046e4:	1852      	adds	r2, r2, r1
100046e6:	b292      	uxth	r2, r2
100046e8:	e7cf      	b.n	1000468a <tu_fifo_write+0x2a>
100046ea:	46c0      	nop			; (mov r8, r8)

100046ec <tu_fifo_write_n>:
100046ec:	b5f0      	push	{r4, r5, r6, r7, lr}
100046ee:	46de      	mov	lr, fp
100046f0:	4645      	mov	r5, r8
100046f2:	4657      	mov	r7, sl
100046f4:	464e      	mov	r6, r9
100046f6:	b5e0      	push	{r5, r6, r7, lr}
100046f8:	468b      	mov	fp, r1
100046fa:	b083      	sub	sp, #12
100046fc:	0005      	movs	r5, r0
100046fe:	1e14      	subs	r4, r2, #0
10004700:	d06c      	beq.n	100047dc <tu_fifo_write_n+0xf0>
10004702:	68c0      	ldr	r0, [r0, #12]
10004704:	2800      	cmp	r0, #0
10004706:	d003      	beq.n	10004710 <tu_fifo_write_n+0x24>
10004708:	2101      	movs	r1, #1
1000470a:	4249      	negs	r1, r1
1000470c:	f000 f948 	bl	100049a0 <__mutex_enter_timeout_ms_veneer>
10004710:	892f      	ldrh	r7, [r5, #8]
10004712:	79ea      	ldrb	r2, [r5, #7]
10004714:	896b      	ldrh	r3, [r5, #10]
10004716:	b2bf      	uxth	r7, r7
10004718:	b29b      	uxth	r3, r3
1000471a:	88ae      	ldrh	r6, [r5, #4]
1000471c:	09d2      	lsrs	r2, r2, #7
1000471e:	d141      	bne.n	100047a4 <tu_fifo_write_n+0xb8>
10004720:	429f      	cmp	r7, r3
10004722:	d265      	bcs.n	100047f0 <tu_fifo_write_n+0x104>
10004724:	0072      	lsls	r2, r6, #1
10004726:	1ad3      	subs	r3, r2, r3
10004728:	18fb      	adds	r3, r7, r3
1000472a:	b29b      	uxth	r3, r3
1000472c:	2200      	movs	r2, #0
1000472e:	4690      	mov	r8, r2
10004730:	42b3      	cmp	r3, r6
10004732:	d231      	bcs.n	10004798 <tu_fifo_write_n+0xac>
10004734:	1af3      	subs	r3, r6, r3
10004736:	1c1a      	adds	r2, r3, #0
10004738:	b29b      	uxth	r3, r3
1000473a:	42a3      	cmp	r3, r4
1000473c:	d900      	bls.n	10004740 <tu_fifo_write_n+0x54>
1000473e:	1c22      	adds	r2, r4, #0
10004740:	b293      	uxth	r3, r2
10004742:	4698      	mov	r8, r3
10004744:	88e9      	ldrh	r1, [r5, #6]
10004746:	4643      	mov	r3, r8
10004748:	18fb      	adds	r3, r7, r3
1000474a:	b29b      	uxth	r3, r3
1000474c:	0449      	lsls	r1, r1, #17
1000474e:	4699      	mov	r9, r3
10004750:	0c4b      	lsrs	r3, r1, #17
10004752:	469a      	mov	sl, r3
10004754:	003c      	movs	r4, r7
10004756:	42b7      	cmp	r7, r6
10004758:	d303      	bcc.n	10004762 <tu_fifo_write_n+0x76>
1000475a:	1ba4      	subs	r4, r4, r6
1000475c:	b2a4      	uxth	r4, r4
1000475e:	42b4      	cmp	r4, r6
10004760:	d2fb      	bcs.n	1000475a <tu_fifo_write_n+0x6e>
10004762:	4650      	mov	r0, sl
10004764:	682b      	ldr	r3, [r5, #0]
10004766:	4360      	muls	r0, r4
10004768:	469c      	mov	ip, r3
1000476a:	1b31      	subs	r1, r6, r4
1000476c:	b289      	uxth	r1, r1
1000476e:	4460      	add	r0, ip
10004770:	4541      	cmp	r1, r8
10004772:	d349      	bcc.n	10004808 <tu_fifo_write_n+0x11c>
10004774:	4652      	mov	r2, sl
10004776:	4643      	mov	r3, r8
10004778:	4659      	mov	r1, fp
1000477a:	435a      	muls	r2, r3
1000477c:	f7fd fd7a 	bl	10002274 <__wrap___aeabi_memcpy>
10004780:	88ab      	ldrh	r3, [r5, #4]
10004782:	005b      	lsls	r3, r3, #1
10004784:	454f      	cmp	r7, r9
10004786:	d801      	bhi.n	1000478c <tu_fifo_write_n+0xa0>
10004788:	4599      	cmp	r9, r3
1000478a:	db03      	blt.n	10004794 <tu_fifo_write_n+0xa8>
1000478c:	464a      	mov	r2, r9
1000478e:	1ad3      	subs	r3, r2, r3
10004790:	b29b      	uxth	r3, r3
10004792:	4699      	mov	r9, r3
10004794:	464b      	mov	r3, r9
10004796:	812b      	strh	r3, [r5, #8]
10004798:	68e8      	ldr	r0, [r5, #12]
1000479a:	2800      	cmp	r0, #0
1000479c:	d020      	beq.n	100047e0 <tu_fifo_write_n+0xf4>
1000479e:	f000 f8d7 	bl	10004950 <__mutex_exit_veneer>
100047a2:	e01d      	b.n	100047e0 <tu_fifo_write_n+0xf4>
100047a4:	88e9      	ldrh	r1, [r5, #6]
100047a6:	044a      	lsls	r2, r1, #17
100047a8:	0c52      	lsrs	r2, r2, #17
100047aa:	4692      	mov	sl, r2
100047ac:	42b4      	cmp	r4, r6
100047ae:	d222      	bcs.n	100047f6 <tu_fifo_write_n+0x10a>
100047b0:	429f      	cmp	r7, r3
100047b2:	d33e      	bcc.n	10004832 <tu_fifo_write_n+0x146>
100047b4:	1afa      	subs	r2, r7, r3
100047b6:	b292      	uxth	r2, r2
100047b8:	0071      	lsls	r1, r6, #1
100047ba:	1912      	adds	r2, r2, r4
100047bc:	428a      	cmp	r2, r1
100047be:	db08      	blt.n	100047d2 <tu_fifo_write_n+0xe6>
100047c0:	199a      	adds	r2, r3, r6
100047c2:	b292      	uxth	r2, r2
100047c4:	1b17      	subs	r7, r2, r4
100047c6:	b2bf      	uxth	r7, r7
100047c8:	4691      	mov	r9, r2
100047ca:	42bb      	cmp	r3, r7
100047cc:	d939      	bls.n	10004842 <tu_fifo_write_n+0x156>
100047ce:	1a7f      	subs	r7, r7, r1
100047d0:	b2bf      	uxth	r7, r7
100047d2:	19e3      	adds	r3, r4, r7
100047d4:	b29b      	uxth	r3, r3
100047d6:	4699      	mov	r9, r3
100047d8:	46a0      	mov	r8, r4
100047da:	e7bb      	b.n	10004754 <tu_fifo_write_n+0x68>
100047dc:	2300      	movs	r3, #0
100047de:	4698      	mov	r8, r3
100047e0:	4640      	mov	r0, r8
100047e2:	b003      	add	sp, #12
100047e4:	bc3c      	pop	{r2, r3, r4, r5}
100047e6:	4690      	mov	r8, r2
100047e8:	4699      	mov	r9, r3
100047ea:	46a2      	mov	sl, r4
100047ec:	46ab      	mov	fp, r5
100047ee:	bdf0      	pop	{r4, r5, r6, r7, pc}
100047f0:	1afb      	subs	r3, r7, r3
100047f2:	b29b      	uxth	r3, r3
100047f4:	e79a      	b.n	1000472c <tu_fifo_write_n+0x40>
100047f6:	4650      	mov	r0, sl
100047f8:	1ba2      	subs	r2, r4, r6
100047fa:	4350      	muls	r0, r2
100047fc:	4483      	add	fp, r0
100047fe:	2e00      	cmp	r6, #0
10004800:	d11c      	bne.n	1000483c <tu_fifo_write_n+0x150>
10004802:	2300      	movs	r3, #0
10004804:	4698      	mov	r8, r3
10004806:	e7c7      	b.n	10004798 <tu_fifo_write_n+0xac>
10004808:	4653      	mov	r3, sl
1000480a:	4359      	muls	r1, r3
1000480c:	b28b      	uxth	r3, r1
1000480e:	001a      	movs	r2, r3
10004810:	4659      	mov	r1, fp
10004812:	9301      	str	r3, [sp, #4]
10004814:	f7fd fd2e 	bl	10002274 <__wrap___aeabi_memcpy>
10004818:	4642      	mov	r2, r8
1000481a:	4651      	mov	r1, sl
1000481c:	1b92      	subs	r2, r2, r6
1000481e:	18a2      	adds	r2, r4, r2
10004820:	434a      	muls	r2, r1
10004822:	9b01      	ldr	r3, [sp, #4]
10004824:	b292      	uxth	r2, r2
10004826:	445b      	add	r3, fp
10004828:	0019      	movs	r1, r3
1000482a:	6828      	ldr	r0, [r5, #0]
1000482c:	f7fd fd22 	bl	10002274 <__wrap___aeabi_memcpy>
10004830:	e7a6      	b.n	10004780 <tu_fifo_write_n+0x94>
10004832:	0071      	lsls	r1, r6, #1
10004834:	1aca      	subs	r2, r1, r3
10004836:	18ba      	adds	r2, r7, r2
10004838:	b292      	uxth	r2, r2
1000483a:	e7be      	b.n	100047ba <tu_fifo_write_n+0xce>
1000483c:	001f      	movs	r7, r3
1000483e:	46b0      	mov	r8, r6
10004840:	e781      	b.n	10004746 <tu_fifo_write_n+0x5a>
10004842:	46a0      	mov	r8, r4
10004844:	42b9      	cmp	r1, r7
10004846:	dd00      	ble.n	1000484a <tu_fifo_write_n+0x15e>
10004848:	e784      	b.n	10004754 <tu_fifo_write_n+0x68>
1000484a:	e7c0      	b.n	100047ce <tu_fifo_write_n+0xe2>

1000484c <tu_fifo_clear>:
1000484c:	b510      	push	{r4, lr}
1000484e:	0004      	movs	r4, r0
10004850:	68c0      	ldr	r0, [r0, #12]
10004852:	2800      	cmp	r0, #0
10004854:	d003      	beq.n	1000485e <tu_fifo_clear+0x12>
10004856:	2101      	movs	r1, #1
10004858:	4249      	negs	r1, r1
1000485a:	f000 f8a1 	bl	100049a0 <__mutex_enter_timeout_ms_veneer>
1000485e:	6920      	ldr	r0, [r4, #16]
10004860:	2800      	cmp	r0, #0
10004862:	d003      	beq.n	1000486c <tu_fifo_clear+0x20>
10004864:	2101      	movs	r1, #1
10004866:	4249      	negs	r1, r1
10004868:	f000 f89a 	bl	100049a0 <__mutex_enter_timeout_ms_veneer>
1000486c:	2300      	movs	r3, #0
1000486e:	68e0      	ldr	r0, [r4, #12]
10004870:	8163      	strh	r3, [r4, #10]
10004872:	8123      	strh	r3, [r4, #8]
10004874:	2800      	cmp	r0, #0
10004876:	d001      	beq.n	1000487c <tu_fifo_clear+0x30>
10004878:	f000 f86a 	bl	10004950 <__mutex_exit_veneer>
1000487c:	6920      	ldr	r0, [r4, #16]
1000487e:	2800      	cmp	r0, #0
10004880:	d001      	beq.n	10004886 <tu_fifo_clear+0x3a>
10004882:	f000 f865 	bl	10004950 <__mutex_exit_veneer>
10004886:	2001      	movs	r0, #1
10004888:	bd10      	pop	{r4, pc}
1000488a:	46c0      	nop			; (mov r8, r8)

1000488c <tu_fifo_set_overwritable>:
1000488c:	b570      	push	{r4, r5, r6, lr}
1000488e:	0004      	movs	r4, r0
10004890:	68c0      	ldr	r0, [r0, #12]
10004892:	000d      	movs	r5, r1
10004894:	2800      	cmp	r0, #0
10004896:	d003      	beq.n	100048a0 <tu_fifo_set_overwritable+0x14>
10004898:	2101      	movs	r1, #1
1000489a:	4249      	negs	r1, r1
1000489c:	f000 f880 	bl	100049a0 <__mutex_enter_timeout_ms_veneer>
100048a0:	6920      	ldr	r0, [r4, #16]
100048a2:	2800      	cmp	r0, #0
100048a4:	d003      	beq.n	100048ae <tu_fifo_set_overwritable+0x22>
100048a6:	2101      	movs	r1, #1
100048a8:	4249      	negs	r1, r1
100048aa:	f000 f879 	bl	100049a0 <__mutex_enter_timeout_ms_veneer>
100048ae:	217f      	movs	r1, #127	; 0x7f
100048b0:	79e3      	ldrb	r3, [r4, #7]
100048b2:	01ed      	lsls	r5, r5, #7
100048b4:	4019      	ands	r1, r3
100048b6:	68e0      	ldr	r0, [r4, #12]
100048b8:	4329      	orrs	r1, r5
100048ba:	71e1      	strb	r1, [r4, #7]
100048bc:	2800      	cmp	r0, #0
100048be:	d001      	beq.n	100048c4 <tu_fifo_set_overwritable+0x38>
100048c0:	f000 f846 	bl	10004950 <__mutex_exit_veneer>
100048c4:	6920      	ldr	r0, [r4, #16]
100048c6:	2800      	cmp	r0, #0
100048c8:	d001      	beq.n	100048ce <tu_fifo_set_overwritable+0x42>
100048ca:	f000 f841 	bl	10004950 <__mutex_exit_veneer>
100048ce:	2001      	movs	r0, #1
100048d0:	bd70      	pop	{r4, r5, r6, pc}
100048d2:	46c0      	nop			; (mov r8, r8)

100048d4 <strlen>:
100048d4:	b510      	push	{r4, lr}
100048d6:	0783      	lsls	r3, r0, #30
100048d8:	d027      	beq.n	1000492a <strlen+0x56>
100048da:	7803      	ldrb	r3, [r0, #0]
100048dc:	2b00      	cmp	r3, #0
100048de:	d026      	beq.n	1000492e <strlen+0x5a>
100048e0:	0003      	movs	r3, r0
100048e2:	2103      	movs	r1, #3
100048e4:	e002      	b.n	100048ec <strlen+0x18>
100048e6:	781a      	ldrb	r2, [r3, #0]
100048e8:	2a00      	cmp	r2, #0
100048ea:	d01c      	beq.n	10004926 <strlen+0x52>
100048ec:	3301      	adds	r3, #1
100048ee:	420b      	tst	r3, r1
100048f0:	d1f9      	bne.n	100048e6 <strlen+0x12>
100048f2:	6819      	ldr	r1, [r3, #0]
100048f4:	4a0f      	ldr	r2, [pc, #60]	; (10004934 <strlen+0x60>)
100048f6:	4c10      	ldr	r4, [pc, #64]	; (10004938 <strlen+0x64>)
100048f8:	188a      	adds	r2, r1, r2
100048fa:	438a      	bics	r2, r1
100048fc:	4222      	tst	r2, r4
100048fe:	d10f      	bne.n	10004920 <strlen+0x4c>
10004900:	3304      	adds	r3, #4
10004902:	6819      	ldr	r1, [r3, #0]
10004904:	4a0b      	ldr	r2, [pc, #44]	; (10004934 <strlen+0x60>)
10004906:	188a      	adds	r2, r1, r2
10004908:	438a      	bics	r2, r1
1000490a:	4222      	tst	r2, r4
1000490c:	d108      	bne.n	10004920 <strlen+0x4c>
1000490e:	3304      	adds	r3, #4
10004910:	6819      	ldr	r1, [r3, #0]
10004912:	4a08      	ldr	r2, [pc, #32]	; (10004934 <strlen+0x60>)
10004914:	188a      	adds	r2, r1, r2
10004916:	438a      	bics	r2, r1
10004918:	4222      	tst	r2, r4
1000491a:	d0f1      	beq.n	10004900 <strlen+0x2c>
1000491c:	e000      	b.n	10004920 <strlen+0x4c>
1000491e:	3301      	adds	r3, #1
10004920:	781a      	ldrb	r2, [r3, #0]
10004922:	2a00      	cmp	r2, #0
10004924:	d1fb      	bne.n	1000491e <strlen+0x4a>
10004926:	1a18      	subs	r0, r3, r0
10004928:	bd10      	pop	{r4, pc}
1000492a:	0003      	movs	r3, r0
1000492c:	e7e1      	b.n	100048f2 <strlen+0x1e>
1000492e:	2000      	movs	r0, #0
10004930:	e7fa      	b.n	10004928 <strlen+0x54>
10004932:	46c0      	nop			; (mov r8, r8)
10004934:	fefefeff 	.word	0xfefefeff
10004938:	80808080 	.word	0x80808080

1000493c <_fini>:
1000493c:	b5f8      	push	{r3, r4, r5, r6, r7, lr}
1000493e:	46c0      	nop			; (mov r8, r8)

10004940 <__flash_do_cmd_veneer>:
10004940:	b401      	push	{r0}
10004942:	4802      	ldr	r0, [pc, #8]	; (1000494c <__flash_do_cmd_veneer+0xc>)
10004944:	4684      	mov	ip, r0
10004946:	bc01      	pop	{r0}
10004948:	4760      	bx	ip
1000494a:	bf00      	nop
1000494c:	200002e9 	.word	0x200002e9

10004950 <__mutex_exit_veneer>:
10004950:	b401      	push	{r0}
10004952:	4802      	ldr	r0, [pc, #8]	; (1000495c <__mutex_exit_veneer+0xc>)
10004954:	4684      	mov	ip, r0
10004956:	bc01      	pop	{r0}
10004958:	4760      	bx	ip
1000495a:	bf00      	nop
1000495c:	20000249 	.word	0x20000249

10004960 <__e15_is_critical_frame_period_veneer>:
10004960:	b401      	push	{r0}
10004962:	4802      	ldr	r0, [pc, #8]	; (1000496c <__e15_is_critical_frame_period_veneer+0xc>)
10004964:	4684      	mov	ip, r0
10004966:	bc01      	pop	{r0}
10004968:	4760      	bx	ip
1000496a:	bf00      	nop
1000496c:	20000b19 	.word	0x20000b19

10004970 <__reset_non_control_endpoints_veneer>:
10004970:	b401      	push	{r0}
10004972:	4802      	ldr	r0, [pc, #8]	; (1000497c <__reset_non_control_endpoints_veneer+0xc>)
10004974:	4684      	mov	ip, r0
10004976:	bc01      	pop	{r0}
10004978:	4760      	bx	ip
1000497a:	bf00      	nop
1000497c:	2000039d 	.word	0x2000039d

10004980 <____aeabi_idiv0_veneer>:
10004980:	b401      	push	{r0}
10004982:	4802      	ldr	r0, [pc, #8]	; (1000498c <____aeabi_idiv0_veneer+0xc>)
10004984:	4684      	mov	ip, r0
10004986:	bc01      	pop	{r0}
10004988:	4760      	bx	ip
1000498a:	bf00      	nop
1000498c:	20000ddd 	.word	0x20000ddd

10004990 <__mutex_try_enter_veneer>:
10004990:	b401      	push	{r0}
10004992:	4802      	ldr	r0, [pc, #8]	; (1000499c <__mutex_try_enter_veneer+0xc>)
10004994:	4684      	mov	ip, r0
10004996:	bc01      	pop	{r0}
10004998:	4760      	bx	ip
1000499a:	bf00      	nop
1000499c:	200000c1 	.word	0x200000c1

100049a0 <__mutex_enter_timeout_ms_veneer>:
100049a0:	b401      	push	{r0}
100049a2:	4802      	ldr	r0, [pc, #8]	; (100049ac <__mutex_enter_timeout_ms_veneer+0xc>)
100049a4:	4684      	mov	ip, r0
100049a6:	bc01      	pop	{r0}
100049a8:	4760      	bx	ip
100049aa:	bf00      	nop
100049ac:	200001b9 	.word	0x200001b9

100049b0 <__mutex_try_enter_block_until_veneer>:
100049b0:	b401      	push	{r0}
100049b2:	4802      	ldr	r0, [pc, #8]	; (100049bc <__mutex_try_enter_block_until_veneer+0xc>)
100049b4:	4684      	mov	ip, r0
100049b6:	bc01      	pop	{r0}
100049b8:	4760      	bx	ip
100049ba:	bf00      	nop
100049bc:	20000109 	.word	0x20000109

100049c0 <__hw_endpoint_start_next_buffer_veneer>:
100049c0:	b401      	push	{r0}
100049c2:	4802      	ldr	r0, [pc, #8]	; (100049cc <__hw_endpoint_start_next_buffer_veneer+0xc>)
100049c4:	4684      	mov	ip, r0
100049c6:	bc01      	pop	{r0}
100049c8:	4760      	bx	ip
100049ca:	bf00      	nop
100049cc:	20000bb5 	.word	0x20000bb5

100049d0 <__hw_endpoint_reset_transfer_veneer>:
100049d0:	b401      	push	{r0}
100049d2:	4802      	ldr	r0, [pc, #8]	; (100049dc <__hw_endpoint_reset_transfer_veneer+0xc>)
100049d4:	4684      	mov	ip, r0
100049d6:	bc01      	pop	{r0}
100049d8:	4760      	bx	ip
100049da:	bf00      	nop
100049dc:	20000b51 	.word	0x20000b51

100049e0 <___hw_endpoint_buffer_control_update32_veneer>:
100049e0:	b401      	push	{r0}
100049e2:	4802      	ldr	r0, [pc, #8]	; (100049ec <___hw_endpoint_buffer_control_update32_veneer+0xc>)
100049e4:	4684      	mov	ip, r0
100049e6:	bc01      	pop	{r0}
100049e8:	4760      	bx	ip
100049ea:	bf00      	nop
100049ec:	20000b5d 	.word	0x20000b5d

100049f0 <__e15_is_bulkin_ep.isra.0_veneer>:
100049f0:	b401      	push	{r0}
100049f2:	4802      	ldr	r0, [pc, #8]	; (100049fc <__e15_is_bulkin_ep.isra.0_veneer+0xc>)
100049f4:	4684      	mov	ip, r0
100049f6:	bc01      	pop	{r0}
100049f8:	4760      	bx	ip
100049fa:	bf00      	nop
100049fc:	20000af1 	.word	0x20000af1

Disassembly of section .data:

200000c0 <mutex_try_enter>:
200000c0:	0003      	movs	r3, r0
200000c2:	b510      	push	{r4, lr}
200000c4:	6800      	ldr	r0, [r0, #0]
200000c6:	f3ef 8410 	mrs	r4, PRIMASK
200000ca:	b672      	cpsid	i
200000cc:	6802      	ldr	r2, [r0, #0]
200000ce:	2a00      	cmp	r2, #0
200000d0:	d0fc      	beq.n	200000cc <mutex_try_enter+0xc>
200000d2:	f3bf 8f5f 	dmb	sy
200000d6:	2204      	movs	r2, #4
200000d8:	569a      	ldrsb	r2, [r3, r2]
200000da:	2a00      	cmp	r2, #0
200000dc:	db0b      	blt.n	200000f6 <mutex_try_enter+0x36>
200000de:	2900      	cmp	r1, #0
200000e0:	d00f      	beq.n	20000102 <mutex_try_enter+0x42>
200000e2:	2000      	movs	r0, #0
200000e4:	600a      	str	r2, [r1, #0]
200000e6:	681b      	ldr	r3, [r3, #0]
200000e8:	f3bf 8f5f 	dmb	sy
200000ec:	2200      	movs	r2, #0
200000ee:	601a      	str	r2, [r3, #0]
200000f0:	f384 8810 	msr	PRIMASK, r4
200000f4:	bd10      	pop	{r4, pc}
200000f6:	22d0      	movs	r2, #208	; 0xd0
200000f8:	0612      	lsls	r2, r2, #24
200000fa:	6812      	ldr	r2, [r2, #0]
200000fc:	2001      	movs	r0, #1
200000fe:	711a      	strb	r2, [r3, #4]
20000100:	e7f1      	b.n	200000e6 <mutex_try_enter+0x26>
20000102:	2000      	movs	r0, #0
20000104:	e7ef      	b.n	200000e6 <mutex_try_enter+0x26>
20000106:	46c0      	nop			; (mov r8, r8)

20000108 <mutex_try_enter_block_until>:
20000108:	b5f0      	push	{r4, r5, r6, r7, lr}
2000010a:	46c6      	mov	lr, r8
2000010c:	0016      	movs	r6, r2
2000010e:	b500      	push	{lr}
20000110:	0004      	movs	r4, r0
20000112:	001f      	movs	r7, r3
20000114:	6802      	ldr	r2, [r0, #0]
20000116:	f3ef 8110 	mrs	r1, PRIMASK
2000011a:	b672      	cpsid	i
2000011c:	6813      	ldr	r3, [r2, #0]
2000011e:	2b00      	cmp	r3, #0
20000120:	d0fc      	beq.n	2000011c <mutex_try_enter_block_until+0x14>
20000122:	f3bf 8f5f 	dmb	sy
20000126:	2304      	movs	r3, #4
20000128:	56e3      	ldrsb	r3, [r4, r3]
2000012a:	2b00      	cmp	r3, #0
2000012c:	db36      	blt.n	2000019c <mutex_try_enter_block_until+0x94>
2000012e:	6822      	ldr	r2, [r4, #0]
20000130:	f3bf 8f5f 	dmb	sy
20000134:	2000      	movs	r0, #0
20000136:	6010      	str	r0, [r2, #0]
20000138:	f381 8810 	msr	PRIMASK, r1
2000013c:	22d0      	movs	r2, #208	; 0xd0
2000013e:	2500      	movs	r5, #0
20000140:	0612      	lsls	r2, r2, #24
20000142:	5755      	ldrsb	r5, [r2, r5]
20000144:	429d      	cmp	r5, r3
20000146:	d103      	bne.n	20000150 <mutex_try_enter_block_until+0x48>
20000148:	2000      	movs	r0, #0
2000014a:	bc04      	pop	{r2}
2000014c:	4690      	mov	r8, r2
2000014e:	bdf0      	pop	{r4, r5, r6, r7, pc}
20000150:	2300      	movs	r3, #0
20000152:	4698      	mov	r8, r3
20000154:	e00c      	b.n	20000170 <mutex_try_enter_block_until+0x68>
20000156:	6822      	ldr	r2, [r4, #0]
20000158:	f3bf 8f5f 	dmb	sy
2000015c:	4641      	mov	r1, r8
2000015e:	6011      	str	r1, [r2, #0]
20000160:	f383 8810 	msr	PRIMASK, r3
20000164:	0030      	movs	r0, r6
20000166:	0039      	movs	r1, r7
20000168:	f000 fe6a 	bl	20000e40 <__best_effort_wfe_or_timeout_veneer>
2000016c:	2800      	cmp	r0, #0
2000016e:	d1eb      	bne.n	20000148 <mutex_try_enter_block_until+0x40>
20000170:	6822      	ldr	r2, [r4, #0]
20000172:	f3ef 8310 	mrs	r3, PRIMASK
20000176:	b672      	cpsid	i
20000178:	6811      	ldr	r1, [r2, #0]
2000017a:	2900      	cmp	r1, #0
2000017c:	d0fc      	beq.n	20000178 <mutex_try_enter_block_until+0x70>
2000017e:	f3bf 8f5f 	dmb	sy
20000182:	7922      	ldrb	r2, [r4, #4]
20000184:	2a7f      	cmp	r2, #127	; 0x7f
20000186:	d9e6      	bls.n	20000156 <mutex_try_enter_block_until+0x4e>
20000188:	7125      	strb	r5, [r4, #4]
2000018a:	6822      	ldr	r2, [r4, #0]
2000018c:	f3bf 8f5f 	dmb	sy
20000190:	2100      	movs	r1, #0
20000192:	6011      	str	r1, [r2, #0]
20000194:	f383 8810 	msr	PRIMASK, r3
20000198:	2001      	movs	r0, #1
2000019a:	e7d6      	b.n	2000014a <mutex_try_enter_block_until+0x42>
2000019c:	23d0      	movs	r3, #208	; 0xd0
2000019e:	061b      	lsls	r3, r3, #24
200001a0:	681b      	ldr	r3, [r3, #0]
200001a2:	7123      	strb	r3, [r4, #4]
200001a4:	6823      	ldr	r3, [r4, #0]
200001a6:	f3bf 8f5f 	dmb	sy
200001aa:	2200      	movs	r2, #0
200001ac:	601a      	str	r2, [r3, #0]
200001ae:	f381 8810 	msr	PRIMASK, r1
200001b2:	2001      	movs	r0, #1
200001b4:	e7c9      	b.n	2000014a <mutex_try_enter_block_until+0x42>
200001b6:	46c0      	nop			; (mov r8, r8)

200001b8 <mutex_enter_timeout_ms>:
200001b8:	b5f0      	push	{r4, r5, r6, r7, lr}
200001ba:	46c6      	mov	lr, r8
200001bc:	b500      	push	{lr}
200001be:	000f      	movs	r7, r1
200001c0:	0006      	movs	r6, r0
200001c2:	f000 fe15 	bl	20000df0 <__time_us_64_veneer>
200001c6:	22fa      	movs	r2, #250	; 0xfa
200001c8:	0004      	movs	r4, r0
200001ca:	000d      	movs	r5, r1
200001cc:	0092      	lsls	r2, r2, #2
200001ce:	2300      	movs	r3, #0
200001d0:	0038      	movs	r0, r7
200001d2:	2100      	movs	r1, #0
200001d4:	f000 fe2c 	bl	20000e30 <____wrap___aeabi_lmul_veneer>
200001d8:	1824      	adds	r4, r4, r0
200001da:	414d      	adcs	r5, r1
200001dc:	2d00      	cmp	r5, #0
200001de:	db2c      	blt.n	2000023a <mutex_enter_timeout_ms+0x82>
200001e0:	23d0      	movs	r3, #208	; 0xd0
200001e2:	061b      	lsls	r3, r3, #24
200001e4:	681b      	ldr	r3, [r3, #0]
200001e6:	2700      	movs	r7, #0
200001e8:	4698      	mov	r8, r3
200001ea:	e00b      	b.n	20000204 <mutex_enter_timeout_ms+0x4c>
200001ec:	6832      	ldr	r2, [r6, #0]
200001ee:	f3bf 8f5f 	dmb	sy
200001f2:	6017      	str	r7, [r2, #0]
200001f4:	f383 8810 	msr	PRIMASK, r3
200001f8:	0020      	movs	r0, r4
200001fa:	0029      	movs	r1, r5
200001fc:	f000 fe20 	bl	20000e40 <__best_effort_wfe_or_timeout_veneer>
20000200:	2800      	cmp	r0, #0
20000202:	d118      	bne.n	20000236 <mutex_enter_timeout_ms+0x7e>
20000204:	6832      	ldr	r2, [r6, #0]
20000206:	f3ef 8310 	mrs	r3, PRIMASK
2000020a:	b672      	cpsid	i
2000020c:	6811      	ldr	r1, [r2, #0]
2000020e:	2900      	cmp	r1, #0
20000210:	d0fc      	beq.n	2000020c <mutex_enter_timeout_ms+0x54>
20000212:	f3bf 8f5f 	dmb	sy
20000216:	7932      	ldrb	r2, [r6, #4]
20000218:	2a7f      	cmp	r2, #127	; 0x7f
2000021a:	d9e7      	bls.n	200001ec <mutex_enter_timeout_ms+0x34>
2000021c:	4642      	mov	r2, r8
2000021e:	7132      	strb	r2, [r6, #4]
20000220:	6832      	ldr	r2, [r6, #0]
20000222:	f3bf 8f5f 	dmb	sy
20000226:	2100      	movs	r1, #0
20000228:	6011      	str	r1, [r2, #0]
2000022a:	f383 8810 	msr	PRIMASK, r3
2000022e:	2001      	movs	r0, #1
20000230:	bc04      	pop	{r2}
20000232:	4690      	mov	r8, r2
20000234:	bdf0      	pop	{r4, r5, r6, r7, pc}
20000236:	2000      	movs	r0, #0
20000238:	e7fa      	b.n	20000230 <mutex_enter_timeout_ms+0x78>
2000023a:	2401      	movs	r4, #1
2000023c:	4d01      	ldr	r5, [pc, #4]	; (20000244 <mutex_enter_timeout_ms+0x8c>)
2000023e:	4264      	negs	r4, r4
20000240:	e7ce      	b.n	200001e0 <mutex_enter_timeout_ms+0x28>
20000242:	46c0      	nop			; (mov r8, r8)
20000244:	7fffffff 	.word	0x7fffffff

20000248 <mutex_exit>:
20000248:	6802      	ldr	r2, [r0, #0]
2000024a:	f3ef 8110 	mrs	r1, PRIMASK
2000024e:	b672      	cpsid	i
20000250:	6813      	ldr	r3, [r2, #0]
20000252:	2b00      	cmp	r3, #0
20000254:	d0fc      	beq.n	20000250 <mutex_exit+0x8>
20000256:	f3bf 8f5f 	dmb	sy
2000025a:	23ff      	movs	r3, #255	; 0xff
2000025c:	7103      	strb	r3, [r0, #4]
2000025e:	6803      	ldr	r3, [r0, #0]
20000260:	f3bf 8f5f 	dmb	sy
20000264:	2200      	movs	r2, #0
20000266:	601a      	str	r2, [r3, #0]
20000268:	f381 8810 	msr	PRIMASK, r1
2000026c:	bf40      	sev
2000026e:	4770      	bx	lr

20000270 <flash_init_boot2_copyout>:
20000270:	4808      	ldr	r0, [pc, #32]	; (20000294 <flash_init_boot2_copyout+0x24>)
20000272:	b510      	push	{r4, lr}
20000274:	7803      	ldrb	r3, [r0, #0]
20000276:	2b00      	cmp	r3, #0
20000278:	d10a      	bne.n	20000290 <flash_init_boot2_copyout+0x20>
2000027a:	2380      	movs	r3, #128	; 0x80
2000027c:	4906      	ldr	r1, [pc, #24]	; (20000298 <flash_init_boot2_copyout+0x28>)
2000027e:	4a07      	ldr	r2, [pc, #28]	; (2000029c <flash_init_boot2_copyout+0x2c>)
20000280:	055b      	lsls	r3, r3, #21
20000282:	681c      	ldr	r4, [r3, #0]
20000284:	50cc      	str	r4, [r1, r3]
20000286:	3304      	adds	r3, #4
20000288:	4293      	cmp	r3, r2
2000028a:	d1fa      	bne.n	20000282 <flash_init_boot2_copyout+0x12>
2000028c:	2301      	movs	r3, #1
2000028e:	7003      	strb	r3, [r0, #0]
20000290:	bd10      	pop	{r4, pc}
20000292:	46c0      	nop			; (mov r8, r8)
20000294:	20001a0f 	.word	0x20001a0f
20000298:	10001408 	.word	0x10001408
2000029c:	10000100 	.word	0x10000100

200002a0 <flash_enable_xip_via_boot2>:
200002a0:	b510      	push	{r4, lr}
200002a2:	4b02      	ldr	r3, [pc, #8]	; (200002ac <flash_enable_xip_via_boot2+0xc>)
200002a4:	3301      	adds	r3, #1
200002a6:	4798      	blx	r3
200002a8:	bd10      	pop	{r4, pc}
200002aa:	46c0      	nop			; (mov r8, r8)
200002ac:	20001408 	.word	0x20001408

200002b0 <flash_cs_force.constprop.0>:
200002b0:	4b05      	ldr	r3, [pc, #20]	; (200002c8 <flash_cs_force.constprop.0+0x18>)
200002b2:	681a      	ldr	r2, [r3, #0]
200002b4:	2380      	movs	r3, #128	; 0x80
200002b6:	009b      	lsls	r3, r3, #2
200002b8:	4053      	eors	r3, r2
200002ba:	22c0      	movs	r2, #192	; 0xc0
200002bc:	0092      	lsls	r2, r2, #2
200002be:	4013      	ands	r3, r2
200002c0:	4a02      	ldr	r2, [pc, #8]	; (200002cc <flash_cs_force.constprop.0+0x1c>)
200002c2:	6013      	str	r3, [r2, #0]
200002c4:	4770      	bx	lr
200002c6:	46c0      	nop			; (mov r8, r8)
200002c8:	4001800c 	.word	0x4001800c
200002cc:	4001900c 	.word	0x4001900c

200002d0 <flash_cs_force.constprop.1>:
200002d0:	4b03      	ldr	r3, [pc, #12]	; (200002e0 <flash_cs_force.constprop.1+0x10>)
200002d2:	681a      	ldr	r2, [r3, #0]
200002d4:	23c0      	movs	r3, #192	; 0xc0
200002d6:	009b      	lsls	r3, r3, #2
200002d8:	4393      	bics	r3, r2
200002da:	4a02      	ldr	r2, [pc, #8]	; (200002e4 <flash_cs_force.constprop.1+0x14>)
200002dc:	6013      	str	r3, [r2, #0]
200002de:	4770      	bx	lr
200002e0:	4001800c 	.word	0x4001800c
200002e4:	4001900c 	.word	0x4001900c

200002e8 <flash_do_cmd>:
200002e8:	b5f0      	push	{r4, r5, r6, r7, lr}
200002ea:	46d6      	mov	lr, sl
200002ec:	464f      	mov	r7, r9
200002ee:	4646      	mov	r6, r8
200002f0:	2314      	movs	r3, #20
200002f2:	b5c0      	push	{r6, r7, lr}
200002f4:	2718      	movs	r7, #24
200002f6:	4698      	mov	r8, r3
200002f8:	4681      	mov	r9, r0
200002fa:	000d      	movs	r5, r1
200002fc:	8818      	ldrh	r0, [r3, #0]
200002fe:	4924      	ldr	r1, [pc, #144]	; (20000390 <flash_do_cmd+0xa8>)
20000300:	883b      	ldrh	r3, [r7, #0]
20000302:	0014      	movs	r4, r2
20000304:	4798      	blx	r3
20000306:	4643      	mov	r3, r8
20000308:	4682      	mov	sl, r0
2000030a:	4922      	ldr	r1, [pc, #136]	; (20000394 <flash_do_cmd+0xac>)
2000030c:	8818      	ldrh	r0, [r3, #0]
2000030e:	883b      	ldrh	r3, [r7, #0]
20000310:	4798      	blx	r3
20000312:	4643      	mov	r3, r8
20000314:	4920      	ldr	r1, [pc, #128]	; (20000398 <flash_do_cmd+0xb0>)
20000316:	0006      	movs	r6, r0
20000318:	8818      	ldrh	r0, [r3, #0]
2000031a:	883b      	ldrh	r3, [r7, #0]
2000031c:	4798      	blx	r3
2000031e:	4680      	mov	r8, r0
20000320:	f7ff ffa6 	bl	20000270 <flash_init_boot2_copyout>
20000324:	47d0      	blx	sl
20000326:	47b0      	blx	r6
20000328:	f7ff ffc2 	bl	200002b0 <flash_cs_force.constprop.0>
2000032c:	2c00      	cmp	r4, #0
2000032e:	d024      	beq.n	2000037a <flash_do_cmd+0x92>
20000330:	20c0      	movs	r0, #192	; 0xc0
20000332:	0022      	movs	r2, r4
20000334:	0540      	lsls	r0, r0, #21
20000336:	2608      	movs	r6, #8
20000338:	3f16      	subs	r7, #22
2000033a:	e011      	b.n	20000360 <flash_do_cmd+0x78>
2000033c:	464b      	mov	r3, r9
2000033e:	781b      	ldrb	r3, [r3, #0]
20000340:	3c01      	subs	r4, #1
20000342:	6603      	str	r3, [r0, #96]	; 0x60
20000344:	2301      	movs	r3, #1
20000346:	469c      	mov	ip, r3
20000348:	44e1      	add	r9, ip
2000034a:	2900      	cmp	r1, #0
2000034c:	d005      	beq.n	2000035a <flash_do_cmd+0x72>
2000034e:	2a00      	cmp	r2, #0
20000350:	d003      	beq.n	2000035a <flash_do_cmd+0x72>
20000352:	6e03      	ldr	r3, [r0, #96]	; 0x60
20000354:	3a01      	subs	r2, #1
20000356:	702b      	strb	r3, [r5, #0]
20000358:	3501      	adds	r5, #1
2000035a:	0013      	movs	r3, r2
2000035c:	4323      	orrs	r3, r4
2000035e:	d00c      	beq.n	2000037a <flash_do_cmd+0x92>
20000360:	0031      	movs	r1, r6
20000362:	6a83      	ldr	r3, [r0, #40]	; 0x28
20000364:	4019      	ands	r1, r3
20000366:	421f      	tst	r7, r3
20000368:	d0ef      	beq.n	2000034a <flash_do_cmd+0x62>
2000036a:	2c00      	cmp	r4, #0
2000036c:	d0ed      	beq.n	2000034a <flash_do_cmd+0x62>
2000036e:	1b13      	subs	r3, r2, r4
20000370:	2b0d      	cmp	r3, #13
20000372:	d9e3      	bls.n	2000033c <flash_do_cmd+0x54>
20000374:	2900      	cmp	r1, #0
20000376:	d1ea      	bne.n	2000034e <flash_do_cmd+0x66>
20000378:	e7f2      	b.n	20000360 <flash_do_cmd+0x78>
2000037a:	f7ff ffa9 	bl	200002d0 <flash_cs_force.constprop.1>
2000037e:	47c0      	blx	r8
20000380:	f7ff ff8e 	bl	200002a0 <flash_enable_xip_via_boot2>
20000384:	bc1c      	pop	{r2, r3, r4}
20000386:	4690      	mov	r8, r2
20000388:	4699      	mov	r9, r3
2000038a:	46a2      	mov	sl, r4
2000038c:	bdf0      	pop	{r4, r5, r6, r7, pc}
2000038e:	46c0      	nop			; (mov r8, r8)
20000390:	00004649 	.word	0x00004649
20000394:	00005845 	.word	0x00005845
20000398:	00004346 	.word	0x00004346

2000039c <reset_non_control_endpoints>:
2000039c:	2300      	movs	r3, #0
2000039e:	4a1c      	ldr	r2, [pc, #112]	; (20000410 <reset_non_control_endpoints+0x74>)
200003a0:	b510      	push	{r4, lr}
200003a2:	6093      	str	r3, [r2, #8]
200003a4:	60d3      	str	r3, [r2, #12]
200003a6:	4a1b      	ldr	r2, [pc, #108]	; (20000414 <reset_non_control_endpoints+0x78>)
200003a8:	2100      	movs	r1, #0
200003aa:	6093      	str	r3, [r2, #8]
200003ac:	60d3      	str	r3, [r2, #12]
200003ae:	4a1a      	ldr	r2, [pc, #104]	; (20000418 <reset_non_control_endpoints+0x7c>)
200003b0:	481a      	ldr	r0, [pc, #104]	; (2000041c <reset_non_control_endpoints+0x80>)
200003b2:	6093      	str	r3, [r2, #8]
200003b4:	60d3      	str	r3, [r2, #12]
200003b6:	4a1a      	ldr	r2, [pc, #104]	; (20000420 <reset_non_control_endpoints+0x84>)
200003b8:	6093      	str	r3, [r2, #8]
200003ba:	60d3      	str	r3, [r2, #12]
200003bc:	4a19      	ldr	r2, [pc, #100]	; (20000424 <reset_non_control_endpoints+0x88>)
200003be:	6093      	str	r3, [r2, #8]
200003c0:	60d3      	str	r3, [r2, #12]
200003c2:	4a19      	ldr	r2, [pc, #100]	; (20000428 <reset_non_control_endpoints+0x8c>)
200003c4:	6093      	str	r3, [r2, #8]
200003c6:	60d3      	str	r3, [r2, #12]
200003c8:	4a18      	ldr	r2, [pc, #96]	; (2000042c <reset_non_control_endpoints+0x90>)
200003ca:	6093      	str	r3, [r2, #8]
200003cc:	60d3      	str	r3, [r2, #12]
200003ce:	4a18      	ldr	r2, [pc, #96]	; (20000430 <reset_non_control_endpoints+0x94>)
200003d0:	6093      	str	r3, [r2, #8]
200003d2:	60d3      	str	r3, [r2, #12]
200003d4:	4a17      	ldr	r2, [pc, #92]	; (20000434 <reset_non_control_endpoints+0x98>)
200003d6:	6093      	str	r3, [r2, #8]
200003d8:	60d3      	str	r3, [r2, #12]
200003da:	4a17      	ldr	r2, [pc, #92]	; (20000438 <reset_non_control_endpoints+0x9c>)
200003dc:	6093      	str	r3, [r2, #8]
200003de:	60d3      	str	r3, [r2, #12]
200003e0:	4a16      	ldr	r2, [pc, #88]	; (2000043c <reset_non_control_endpoints+0xa0>)
200003e2:	6093      	str	r3, [r2, #8]
200003e4:	60d3      	str	r3, [r2, #12]
200003e6:	4a16      	ldr	r2, [pc, #88]	; (20000440 <reset_non_control_endpoints+0xa4>)
200003e8:	6093      	str	r3, [r2, #8]
200003ea:	60d3      	str	r3, [r2, #12]
200003ec:	4a15      	ldr	r2, [pc, #84]	; (20000444 <reset_non_control_endpoints+0xa8>)
200003ee:	6093      	str	r3, [r2, #8]
200003f0:	60d3      	str	r3, [r2, #12]
200003f2:	4a15      	ldr	r2, [pc, #84]	; (20000448 <reset_non_control_endpoints+0xac>)
200003f4:	6093      	str	r3, [r2, #8]
200003f6:	60d3      	str	r3, [r2, #12]
200003f8:	4a14      	ldr	r2, [pc, #80]	; (2000044c <reset_non_control_endpoints+0xb0>)
200003fa:	6093      	str	r3, [r2, #8]
200003fc:	60d3      	str	r3, [r2, #12]
200003fe:	22f0      	movs	r2, #240	; 0xf0
20000400:	0092      	lsls	r2, r2, #2
20000402:	f000 fced 	bl	20000de0 <____wrap_memset_veneer>
20000406:	4b12      	ldr	r3, [pc, #72]	; (20000450 <reset_non_control_endpoints+0xb4>)
20000408:	4a12      	ldr	r2, [pc, #72]	; (20000454 <reset_non_control_endpoints+0xb8>)
2000040a:	601a      	str	r2, [r3, #0]
2000040c:	bd10      	pop	{r4, pc}
2000040e:	46c0      	nop			; (mov r8, r8)
20000410:	50100000 	.word	0x50100000
20000414:	50100008 	.word	0x50100008
20000418:	50100010 	.word	0x50100010
2000041c:	200015f0 	.word	0x200015f0
20000420:	50100018 	.word	0x50100018
20000424:	50100020 	.word	0x50100020
20000428:	50100028 	.word	0x50100028
2000042c:	50100030 	.word	0x50100030
20000430:	50100038 	.word	0x50100038
20000434:	50100040 	.word	0x50100040
20000438:	50100048 	.word	0x50100048
2000043c:	50100050 	.word	0x50100050
20000440:	50100058 	.word	0x50100058
20000444:	50100060 	.word	0x50100060
20000448:	50100068 	.word	0x50100068
2000044c:	50100070 	.word	0x50100070
20000450:	200019b8 	.word	0x200019b8
20000454:	50100180 	.word	0x50100180

20000458 <hw_handle_buff_status>:
20000458:	b5f0      	push	{r4, r5, r6, r7, lr}
2000045a:	4657      	mov	r7, sl
2000045c:	46de      	mov	lr, fp
2000045e:	464e      	mov	r6, r9
20000460:	4645      	mov	r5, r8
20000462:	b5e0      	push	{r5, r6, r7, lr}
20000464:	4b26      	ldr	r3, [pc, #152]	; (20000500 <hw_handle_buff_status+0xa8>)
20000466:	b087      	sub	sp, #28
20000468:	6d9f      	ldr	r7, [r3, #88]	; 0x58
2000046a:	2f00      	cmp	r7, #0
2000046c:	d024      	beq.n	200004b8 <hw_handle_buff_status+0x60>
2000046e:	4b25      	ldr	r3, [pc, #148]	; (20000504 <hw_handle_buff_status+0xac>)
20000470:	2400      	movs	r4, #0
20000472:	4699      	mov	r9, r3
20000474:	2301      	movs	r3, #1
20000476:	469b      	mov	fp, r3
20000478:	4b23      	ldr	r3, [pc, #140]	; (20000508 <hw_handle_buff_status+0xb0>)
2000047a:	2601      	movs	r6, #1
2000047c:	469a      	mov	sl, r3
2000047e:	e004      	b.n	2000048a <hw_handle_buff_status+0x32>
20000480:	3401      	adds	r4, #1
20000482:	0076      	lsls	r6, r6, #1
20000484:	b2e4      	uxtb	r4, r4
20000486:	2c20      	cmp	r4, #32
20000488:	d016      	beq.n	200004b8 <hw_handle_buff_status+0x60>
2000048a:	423e      	tst	r6, r7
2000048c:	d0f8      	beq.n	20000480 <hw_handle_buff_status+0x28>
2000048e:	464b      	mov	r3, r9
20000490:	465a      	mov	r2, fp
20000492:	659e      	str	r6, [r3, #88]	; 0x58
20000494:	0863      	lsrs	r3, r4, #1
20000496:	005b      	lsls	r3, r3, #1
20000498:	43a2      	bics	r2, r4
2000049a:	189b      	adds	r3, r3, r2
2000049c:	015b      	lsls	r3, r3, #5
2000049e:	4453      	add	r3, sl
200004a0:	0018      	movs	r0, r3
200004a2:	4698      	mov	r8, r3
200004a4:	f000 fbbc 	bl	20000c20 <hw_endpoint_xfer_continue>
200004a8:	2800      	cmp	r0, #0
200004aa:	d10c      	bne.n	200004c6 <hw_handle_buff_status+0x6e>
200004ac:	3401      	adds	r4, #1
200004ae:	43b7      	bics	r7, r6
200004b0:	b2e4      	uxtb	r4, r4
200004b2:	0076      	lsls	r6, r6, #1
200004b4:	2f00      	cmp	r7, #0
200004b6:	d1e6      	bne.n	20000486 <hw_handle_buff_status+0x2e>
200004b8:	b007      	add	sp, #28
200004ba:	bc3c      	pop	{r2, r3, r4, r5}
200004bc:	4690      	mov	r8, r2
200004be:	4699      	mov	r9, r3
200004c0:	46a2      	mov	sl, r4
200004c2:	46ab      	mov	fp, r5
200004c4:	bdf0      	pop	{r4, r5, r6, r7, pc}
200004c6:	4642      	mov	r2, r8
200004c8:	4643      	mov	r3, r8
200004ca:	8ad2      	ldrh	r2, [r2, #22]
200004cc:	789b      	ldrb	r3, [r3, #2]
200004ce:	a802      	add	r0, sp, #8
200004d0:	9201      	str	r2, [sp, #4]
200004d2:	2100      	movs	r1, #0
200004d4:	2206      	movs	r2, #6
200004d6:	3006      	adds	r0, #6
200004d8:	9300      	str	r3, [sp, #0]
200004da:	f000 fc81 	bl	20000de0 <____wrap_memset_veneer>
200004de:	23e0      	movs	r3, #224	; 0xe0
200004e0:	ad03      	add	r5, sp, #12
200004e2:	00db      	lsls	r3, r3, #3
200004e4:	802b      	strh	r3, [r5, #0]
200004e6:	9a01      	ldr	r2, [sp, #4]
200004e8:	9b00      	ldr	r3, [sp, #0]
200004ea:	0028      	movs	r0, r5
200004ec:	2101      	movs	r1, #1
200004ee:	712b      	strb	r3, [r5, #4]
200004f0:	60aa      	str	r2, [r5, #8]
200004f2:	f000 fbbd 	bl	20000c70 <dcd_event_handler>
200004f6:	4640      	mov	r0, r8
200004f8:	f000 fb2a 	bl	20000b50 <hw_endpoint_reset_transfer>
200004fc:	e7d6      	b.n	200004ac <hw_handle_buff_status+0x54>
200004fe:	46c0      	nop			; (mov r8, r8)
20000500:	50110000 	.word	0x50110000
20000504:	50113000 	.word	0x50113000
20000508:	200015b0 	.word	0x200015b0

2000050c <dcd_rp2040_irq>:
2000050c:	2398      	movs	r3, #152	; 0x98
2000050e:	b5f0      	push	{r4, r5, r6, r7, lr}
20000510:	2480      	movs	r4, #128	; 0x80
20000512:	4acb      	ldr	r2, [pc, #812]	; (20000840 <dcd_rp2040_irq+0x334>)
20000514:	02a4      	lsls	r4, r4, #10
20000516:	58d5      	ldr	r5, [r2, r3]
20000518:	b085      	sub	sp, #20
2000051a:	402c      	ands	r4, r5
2000051c:	2610      	movs	r6, #16
2000051e:	2c00      	cmp	r4, #0
20000520:	d07a      	beq.n	20000618 <dcd_rp2040_irq+0x10c>
20000522:	4bc8      	ldr	r3, [pc, #800]	; (20000844 <dcd_rp2040_irq+0x338>)
20000524:	4cc8      	ldr	r4, [pc, #800]	; (20000848 <dcd_rp2040_irq+0x33c>)
20000526:	6a9a      	ldr	r2, [r3, #40]	; 0x28
20000528:	4bc8      	ldr	r3, [pc, #800]	; (2000084c <dcd_rp2040_irq+0x340>)
2000052a:	2600      	movs	r6, #0
2000052c:	601a      	str	r2, [r3, #0]
2000052e:	233b      	movs	r3, #59	; 0x3b
20000530:	5ce3      	ldrb	r3, [r4, r3]
20000532:	2b02      	cmp	r3, #2
20000534:	d100      	bne.n	20000538 <dcd_rp2040_irq+0x2c>
20000536:	e0fc      	b.n	20000732 <dcd_rp2040_irq+0x226>
20000538:	237b      	movs	r3, #123	; 0x7b
2000053a:	5ce3      	ldrb	r3, [r4, r3]
2000053c:	2b02      	cmp	r3, #2
2000053e:	d100      	bne.n	20000542 <dcd_rp2040_irq+0x36>
20000540:	e108      	b.n	20000754 <dcd_rp2040_irq+0x248>
20000542:	23bb      	movs	r3, #187	; 0xbb
20000544:	5ce3      	ldrb	r3, [r4, r3]
20000546:	2b02      	cmp	r3, #2
20000548:	d100      	bne.n	2000054c <dcd_rp2040_irq+0x40>
2000054a:	e115      	b.n	20000778 <dcd_rp2040_irq+0x26c>
2000054c:	23fb      	movs	r3, #251	; 0xfb
2000054e:	5ce3      	ldrb	r3, [r4, r3]
20000550:	2b02      	cmp	r3, #2
20000552:	d100      	bne.n	20000556 <dcd_rp2040_irq+0x4a>
20000554:	e122      	b.n	2000079c <dcd_rp2040_irq+0x290>
20000556:	233c      	movs	r3, #60	; 0x3c
20000558:	33ff      	adds	r3, #255	; 0xff
2000055a:	5ce3      	ldrb	r3, [r4, r3]
2000055c:	2b02      	cmp	r3, #2
2000055e:	d100      	bne.n	20000562 <dcd_rp2040_irq+0x56>
20000560:	e12e      	b.n	200007c0 <dcd_rp2040_irq+0x2b4>
20000562:	237c      	movs	r3, #124	; 0x7c
20000564:	33ff      	adds	r3, #255	; 0xff
20000566:	5ce3      	ldrb	r3, [r4, r3]
20000568:	2b02      	cmp	r3, #2
2000056a:	d100      	bne.n	2000056e <dcd_rp2040_irq+0x62>
2000056c:	e13d      	b.n	200007ea <dcd_rp2040_irq+0x2de>
2000056e:	23bc      	movs	r3, #188	; 0xbc
20000570:	33ff      	adds	r3, #255	; 0xff
20000572:	5ce3      	ldrb	r3, [r4, r3]
20000574:	2b02      	cmp	r3, #2
20000576:	d100      	bne.n	2000057a <dcd_rp2040_irq+0x6e>
20000578:	e14c      	b.n	20000814 <dcd_rp2040_irq+0x308>
2000057a:	23fc      	movs	r3, #252	; 0xfc
2000057c:	33ff      	adds	r3, #255	; 0xff
2000057e:	5ce3      	ldrb	r3, [r4, r3]
20000580:	2b02      	cmp	r3, #2
20000582:	d100      	bne.n	20000586 <dcd_rp2040_irq+0x7a>
20000584:	e180      	b.n	20000888 <dcd_rp2040_irq+0x37c>
20000586:	4bb2      	ldr	r3, [pc, #712]	; (20000850 <dcd_rp2040_irq+0x344>)
20000588:	5ce3      	ldrb	r3, [r4, r3]
2000058a:	2b02      	cmp	r3, #2
2000058c:	d100      	bne.n	20000590 <dcd_rp2040_irq+0x84>
2000058e:	e190      	b.n	200008b2 <dcd_rp2040_irq+0x3a6>
20000590:	4bb0      	ldr	r3, [pc, #704]	; (20000854 <dcd_rp2040_irq+0x348>)
20000592:	5ce3      	ldrb	r3, [r4, r3]
20000594:	2b02      	cmp	r3, #2
20000596:	d100      	bne.n	2000059a <dcd_rp2040_irq+0x8e>
20000598:	e19f      	b.n	200008da <dcd_rp2040_irq+0x3ce>
2000059a:	4baf      	ldr	r3, [pc, #700]	; (20000858 <dcd_rp2040_irq+0x34c>)
2000059c:	5ce3      	ldrb	r3, [r4, r3]
2000059e:	2b02      	cmp	r3, #2
200005a0:	d100      	bne.n	200005a4 <dcd_rp2040_irq+0x98>
200005a2:	e1ae      	b.n	20000902 <dcd_rp2040_irq+0x3f6>
200005a4:	4bad      	ldr	r3, [pc, #692]	; (2000085c <dcd_rp2040_irq+0x350>)
200005a6:	5ce3      	ldrb	r3, [r4, r3]
200005a8:	2b02      	cmp	r3, #2
200005aa:	d100      	bne.n	200005ae <dcd_rp2040_irq+0xa2>
200005ac:	e1bd      	b.n	2000092a <dcd_rp2040_irq+0x41e>
200005ae:	4bac      	ldr	r3, [pc, #688]	; (20000860 <dcd_rp2040_irq+0x354>)
200005b0:	5ce3      	ldrb	r3, [r4, r3]
200005b2:	2b02      	cmp	r3, #2
200005b4:	d100      	bne.n	200005b8 <dcd_rp2040_irq+0xac>
200005b6:	e1cc      	b.n	20000952 <dcd_rp2040_irq+0x446>
200005b8:	4baa      	ldr	r3, [pc, #680]	; (20000864 <dcd_rp2040_irq+0x358>)
200005ba:	5ce3      	ldrb	r3, [r4, r3]
200005bc:	2b02      	cmp	r3, #2
200005be:	d100      	bne.n	200005c2 <dcd_rp2040_irq+0xb6>
200005c0:	e09d      	b.n	200006fe <dcd_rp2040_irq+0x1f2>
200005c2:	4ba9      	ldr	r3, [pc, #676]	; (20000868 <dcd_rp2040_irq+0x35c>)
200005c4:	5ce3      	ldrb	r3, [r4, r3]
200005c6:	2b02      	cmp	r3, #2
200005c8:	d100      	bne.n	200005cc <dcd_rp2040_irq+0xc0>
200005ca:	e1d7      	b.n	2000097c <dcd_rp2040_irq+0x470>
200005cc:	4ba7      	ldr	r3, [pc, #668]	; (2000086c <dcd_rp2040_irq+0x360>)
200005ce:	5ce3      	ldrb	r3, [r4, r3]
200005d0:	2b02      	cmp	r3, #2
200005d2:	d100      	bne.n	200005d6 <dcd_rp2040_irq+0xca>
200005d4:	e1e9      	b.n	200009aa <dcd_rp2040_irq+0x49e>
200005d6:	2e00      	cmp	r6, #0
200005d8:	d108      	bne.n	200005ec <dcd_rp2040_irq+0xe0>
200005da:	4ba5      	ldr	r3, [pc, #660]	; (20000870 <dcd_rp2040_irq+0x364>)
200005dc:	781b      	ldrb	r3, [r3, #0]
200005de:	2b00      	cmp	r3, #0
200005e0:	d104      	bne.n	200005ec <dcd_rp2040_irq+0xe0>
200005e2:	2180      	movs	r1, #128	; 0x80
200005e4:	4aa3      	ldr	r2, [pc, #652]	; (20000874 <dcd_rp2040_irq+0x368>)
200005e6:	3390      	adds	r3, #144	; 0x90
200005e8:	0289      	lsls	r1, r1, #10
200005ea:	50d1      	str	r1, [r2, r3]
200005ec:	4b94      	ldr	r3, [pc, #592]	; (20000840 <dcd_rp2040_irq+0x334>)
200005ee:	220a      	movs	r2, #10
200005f0:	6c9c      	ldr	r4, [r3, #72]	; 0x48
200005f2:	466b      	mov	r3, sp
200005f4:	2100      	movs	r1, #0
200005f6:	1d98      	adds	r0, r3, #6
200005f8:	f000 fbf2 	bl	20000de0 <____wrap_memset_veneer>
200005fc:	23c0      	movs	r3, #192	; 0xc0
200005fe:	0564      	lsls	r4, r4, #21
20000600:	ae01      	add	r6, sp, #4
20000602:	009b      	lsls	r3, r3, #2
20000604:	0d64      	lsrs	r4, r4, #21
20000606:	6074      	str	r4, [r6, #4]
20000608:	8033      	strh	r3, [r6, #0]
2000060a:	0030      	movs	r0, r6
2000060c:	2101      	movs	r1, #1
2000060e:	2480      	movs	r4, #128	; 0x80
20000610:	f000 fb2e 	bl	20000c70 <dcd_event_handler>
20000614:	4e98      	ldr	r6, [pc, #608]	; (20000878 <dcd_rp2040_irq+0x36c>)
20000616:	02a4      	lsls	r4, r4, #10
20000618:	06eb      	lsls	r3, r5, #27
2000061a:	d500      	bpl.n	2000061e <dcd_rp2040_irq+0x112>
2000061c:	e06b      	b.n	200006f6 <dcd_rp2040_irq+0x1ea>
2000061e:	2380      	movs	r3, #128	; 0x80
20000620:	025b      	lsls	r3, r3, #9
20000622:	421d      	tst	r5, r3
20000624:	d016      	beq.n	20000654 <dcd_rp2040_irq+0x148>
20000626:	2201      	movs	r2, #1
20000628:	2123      	movs	r1, #35	; 0x23
2000062a:	431c      	orrs	r4, r3
2000062c:	4b86      	ldr	r3, [pc, #536]	; (20000848 <dcd_rp2040_irq+0x33c>)
2000062e:	a801      	add	r0, sp, #4
20000630:	545a      	strb	r2, [r3, r1]
20000632:	70da      	strb	r2, [r3, #3]
20000634:	2300      	movs	r3, #0
20000636:	8043      	strh	r3, [r0, #2]
20000638:	23c0      	movs	r3, #192	; 0xc0
2000063a:	4a90      	ldr	r2, [pc, #576]	; (2000087c <dcd_rp2040_irq+0x370>)
2000063c:	00db      	lsls	r3, r3, #3
2000063e:	8003      	strh	r3, [r0, #0]
20000640:	ab02      	add	r3, sp, #8
20000642:	ca42      	ldmia	r2!, {r1, r6}
20000644:	c342      	stmia	r3!, {r1, r6}
20000646:	2101      	movs	r1, #1
20000648:	f000 fb12 	bl	20000c70 <dcd_event_handler>
2000064c:	2280      	movs	r2, #128	; 0x80
2000064e:	4b89      	ldr	r3, [pc, #548]	; (20000874 <dcd_rp2040_irq+0x368>)
20000650:	0292      	lsls	r2, r2, #10
20000652:	651a      	str	r2, [r3, #80]	; 0x50
20000654:	2380      	movs	r3, #128	; 0x80
20000656:	015b      	lsls	r3, r3, #5
20000658:	421d      	tst	r5, r3
2000065a:	d133      	bne.n	200006c4 <dcd_rp2040_irq+0x1b8>
2000065c:	2380      	movs	r3, #128	; 0x80
2000065e:	01db      	lsls	r3, r3, #7
20000660:	421d      	tst	r5, r3
20000662:	d11c      	bne.n	2000069e <dcd_rp2040_irq+0x192>
20000664:	2380      	movs	r3, #128	; 0x80
20000666:	021b      	lsls	r3, r3, #8
20000668:	421d      	tst	r5, r3
2000066a:	d104      	bne.n	20000676 <dcd_rp2040_irq+0x16a>
2000066c:	42ac      	cmp	r4, r5
2000066e:	d000      	beq.n	20000672 <dcd_rp2040_irq+0x166>
20000670:	e1b5      	b.n	200009de <dcd_rp2040_irq+0x4d2>
20000672:	b005      	add	sp, #20
20000674:	bdf0      	pop	{r4, r5, r6, r7, pc}
20000676:	431c      	orrs	r4, r3
20000678:	466b      	mov	r3, sp
2000067a:	220a      	movs	r2, #10
2000067c:	2100      	movs	r1, #0
2000067e:	1d98      	adds	r0, r3, #6
20000680:	f000 fbae 	bl	20000de0 <____wrap_memset_veneer>
20000684:	23a0      	movs	r3, #160	; 0xa0
20000686:	ae01      	add	r6, sp, #4
20000688:	00db      	lsls	r3, r3, #3
2000068a:	8033      	strh	r3, [r6, #0]
2000068c:	2101      	movs	r1, #1
2000068e:	0030      	movs	r0, r6
20000690:	f000 faee 	bl	20000c70 <dcd_event_handler>
20000694:	2280      	movs	r2, #128	; 0x80
20000696:	4b77      	ldr	r3, [pc, #476]	; (20000874 <dcd_rp2040_irq+0x368>)
20000698:	0112      	lsls	r2, r2, #4
2000069a:	651a      	str	r2, [r3, #80]	; 0x50
2000069c:	e7e6      	b.n	2000066c <dcd_rp2040_irq+0x160>
2000069e:	431c      	orrs	r4, r3
200006a0:	466b      	mov	r3, sp
200006a2:	220a      	movs	r2, #10
200006a4:	2100      	movs	r1, #0
200006a6:	1d98      	adds	r0, r3, #6
200006a8:	f000 fb9a 	bl	20000de0 <____wrap_memset_veneer>
200006ac:	2380      	movs	r3, #128	; 0x80
200006ae:	ae01      	add	r6, sp, #4
200006b0:	00db      	lsls	r3, r3, #3
200006b2:	8033      	strh	r3, [r6, #0]
200006b4:	2101      	movs	r1, #1
200006b6:	0030      	movs	r0, r6
200006b8:	f000 fada 	bl	20000c70 <dcd_event_handler>
200006bc:	2210      	movs	r2, #16
200006be:	4b6d      	ldr	r3, [pc, #436]	; (20000874 <dcd_rp2040_irq+0x368>)
200006c0:	651a      	str	r2, [r3, #80]	; 0x50
200006c2:	e7cf      	b.n	20000664 <dcd_rp2040_irq+0x158>
200006c4:	2200      	movs	r2, #0
200006c6:	431c      	orrs	r4, r3
200006c8:	4b5d      	ldr	r3, [pc, #372]	; (20000840 <dcd_rp2040_irq+0x334>)
200006ca:	ae01      	add	r6, sp, #4
200006cc:	601a      	str	r2, [r3, #0]
200006ce:	f7ff fe65 	bl	2000039c <reset_non_control_endpoints>
200006d2:	466b      	mov	r3, sp
200006d4:	220a      	movs	r2, #10
200006d6:	2100      	movs	r1, #0
200006d8:	1d98      	adds	r0, r3, #6
200006da:	f000 fb81 	bl	20000de0 <____wrap_memset_veneer>
200006de:	2380      	movs	r3, #128	; 0x80
200006e0:	005b      	lsls	r3, r3, #1
200006e2:	8033      	strh	r3, [r6, #0]
200006e4:	2101      	movs	r1, #1
200006e6:	0030      	movs	r0, r6
200006e8:	f000 fac2 	bl	20000c70 <dcd_event_handler>
200006ec:	2280      	movs	r2, #128	; 0x80
200006ee:	4b61      	ldr	r3, [pc, #388]	; (20000874 <dcd_rp2040_irq+0x368>)
200006f0:	0312      	lsls	r2, r2, #12
200006f2:	651a      	str	r2, [r3, #80]	; 0x50
200006f4:	e7b2      	b.n	2000065c <dcd_rp2040_irq+0x150>
200006f6:	f7ff feaf 	bl	20000458 <hw_handle_buff_status>
200006fa:	0034      	movs	r4, r6
200006fc:	e78f      	b.n	2000061e <dcd_rp2040_irq+0x112>
200006fe:	4b60      	ldr	r3, [pc, #384]	; (20000880 <dcd_rp2040_irq+0x374>)
20000700:	5ce7      	ldrb	r7, [r4, r3]
20000702:	2f00      	cmp	r7, #0
20000704:	d100      	bne.n	20000708 <dcd_rp2040_irq+0x1fc>
20000706:	e75c      	b.n	200005c2 <dcd_rp2040_irq+0xb6>
20000708:	3302      	adds	r3, #2
2000070a:	5ce2      	ldrb	r2, [r4, r3]
2000070c:	2a00      	cmp	r2, #0
2000070e:	d000      	beq.n	20000712 <dcd_rp2040_irq+0x206>
20000710:	e15d      	b.n	200009ce <dcd_rp2040_irq+0x4c2>
20000712:	4b55      	ldr	r3, [pc, #340]	; (20000868 <dcd_rp2040_irq+0x35c>)
20000714:	5ce3      	ldrb	r3, [r4, r3]
20000716:	2b02      	cmp	r3, #2
20000718:	d100      	bne.n	2000071c <dcd_rp2040_irq+0x210>
2000071a:	e12e      	b.n	2000097a <dcd_rp2040_irq+0x46e>
2000071c:	4b53      	ldr	r3, [pc, #332]	; (2000086c <dcd_rp2040_irq+0x360>)
2000071e:	5ce3      	ldrb	r3, [r4, r3]
20000720:	2b02      	cmp	r3, #2
20000722:	d000      	beq.n	20000726 <dcd_rp2040_irq+0x21a>
20000724:	e762      	b.n	200005ec <dcd_rp2040_irq+0xe0>
20000726:	4b57      	ldr	r3, [pc, #348]	; (20000884 <dcd_rp2040_irq+0x378>)
20000728:	5ce3      	ldrb	r3, [r4, r3]
2000072a:	2b00      	cmp	r3, #0
2000072c:	d100      	bne.n	20000730 <dcd_rp2040_irq+0x224>
2000072e:	e75d      	b.n	200005ec <dcd_rp2040_irq+0xe0>
20000730:	e140      	b.n	200009b4 <dcd_rp2040_irq+0x4a8>
20000732:	3338      	adds	r3, #56	; 0x38
20000734:	5ce6      	ldrb	r6, [r4, r3]
20000736:	2e00      	cmp	r6, #0
20000738:	d100      	bne.n	2000073c <dcd_rp2040_irq+0x230>
2000073a:	e6fd      	b.n	20000538 <dcd_rp2040_irq+0x2c>
2000073c:	3302      	adds	r3, #2
2000073e:	5ce2      	ldrb	r2, [r4, r3]
20000740:	2a00      	cmp	r2, #0
20000742:	d100      	bne.n	20000746 <dcd_rp2040_irq+0x23a>
20000744:	e6f8      	b.n	20000538 <dcd_rp2040_irq+0x2c>
20000746:	2200      	movs	r2, #0
20000748:	0020      	movs	r0, r4
2000074a:	54e2      	strb	r2, [r4, r3]
2000074c:	3020      	adds	r0, #32
2000074e:	f000 fa31 	bl	20000bb4 <hw_endpoint_start_next_buffer>
20000752:	e6f1      	b.n	20000538 <dcd_rp2040_irq+0x2c>
20000754:	3378      	adds	r3, #120	; 0x78
20000756:	5ce3      	ldrb	r3, [r4, r3]
20000758:	2b00      	cmp	r3, #0
2000075a:	d100      	bne.n	2000075e <dcd_rp2040_irq+0x252>
2000075c:	e6f1      	b.n	20000542 <dcd_rp2040_irq+0x36>
2000075e:	227c      	movs	r2, #124	; 0x7c
20000760:	5ca1      	ldrb	r1, [r4, r2]
20000762:	001e      	movs	r6, r3
20000764:	2900      	cmp	r1, #0
20000766:	d100      	bne.n	2000076a <dcd_rp2040_irq+0x25e>
20000768:	e6eb      	b.n	20000542 <dcd_rp2040_irq+0x36>
2000076a:	2300      	movs	r3, #0
2000076c:	0020      	movs	r0, r4
2000076e:	54a3      	strb	r3, [r4, r2]
20000770:	3060      	adds	r0, #96	; 0x60
20000772:	f000 fa1f 	bl	20000bb4 <hw_endpoint_start_next_buffer>
20000776:	e6e4      	b.n	20000542 <dcd_rp2040_irq+0x36>
20000778:	33b8      	adds	r3, #184	; 0xb8
2000077a:	5ce3      	ldrb	r3, [r4, r3]
2000077c:	2b00      	cmp	r3, #0
2000077e:	d100      	bne.n	20000782 <dcd_rp2040_irq+0x276>
20000780:	e6e4      	b.n	2000054c <dcd_rp2040_irq+0x40>
20000782:	22bc      	movs	r2, #188	; 0xbc
20000784:	5ca1      	ldrb	r1, [r4, r2]
20000786:	001e      	movs	r6, r3
20000788:	2900      	cmp	r1, #0
2000078a:	d100      	bne.n	2000078e <dcd_rp2040_irq+0x282>
2000078c:	e6de      	b.n	2000054c <dcd_rp2040_irq+0x40>
2000078e:	2300      	movs	r3, #0
20000790:	0020      	movs	r0, r4
20000792:	54a3      	strb	r3, [r4, r2]
20000794:	30a0      	adds	r0, #160	; 0xa0
20000796:	f000 fa0d 	bl	20000bb4 <hw_endpoint_start_next_buffer>
2000079a:	e6d7      	b.n	2000054c <dcd_rp2040_irq+0x40>
2000079c:	33f8      	adds	r3, #248	; 0xf8
2000079e:	5ce3      	ldrb	r3, [r4, r3]
200007a0:	2b00      	cmp	r3, #0
200007a2:	d100      	bne.n	200007a6 <dcd_rp2040_irq+0x29a>
200007a4:	e6d7      	b.n	20000556 <dcd_rp2040_irq+0x4a>
200007a6:	22fc      	movs	r2, #252	; 0xfc
200007a8:	5ca1      	ldrb	r1, [r4, r2]
200007aa:	001e      	movs	r6, r3
200007ac:	2900      	cmp	r1, #0
200007ae:	d100      	bne.n	200007b2 <dcd_rp2040_irq+0x2a6>
200007b0:	e6d1      	b.n	20000556 <dcd_rp2040_irq+0x4a>
200007b2:	2300      	movs	r3, #0
200007b4:	0020      	movs	r0, r4
200007b6:	54a3      	strb	r3, [r4, r2]
200007b8:	30e0      	adds	r0, #224	; 0xe0
200007ba:	f000 f9fb 	bl	20000bb4 <hw_endpoint_start_next_buffer>
200007be:	e6ca      	b.n	20000556 <dcd_rp2040_irq+0x4a>
200007c0:	3339      	adds	r3, #57	; 0x39
200007c2:	33ff      	adds	r3, #255	; 0xff
200007c4:	5ce3      	ldrb	r3, [r4, r3]
200007c6:	2b00      	cmp	r3, #0
200007c8:	d100      	bne.n	200007cc <dcd_rp2040_irq+0x2c0>
200007ca:	e6ca      	b.n	20000562 <dcd_rp2040_irq+0x56>
200007cc:	229e      	movs	r2, #158	; 0x9e
200007ce:	0052      	lsls	r2, r2, #1
200007d0:	5ca1      	ldrb	r1, [r4, r2]
200007d2:	001e      	movs	r6, r3
200007d4:	2900      	cmp	r1, #0
200007d6:	d100      	bne.n	200007da <dcd_rp2040_irq+0x2ce>
200007d8:	e6c3      	b.n	20000562 <dcd_rp2040_irq+0x56>
200007da:	0020      	movs	r0, r4
200007dc:	2300      	movs	r3, #0
200007de:	3021      	adds	r0, #33	; 0x21
200007e0:	54a3      	strb	r3, [r4, r2]
200007e2:	30ff      	adds	r0, #255	; 0xff
200007e4:	f000 f9e6 	bl	20000bb4 <hw_endpoint_start_next_buffer>
200007e8:	e6bb      	b.n	20000562 <dcd_rp2040_irq+0x56>
200007ea:	3379      	adds	r3, #121	; 0x79
200007ec:	33ff      	adds	r3, #255	; 0xff
200007ee:	5ce3      	ldrb	r3, [r4, r3]
200007f0:	2b00      	cmp	r3, #0
200007f2:	d100      	bne.n	200007f6 <dcd_rp2040_irq+0x2ea>
200007f4:	e6bb      	b.n	2000056e <dcd_rp2040_irq+0x62>
200007f6:	22be      	movs	r2, #190	; 0xbe
200007f8:	0052      	lsls	r2, r2, #1
200007fa:	5ca1      	ldrb	r1, [r4, r2]
200007fc:	001e      	movs	r6, r3
200007fe:	2900      	cmp	r1, #0
20000800:	d100      	bne.n	20000804 <dcd_rp2040_irq+0x2f8>
20000802:	e6b4      	b.n	2000056e <dcd_rp2040_irq+0x62>
20000804:	0020      	movs	r0, r4
20000806:	2300      	movs	r3, #0
20000808:	3061      	adds	r0, #97	; 0x61
2000080a:	54a3      	strb	r3, [r4, r2]
2000080c:	30ff      	adds	r0, #255	; 0xff
2000080e:	f000 f9d1 	bl	20000bb4 <hw_endpoint_start_next_buffer>
20000812:	e6ac      	b.n	2000056e <dcd_rp2040_irq+0x62>
20000814:	33b9      	adds	r3, #185	; 0xb9
20000816:	33ff      	adds	r3, #255	; 0xff
20000818:	5ce3      	ldrb	r3, [r4, r3]
2000081a:	2b00      	cmp	r3, #0
2000081c:	d100      	bne.n	20000820 <dcd_rp2040_irq+0x314>
2000081e:	e6ac      	b.n	2000057a <dcd_rp2040_irq+0x6e>
20000820:	22de      	movs	r2, #222	; 0xde
20000822:	0052      	lsls	r2, r2, #1
20000824:	5ca1      	ldrb	r1, [r4, r2]
20000826:	001e      	movs	r6, r3
20000828:	2900      	cmp	r1, #0
2000082a:	d100      	bne.n	2000082e <dcd_rp2040_irq+0x322>
2000082c:	e6a5      	b.n	2000057a <dcd_rp2040_irq+0x6e>
2000082e:	0020      	movs	r0, r4
20000830:	2300      	movs	r3, #0
20000832:	30a1      	adds	r0, #161	; 0xa1
20000834:	54a3      	strb	r3, [r4, r2]
20000836:	30ff      	adds	r0, #255	; 0xff
20000838:	f000 f9bc 	bl	20000bb4 <hw_endpoint_start_next_buffer>
2000083c:	e69d      	b.n	2000057a <dcd_rp2040_irq+0x6e>
2000083e:	46c0      	nop			; (mov r8, r8)
20000840:	50110000 	.word	0x50110000
20000844:	40054000 	.word	0x40054000
20000848:	200015b0 	.word	0x200015b0
2000084c:	200015a8 	.word	0x200015a8
20000850:	0000023b 	.word	0x0000023b
20000854:	0000027b 	.word	0x0000027b
20000858:	000002bb 	.word	0x000002bb
2000085c:	000002fb 	.word	0x000002fb
20000860:	0000033b 	.word	0x0000033b
20000864:	0000037b 	.word	0x0000037b
20000868:	000003bb 	.word	0x000003bb
2000086c:	000003fb 	.word	0x000003fb
20000870:	20001a0e 	.word	0x20001a0e
20000874:	50113000 	.word	0x50113000
20000878:	00020010 	.word	0x00020010
2000087c:	50100000 	.word	0x50100000
20000880:	0000037a 	.word	0x0000037a
20000884:	000003fa 	.word	0x000003fa
20000888:	33f9      	adds	r3, #249	; 0xf9
2000088a:	33ff      	adds	r3, #255	; 0xff
2000088c:	5ce3      	ldrb	r3, [r4, r3]
2000088e:	2b00      	cmp	r3, #0
20000890:	d100      	bne.n	20000894 <dcd_rp2040_irq+0x388>
20000892:	e678      	b.n	20000586 <dcd_rp2040_irq+0x7a>
20000894:	22fe      	movs	r2, #254	; 0xfe
20000896:	0052      	lsls	r2, r2, #1
20000898:	5ca1      	ldrb	r1, [r4, r2]
2000089a:	001e      	movs	r6, r3
2000089c:	2900      	cmp	r1, #0
2000089e:	d100      	bne.n	200008a2 <dcd_rp2040_irq+0x396>
200008a0:	e671      	b.n	20000586 <dcd_rp2040_irq+0x7a>
200008a2:	0020      	movs	r0, r4
200008a4:	2300      	movs	r3, #0
200008a6:	30e1      	adds	r0, #225	; 0xe1
200008a8:	54a3      	strb	r3, [r4, r2]
200008aa:	30ff      	adds	r0, #255	; 0xff
200008ac:	f000 f982 	bl	20000bb4 <hw_endpoint_start_next_buffer>
200008b0:	e669      	b.n	20000586 <dcd_rp2040_irq+0x7a>
200008b2:	4b4d      	ldr	r3, [pc, #308]	; (200009e8 <dcd_rp2040_irq+0x4dc>)
200008b4:	5ce3      	ldrb	r3, [r4, r3]
200008b6:	2b00      	cmp	r3, #0
200008b8:	d100      	bne.n	200008bc <dcd_rp2040_irq+0x3b0>
200008ba:	e669      	b.n	20000590 <dcd_rp2040_irq+0x84>
200008bc:	228f      	movs	r2, #143	; 0x8f
200008be:	0092      	lsls	r2, r2, #2
200008c0:	5ca1      	ldrb	r1, [r4, r2]
200008c2:	001e      	movs	r6, r3
200008c4:	2900      	cmp	r1, #0
200008c6:	d100      	bne.n	200008ca <dcd_rp2040_irq+0x3be>
200008c8:	e662      	b.n	20000590 <dcd_rp2040_irq+0x84>
200008ca:	2300      	movs	r3, #0
200008cc:	54a3      	strb	r3, [r4, r2]
200008ce:	2388      	movs	r3, #136	; 0x88
200008d0:	009b      	lsls	r3, r3, #2
200008d2:	18e0      	adds	r0, r4, r3
200008d4:	f000 f96e 	bl	20000bb4 <hw_endpoint_start_next_buffer>
200008d8:	e65a      	b.n	20000590 <dcd_rp2040_irq+0x84>
200008da:	4b44      	ldr	r3, [pc, #272]	; (200009ec <dcd_rp2040_irq+0x4e0>)
200008dc:	5ce3      	ldrb	r3, [r4, r3]
200008de:	2b00      	cmp	r3, #0
200008e0:	d100      	bne.n	200008e4 <dcd_rp2040_irq+0x3d8>
200008e2:	e65a      	b.n	2000059a <dcd_rp2040_irq+0x8e>
200008e4:	229f      	movs	r2, #159	; 0x9f
200008e6:	0092      	lsls	r2, r2, #2
200008e8:	5ca1      	ldrb	r1, [r4, r2]
200008ea:	001e      	movs	r6, r3
200008ec:	2900      	cmp	r1, #0
200008ee:	d100      	bne.n	200008f2 <dcd_rp2040_irq+0x3e6>
200008f0:	e653      	b.n	2000059a <dcd_rp2040_irq+0x8e>
200008f2:	2300      	movs	r3, #0
200008f4:	54a3      	strb	r3, [r4, r2]
200008f6:	2398      	movs	r3, #152	; 0x98
200008f8:	009b      	lsls	r3, r3, #2
200008fa:	18e0      	adds	r0, r4, r3
200008fc:	f000 f95a 	bl	20000bb4 <hw_endpoint_start_next_buffer>
20000900:	e64b      	b.n	2000059a <dcd_rp2040_irq+0x8e>
20000902:	4b3b      	ldr	r3, [pc, #236]	; (200009f0 <dcd_rp2040_irq+0x4e4>)
20000904:	5ce3      	ldrb	r3, [r4, r3]
20000906:	2b00      	cmp	r3, #0
20000908:	d100      	bne.n	2000090c <dcd_rp2040_irq+0x400>
2000090a:	e64b      	b.n	200005a4 <dcd_rp2040_irq+0x98>
2000090c:	22af      	movs	r2, #175	; 0xaf
2000090e:	0092      	lsls	r2, r2, #2
20000910:	5ca1      	ldrb	r1, [r4, r2]
20000912:	001e      	movs	r6, r3
20000914:	2900      	cmp	r1, #0
20000916:	d100      	bne.n	2000091a <dcd_rp2040_irq+0x40e>
20000918:	e644      	b.n	200005a4 <dcd_rp2040_irq+0x98>
2000091a:	2300      	movs	r3, #0
2000091c:	54a3      	strb	r3, [r4, r2]
2000091e:	23a8      	movs	r3, #168	; 0xa8
20000920:	009b      	lsls	r3, r3, #2
20000922:	18e0      	adds	r0, r4, r3
20000924:	f000 f946 	bl	20000bb4 <hw_endpoint_start_next_buffer>
20000928:	e63c      	b.n	200005a4 <dcd_rp2040_irq+0x98>
2000092a:	4b32      	ldr	r3, [pc, #200]	; (200009f4 <dcd_rp2040_irq+0x4e8>)
2000092c:	5ce3      	ldrb	r3, [r4, r3]
2000092e:	2b00      	cmp	r3, #0
20000930:	d100      	bne.n	20000934 <dcd_rp2040_irq+0x428>
20000932:	e63c      	b.n	200005ae <dcd_rp2040_irq+0xa2>
20000934:	22bf      	movs	r2, #191	; 0xbf
20000936:	0092      	lsls	r2, r2, #2
20000938:	5ca1      	ldrb	r1, [r4, r2]
2000093a:	001e      	movs	r6, r3
2000093c:	2900      	cmp	r1, #0
2000093e:	d100      	bne.n	20000942 <dcd_rp2040_irq+0x436>
20000940:	e635      	b.n	200005ae <dcd_rp2040_irq+0xa2>
20000942:	2300      	movs	r3, #0
20000944:	54a3      	strb	r3, [r4, r2]
20000946:	23b8      	movs	r3, #184	; 0xb8
20000948:	009b      	lsls	r3, r3, #2
2000094a:	18e0      	adds	r0, r4, r3
2000094c:	f000 f932 	bl	20000bb4 <hw_endpoint_start_next_buffer>
20000950:	e62d      	b.n	200005ae <dcd_rp2040_irq+0xa2>
20000952:	4b29      	ldr	r3, [pc, #164]	; (200009f8 <dcd_rp2040_irq+0x4ec>)
20000954:	5ce3      	ldrb	r3, [r4, r3]
20000956:	2b00      	cmp	r3, #0
20000958:	d100      	bne.n	2000095c <dcd_rp2040_irq+0x450>
2000095a:	e62d      	b.n	200005b8 <dcd_rp2040_irq+0xac>
2000095c:	22cf      	movs	r2, #207	; 0xcf
2000095e:	0092      	lsls	r2, r2, #2
20000960:	5ca1      	ldrb	r1, [r4, r2]
20000962:	001e      	movs	r6, r3
20000964:	2900      	cmp	r1, #0
20000966:	d100      	bne.n	2000096a <dcd_rp2040_irq+0x45e>
20000968:	e626      	b.n	200005b8 <dcd_rp2040_irq+0xac>
2000096a:	2300      	movs	r3, #0
2000096c:	54a3      	strb	r3, [r4, r2]
2000096e:	23c8      	movs	r3, #200	; 0xc8
20000970:	009b      	lsls	r3, r3, #2
20000972:	18e0      	adds	r0, r4, r3
20000974:	f000 f91e 	bl	20000bb4 <hw_endpoint_start_next_buffer>
20000978:	e61e      	b.n	200005b8 <dcd_rp2040_irq+0xac>
2000097a:	003e      	movs	r6, r7
2000097c:	4b1f      	ldr	r3, [pc, #124]	; (200009fc <dcd_rp2040_irq+0x4f0>)
2000097e:	5ce3      	ldrb	r3, [r4, r3]
20000980:	2b00      	cmp	r3, #0
20000982:	d100      	bne.n	20000986 <dcd_rp2040_irq+0x47a>
20000984:	e622      	b.n	200005cc <dcd_rp2040_irq+0xc0>
20000986:	23ef      	movs	r3, #239	; 0xef
20000988:	009b      	lsls	r3, r3, #2
2000098a:	5ce2      	ldrb	r2, [r4, r3]
2000098c:	2a00      	cmp	r2, #0
2000098e:	d100      	bne.n	20000992 <dcd_rp2040_irq+0x486>
20000990:	e6c4      	b.n	2000071c <dcd_rp2040_irq+0x210>
20000992:	2200      	movs	r2, #0
20000994:	54e2      	strb	r2, [r4, r3]
20000996:	3b1c      	subs	r3, #28
20000998:	18e0      	adds	r0, r4, r3
2000099a:	f000 f90b 	bl	20000bb4 <hw_endpoint_start_next_buffer>
2000099e:	4b18      	ldr	r3, [pc, #96]	; (20000a00 <dcd_rp2040_irq+0x4f4>)
200009a0:	5ce3      	ldrb	r3, [r4, r3]
200009a2:	2b02      	cmp	r3, #2
200009a4:	d000      	beq.n	200009a8 <dcd_rp2040_irq+0x49c>
200009a6:	e621      	b.n	200005ec <dcd_rp2040_irq+0xe0>
200009a8:	e6bd      	b.n	20000726 <dcd_rp2040_irq+0x21a>
200009aa:	4b16      	ldr	r3, [pc, #88]	; (20000a04 <dcd_rp2040_irq+0x4f8>)
200009ac:	5ce3      	ldrb	r3, [r4, r3]
200009ae:	2b00      	cmp	r3, #0
200009b0:	d100      	bne.n	200009b4 <dcd_rp2040_irq+0x4a8>
200009b2:	e610      	b.n	200005d6 <dcd_rp2040_irq+0xca>
200009b4:	23ff      	movs	r3, #255	; 0xff
200009b6:	009b      	lsls	r3, r3, #2
200009b8:	5ce2      	ldrb	r2, [r4, r3]
200009ba:	2a00      	cmp	r2, #0
200009bc:	d100      	bne.n	200009c0 <dcd_rp2040_irq+0x4b4>
200009be:	e615      	b.n	200005ec <dcd_rp2040_irq+0xe0>
200009c0:	2200      	movs	r2, #0
200009c2:	54e2      	strb	r2, [r4, r3]
200009c4:	3b1c      	subs	r3, #28
200009c6:	18e0      	adds	r0, r4, r3
200009c8:	f000 f8f4 	bl	20000bb4 <hw_endpoint_start_next_buffer>
200009cc:	e60e      	b.n	200005ec <dcd_rp2040_irq+0xe0>
200009ce:	2200      	movs	r2, #0
200009d0:	54e2      	strb	r2, [r4, r3]
200009d2:	23d8      	movs	r3, #216	; 0xd8
200009d4:	009b      	lsls	r3, r3, #2
200009d6:	18e0      	adds	r0, r4, r3
200009d8:	f000 f8ec 	bl	20000bb4 <hw_endpoint_start_next_buffer>
200009dc:	e699      	b.n	20000712 <dcd_rp2040_irq+0x206>
200009de:	0021      	movs	r1, r4
200009e0:	4809      	ldr	r0, [pc, #36]	; (20000a08 <dcd_rp2040_irq+0x4fc>)
200009e2:	4069      	eors	r1, r5
200009e4:	f000 fa1c 	bl	20000e20 <__panic_veneer>
200009e8:	0000023a 	.word	0x0000023a
200009ec:	0000027a 	.word	0x0000027a
200009f0:	000002ba 	.word	0x000002ba
200009f4:	000002fa 	.word	0x000002fa
200009f8:	0000033a 	.word	0x0000033a
200009fc:	000003ba 	.word	0x000003ba
20000a00:	000003fb 	.word	0x000003fb
20000a04:	000003fa 	.word	0x000003fa
20000a08:	10004bd8 	.word	0x10004bd8

20000a0c <prepare_ep_buffer>:
20000a0c:	b5f8      	push	{r3, r4, r5, r6, r7, lr}
20000a0e:	8b02      	ldrh	r2, [r0, #24]
20000a10:	8a83      	ldrh	r3, [r0, #20]
20000a12:	0005      	movs	r5, r0
20000a14:	000f      	movs	r7, r1
20000a16:	1c16      	adds	r6, r2, #0
20000a18:	429a      	cmp	r2, r3
20000a1a:	d900      	bls.n	20000a1e <prepare_ep_buffer+0x12>
20000a1c:	1c1e      	adds	r6, r3, #0
20000a1e:	2480      	movs	r4, #128	; 0x80
20000a20:	b2b6      	uxth	r6, r6
20000a22:	1b9b      	subs	r3, r3, r6
20000a24:	78ea      	ldrb	r2, [r5, #3]
20000a26:	b29b      	uxth	r3, r3
20000a28:	00e4      	lsls	r4, r4, #3
20000a2a:	82ab      	strh	r3, [r5, #20]
20000a2c:	4334      	orrs	r4, r6
20000a2e:	2a00      	cmp	r2, #0
20000a30:	d002      	beq.n	20000a38 <prepare_ep_buffer+0x2c>
20000a32:	2490      	movs	r4, #144	; 0x90
20000a34:	01a4      	lsls	r4, r4, #6
20000a36:	4334      	orrs	r4, r6
20000a38:	2101      	movs	r1, #1
20000a3a:	404a      	eors	r2, r1
20000a3c:	70ea      	strb	r2, [r5, #3]
20000a3e:	786a      	ldrb	r2, [r5, #1]
20000a40:	2a00      	cmp	r2, #0
20000a42:	d009      	beq.n	20000a58 <prepare_ep_buffer+0x4c>
20000a44:	2b00      	cmp	r3, #0
20000a46:	d102      	bne.n	20000a4e <prepare_ep_buffer+0x42>
20000a48:	2380      	movs	r3, #128	; 0x80
20000a4a:	01db      	lsls	r3, r3, #7
20000a4c:	431c      	orrs	r4, r3
20000a4e:	2f00      	cmp	r7, #0
20000a50:	d000      	beq.n	20000a54 <prepare_ep_buffer+0x48>
20000a52:	0424      	lsls	r4, r4, #16
20000a54:	0020      	movs	r0, r4
20000a56:	bdf8      	pop	{r3, r4, r5, r6, r7, pc}
20000a58:	68eb      	ldr	r3, [r5, #12]
20000a5a:	01b8      	lsls	r0, r7, #6
20000a5c:	469c      	mov	ip, r3
20000a5e:	0032      	movs	r2, r6
20000a60:	4460      	add	r0, ip
20000a62:	6929      	ldr	r1, [r5, #16]
20000a64:	f000 f9d4 	bl	20000e10 <____wrap_memcpy_veneer>
20000a68:	692b      	ldr	r3, [r5, #16]
20000a6a:	469c      	mov	ip, r3
20000a6c:	2380      	movs	r3, #128	; 0x80
20000a6e:	4466      	add	r6, ip
20000a70:	021b      	lsls	r3, r3, #8
20000a72:	431c      	orrs	r4, r3
20000a74:	612e      	str	r6, [r5, #16]
20000a76:	8aab      	ldrh	r3, [r5, #20]
20000a78:	e7e4      	b.n	20000a44 <prepare_ep_buffer+0x38>
20000a7a:	46c0      	nop			; (mov r8, r8)

20000a7c <sync_ep_buffer>:
20000a7c:	6883      	ldr	r3, [r0, #8]
20000a7e:	b570      	push	{r4, r5, r6, lr}
20000a80:	0005      	movs	r5, r0
20000a82:	681c      	ldr	r4, [r3, #0]
20000a84:	2900      	cmp	r1, #0
20000a86:	d000      	beq.n	20000a8a <sync_ep_buffer+0xe>
20000a88:	0c24      	lsrs	r4, r4, #16
20000a8a:	786b      	ldrb	r3, [r5, #1]
20000a8c:	05a4      	lsls	r4, r4, #22
20000a8e:	0da4      	lsrs	r4, r4, #22
20000a90:	2b00      	cmp	r3, #0
20000a92:	d109      	bne.n	20000aa8 <sync_ep_buffer+0x2c>
20000a94:	8aeb      	ldrh	r3, [r5, #22]
20000a96:	18e3      	adds	r3, r4, r3
20000a98:	82eb      	strh	r3, [r5, #22]
20000a9a:	8b2b      	ldrh	r3, [r5, #24]
20000a9c:	42a3      	cmp	r3, r4
20000a9e:	d901      	bls.n	20000aa4 <sync_ep_buffer+0x28>
20000aa0:	2300      	movs	r3, #0
20000aa2:	82ab      	strh	r3, [r5, #20]
20000aa4:	0020      	movs	r0, r4
20000aa6:	bd70      	pop	{r4, r5, r6, pc}
20000aa8:	68eb      	ldr	r3, [r5, #12]
20000aaa:	0189      	lsls	r1, r1, #6
20000aac:	469c      	mov	ip, r3
20000aae:	0022      	movs	r2, r4
20000ab0:	4461      	add	r1, ip
20000ab2:	6928      	ldr	r0, [r5, #16]
20000ab4:	f000 f9ac 	bl	20000e10 <____wrap_memcpy_veneer>
20000ab8:	8aeb      	ldrh	r3, [r5, #22]
20000aba:	18e3      	adds	r3, r4, r3
20000abc:	82eb      	strh	r3, [r5, #22]
20000abe:	692b      	ldr	r3, [r5, #16]
20000ac0:	191b      	adds	r3, r3, r4
20000ac2:	612b      	str	r3, [r5, #16]
20000ac4:	e7e9      	b.n	20000a9a <sync_ep_buffer+0x1e>
20000ac6:	46c0      	nop			; (mov r8, r8)

20000ac8 <_hw_endpoint_xfer_sync>:
20000ac8:	b510      	push	{r4, lr}
20000aca:	0004      	movs	r4, r0
20000acc:	6883      	ldr	r3, [r0, #8]
20000ace:	2100      	movs	r1, #0
20000ad0:	681b      	ldr	r3, [r3, #0]
20000ad2:	f7ff ffd3 	bl	20000a7c <sync_ep_buffer>
20000ad6:	6863      	ldr	r3, [r4, #4]
20000ad8:	681b      	ldr	r3, [r3, #0]
20000ada:	005b      	lsls	r3, r3, #1
20000adc:	d502      	bpl.n	20000ae4 <_hw_endpoint_xfer_sync+0x1c>
20000ade:	8b23      	ldrh	r3, [r4, #24]
20000ae0:	4283      	cmp	r3, r0
20000ae2:	d000      	beq.n	20000ae6 <_hw_endpoint_xfer_sync+0x1e>
20000ae4:	bd10      	pop	{r4, pc}
20000ae6:	2101      	movs	r1, #1
20000ae8:	0020      	movs	r0, r4
20000aea:	f7ff ffc7 	bl	20000a7c <sync_ep_buffer>
20000aee:	e7f9      	b.n	20000ae4 <_hw_endpoint_xfer_sync+0x1c>

20000af0 <e15_is_bulkin_ep.isra.0>:
20000af0:	4b08      	ldr	r3, [pc, #32]	; (20000b14 <e15_is_bulkin_ep.isra.0+0x24>)
20000af2:	6c1a      	ldr	r2, [r3, #64]	; 0x40
20000af4:	2300      	movs	r3, #0
20000af6:	0792      	lsls	r2, r2, #30
20000af8:	d403      	bmi.n	20000b02 <e15_is_bulkin_ep.isra.0+0x12>
20000afa:	7802      	ldrb	r2, [r0, #0]
20000afc:	09d2      	lsrs	r2, r2, #7
20000afe:	2a01      	cmp	r2, #1
20000b00:	d001      	beq.n	20000b06 <e15_is_bulkin_ep.isra.0+0x16>
20000b02:	0018      	movs	r0, r3
20000b04:	4770      	bx	lr
20000b06:	780b      	ldrb	r3, [r1, #0]
20000b08:	3b02      	subs	r3, #2
20000b0a:	4258      	negs	r0, r3
20000b0c:	4143      	adcs	r3, r0
20000b0e:	b2db      	uxtb	r3, r3
20000b10:	e7f7      	b.n	20000b02 <e15_is_bulkin_ep.isra.0+0x12>
20000b12:	46c0      	nop			; (mov r8, r8)
20000b14:	50110000 	.word	0x50110000

20000b18 <e15_is_critical_frame_period>:
20000b18:	0001      	movs	r1, r0
20000b1a:	b510      	push	{r4, lr}
20000b1c:	311b      	adds	r1, #27
20000b1e:	3002      	adds	r0, #2
20000b20:	f7ff ffe6 	bl	20000af0 <e15_is_bulkin_ep.isra.0>
20000b24:	2800      	cmp	r0, #0
20000b26:	d00c      	beq.n	20000b42 <e15_is_critical_frame_period+0x2a>
20000b28:	4906      	ldr	r1, [pc, #24]	; (20000b44 <e15_is_critical_frame_period+0x2c>)
20000b2a:	4b07      	ldr	r3, [pc, #28]	; (20000b48 <e15_is_critical_frame_period+0x30>)
20000b2c:	468c      	mov	ip, r1
20000b2e:	4a07      	ldr	r2, [pc, #28]	; (20000b4c <e15_is_critical_frame_period+0x34>)
20000b30:	6a9b      	ldr	r3, [r3, #40]	; 0x28
20000b32:	6812      	ldr	r2, [r2, #0]
20000b34:	4463      	add	r3, ip
20000b36:	1a9b      	subs	r3, r3, r2
20000b38:	2000      	movs	r0, #0
20000b3a:	22c6      	movs	r2, #198	; 0xc6
20000b3c:	429a      	cmp	r2, r3
20000b3e:	4140      	adcs	r0, r0
20000b40:	b2c0      	uxtb	r0, r0
20000b42:	bd10      	pop	{r4, pc}
20000b44:	fffffce0 	.word	0xfffffce0
20000b48:	40054000 	.word	0x40054000
20000b4c:	200015a8 	.word	0x200015a8

20000b50 <hw_endpoint_reset_transfer>:
20000b50:	2300      	movs	r3, #0
20000b52:	7683      	strb	r3, [r0, #26]
20000b54:	6143      	str	r3, [r0, #20]
20000b56:	6103      	str	r3, [r0, #16]
20000b58:	4770      	bx	lr
20000b5a:	46c0      	nop			; (mov r8, r8)

20000b5c <_hw_endpoint_buffer_control_update32>:
20000b5c:	b510      	push	{r4, lr}
20000b5e:	6883      	ldr	r3, [r0, #8]
20000b60:	2900      	cmp	r1, #0
20000b62:	d001      	beq.n	20000b68 <_hw_endpoint_buffer_control_update32+0xc>
20000b64:	681c      	ldr	r4, [r3, #0]
20000b66:	4021      	ands	r1, r4
20000b68:	2a00      	cmp	r2, #0
20000b6a:	d011      	beq.n	20000b90 <_hw_endpoint_buffer_control_update32+0x34>
20000b6c:	2480      	movs	r4, #128	; 0x80
20000b6e:	00e4      	lsls	r4, r4, #3
20000b70:	4311      	orrs	r1, r2
20000b72:	4222      	tst	r2, r4
20000b74:	d00c      	beq.n	20000b90 <_hw_endpoint_buffer_control_update32+0x34>
20000b76:	681a      	ldr	r2, [r3, #0]
20000b78:	4222      	tst	r2, r4
20000b7a:	d10b      	bne.n	20000b94 <_hw_endpoint_buffer_control_update32+0x38>
20000b7c:	4a0a      	ldr	r2, [pc, #40]	; (20000ba8 <_hw_endpoint_buffer_control_update32+0x4c>)
20000b7e:	400a      	ands	r2, r1
20000b80:	601a      	str	r2, [r3, #0]
20000b82:	e7ff      	b.n	20000b84 <_hw_endpoint_buffer_control_update32+0x28>
20000b84:	e7ff      	b.n	20000b86 <_hw_endpoint_buffer_control_update32+0x2a>
20000b86:	e7ff      	b.n	20000b88 <_hw_endpoint_buffer_control_update32+0x2c>
20000b88:	e7ff      	b.n	20000b8a <_hw_endpoint_buffer_control_update32+0x2e>
20000b8a:	e7ff      	b.n	20000b8c <_hw_endpoint_buffer_control_update32+0x30>
20000b8c:	e7ff      	b.n	20000b8e <_hw_endpoint_buffer_control_update32+0x32>
20000b8e:	6883      	ldr	r3, [r0, #8]
20000b90:	6019      	str	r1, [r3, #0]
20000b92:	bd10      	pop	{r4, pc}
20000b94:	227f      	movs	r2, #127	; 0x7f
20000b96:	7881      	ldrb	r1, [r0, #2]
20000b98:	4804      	ldr	r0, [pc, #16]	; (20000bac <_hw_endpoint_buffer_control_update32+0x50>)
20000b9a:	09cb      	lsrs	r3, r1, #7
20000b9c:	4011      	ands	r1, r2
20000b9e:	4a04      	ldr	r2, [pc, #16]	; (20000bb0 <_hw_endpoint_buffer_control_update32+0x54>)
20000ba0:	009b      	lsls	r3, r3, #2
20000ba2:	589a      	ldr	r2, [r3, r2]
20000ba4:	f000 f93c 	bl	20000e20 <__panic_veneer>
20000ba8:	fffffbff 	.word	0xfffffbff
20000bac:	10004bec 	.word	0x10004bec
20000bb0:	20000f08 	.word	0x20000f08

20000bb4 <hw_endpoint_start_next_buffer>:
20000bb4:	6843      	ldr	r3, [r0, #4]
20000bb6:	b570      	push	{r4, r5, r6, lr}
20000bb8:	2100      	movs	r1, #0
20000bba:	2580      	movs	r5, #128	; 0x80
20000bbc:	681e      	ldr	r6, [r3, #0]
20000bbe:	0004      	movs	r4, r0
20000bc0:	f7ff ff24 	bl	20000a0c <prepare_ep_buffer>
20000bc4:	4b13      	ldr	r3, [pc, #76]	; (20000c14 <hw_endpoint_start_next_buffer+0x60>)
20000bc6:	016d      	lsls	r5, r5, #5
20000bc8:	6c1b      	ldr	r3, [r3, #64]	; 0x40
20000bca:	4305      	orrs	r5, r0
20000bcc:	079b      	lsls	r3, r3, #30
20000bce:	d50f      	bpl.n	20000bf0 <hw_endpoint_start_next_buffer+0x3c>
20000bd0:	78a3      	ldrb	r3, [r4, #2]
20000bd2:	065b      	lsls	r3, r3, #25
20000bd4:	d00f      	beq.n	20000bf6 <hw_endpoint_start_next_buffer+0x42>
20000bd6:	4b10      	ldr	r3, [pc, #64]	; (20000c18 <hw_endpoint_start_next_buffer+0x64>)
20000bd8:	401e      	ands	r6, r3
20000bda:	2380      	movs	r3, #128	; 0x80
20000bdc:	059b      	lsls	r3, r3, #22
20000bde:	4333      	orrs	r3, r6
20000be0:	6862      	ldr	r2, [r4, #4]
20000be2:	2100      	movs	r1, #0
20000be4:	6013      	str	r3, [r2, #0]
20000be6:	0020      	movs	r0, r4
20000be8:	002a      	movs	r2, r5
20000bea:	f7ff ffb7 	bl	20000b5c <_hw_endpoint_buffer_control_update32>
20000bee:	bd70      	pop	{r4, r5, r6, pc}
20000bf0:	78a3      	ldrb	r3, [r4, #2]
20000bf2:	09db      	lsrs	r3, r3, #7
20000bf4:	d0ef      	beq.n	20000bd6 <hw_endpoint_start_next_buffer+0x22>
20000bf6:	8aa3      	ldrh	r3, [r4, #20]
20000bf8:	2b00      	cmp	r3, #0
20000bfa:	d0ec      	beq.n	20000bd6 <hw_endpoint_start_next_buffer+0x22>
20000bfc:	2101      	movs	r1, #1
20000bfe:	0020      	movs	r0, r4
20000c00:	f7ff ff04 	bl	20000a0c <prepare_ep_buffer>
20000c04:	23a0      	movs	r3, #160	; 0xa0
20000c06:	4a05      	ldr	r2, [pc, #20]	; (20000c1c <hw_endpoint_start_next_buffer+0x68>)
20000c08:	05db      	lsls	r3, r3, #23
20000c0a:	4032      	ands	r2, r6
20000c0c:	4305      	orrs	r5, r0
20000c0e:	4313      	orrs	r3, r2
20000c10:	e7e6      	b.n	20000be0 <hw_endpoint_start_next_buffer+0x2c>
20000c12:	46c0      	nop			; (mov r8, r8)
20000c14:	50110000 	.word	0x50110000
20000c18:	afffffff 	.word	0xafffffff
20000c1c:	dfffffff 	.word	0xdfffffff

20000c20 <hw_endpoint_xfer_continue>:
20000c20:	b570      	push	{r4, r5, r6, lr}
20000c22:	7e85      	ldrb	r5, [r0, #26]
20000c24:	0004      	movs	r4, r0
20000c26:	2d00      	cmp	r5, #0
20000c28:	d013      	beq.n	20000c52 <hw_endpoint_xfer_continue+0x32>
20000c2a:	f7ff ff4d 	bl	20000ac8 <_hw_endpoint_xfer_sync>
20000c2e:	8aa3      	ldrh	r3, [r4, #20]
20000c30:	2b00      	cmp	r3, #0
20000c32:	d101      	bne.n	20000c38 <hw_endpoint_xfer_continue+0x18>
20000c34:	0028      	movs	r0, r5
20000c36:	bd70      	pop	{r4, r5, r6, pc}
20000c38:	0020      	movs	r0, r4
20000c3a:	f7ff ff6d 	bl	20000b18 <e15_is_critical_frame_period>
20000c3e:	1e05      	subs	r5, r0, #0
20000c40:	d003      	beq.n	20000c4a <hw_endpoint_xfer_continue+0x2a>
20000c42:	2301      	movs	r3, #1
20000c44:	2500      	movs	r5, #0
20000c46:	7723      	strb	r3, [r4, #28]
20000c48:	e7f4      	b.n	20000c34 <hw_endpoint_xfer_continue+0x14>
20000c4a:	0020      	movs	r0, r4
20000c4c:	f7ff ffb2 	bl	20000bb4 <hw_endpoint_start_next_buffer>
20000c50:	e7f0      	b.n	20000c34 <hw_endpoint_xfer_continue+0x14>
20000c52:	227f      	movs	r2, #127	; 0x7f
20000c54:	7881      	ldrb	r1, [r0, #2]
20000c56:	4804      	ldr	r0, [pc, #16]	; (20000c68 <hw_endpoint_xfer_continue+0x48>)
20000c58:	09cb      	lsrs	r3, r1, #7
20000c5a:	4011      	ands	r1, r2
20000c5c:	4a03      	ldr	r2, [pc, #12]	; (20000c6c <hw_endpoint_xfer_continue+0x4c>)
20000c5e:	009b      	lsls	r3, r3, #2
20000c60:	589a      	ldr	r2, [r3, r2]
20000c62:	f000 f8dd 	bl	20000e20 <__panic_veneer>
20000c66:	46c0      	nop			; (mov r8, r8)
20000c68:	10004c0c 	.word	0x10004c0c
20000c6c:	20000f08 	.word	0x20000f08

20000c70 <dcd_event_handler>:
20000c70:	b5f0      	push	{r4, r5, r6, r7, lr}
20000c72:	7843      	ldrb	r3, [r0, #1]
20000c74:	b085      	sub	sp, #20
20000c76:	0005      	movs	r5, r0
20000c78:	2b03      	cmp	r3, #3
20000c7a:	d05c      	beq.n	20000d36 <dcd_event_handler+0xc6>
20000c7c:	d915      	bls.n	20000caa <dcd_event_handler+0x3a>
20000c7e:	2b04      	cmp	r3, #4
20000c80:	d047      	beq.n	20000d12 <dcd_event_handler+0xa2>
20000c82:	2b05      	cmp	r3, #5
20000c84:	d13b      	bne.n	20000cfe <dcd_event_handler+0x8e>
20000c86:	4b50      	ldr	r3, [pc, #320]	; (20000dc8 <dcd_event_handler+0x158>)
20000c88:	781a      	ldrb	r2, [r3, #0]
20000c8a:	07d2      	lsls	r2, r2, #31
20000c8c:	d535      	bpl.n	20000cfa <dcd_event_handler+0x8a>
20000c8e:	2104      	movs	r1, #4
20000c90:	781a      	ldrb	r2, [r3, #0]
20000c92:	438a      	bics	r2, r1
20000c94:	701a      	strb	r2, [r3, #0]
20000c96:	4b4d      	ldr	r3, [pc, #308]	; (20000dcc <dcd_event_handler+0x15c>)
20000c98:	681c      	ldr	r4, [r3, #0]
20000c9a:	6962      	ldr	r2, [r4, #20]
20000c9c:	f3ef 8110 	mrs	r1, PRIMASK
20000ca0:	b672      	cpsid	i
20000ca2:	6813      	ldr	r3, [r2, #0]
20000ca4:	2b00      	cmp	r3, #0
20000ca6:	d119      	bne.n	20000cdc <dcd_event_handler+0x6c>
20000ca8:	e7fb      	b.n	20000ca2 <dcd_event_handler+0x32>
20000caa:	2b02      	cmp	r3, #2
20000cac:	d127      	bne.n	20000cfe <dcd_event_handler+0x8e>
20000cae:	2001      	movs	r0, #1
20000cb0:	4a45      	ldr	r2, [pc, #276]	; (20000dc8 <dcd_event_handler+0x158>)
20000cb2:	7811      	ldrb	r1, [r2, #0]
20000cb4:	4381      	bics	r1, r0
20000cb6:	7011      	strb	r1, [r2, #0]
20000cb8:	7811      	ldrb	r1, [r2, #0]
20000cba:	4399      	bics	r1, r3
20000cbc:	2300      	movs	r3, #0
20000cbe:	7011      	strb	r1, [r2, #0]
20000cc0:	2104      	movs	r1, #4
20000cc2:	7053      	strb	r3, [r2, #1]
20000cc4:	7813      	ldrb	r3, [r2, #0]
20000cc6:	438b      	bics	r3, r1
20000cc8:	7013      	strb	r3, [r2, #0]
20000cca:	4b40      	ldr	r3, [pc, #256]	; (20000dcc <dcd_event_handler+0x15c>)
20000ccc:	681c      	ldr	r4, [r3, #0]
20000cce:	6962      	ldr	r2, [r4, #20]
20000cd0:	f3ef 8110 	mrs	r1, PRIMASK
20000cd4:	b672      	cpsid	i
20000cd6:	6813      	ldr	r3, [r2, #0]
20000cd8:	2b00      	cmp	r3, #0
20000cda:	d0fc      	beq.n	20000cd6 <dcd_event_handler+0x66>
20000cdc:	f3bf 8f5f 	dmb	sy
20000ce0:	61a1      	str	r1, [r4, #24]
20000ce2:	0029      	movs	r1, r5
20000ce4:	0020      	movs	r0, r4
20000ce6:	f000 f88b 	bl	20000e00 <__tu_fifo_write_veneer>
20000cea:	6962      	ldr	r2, [r4, #20]
20000cec:	69a3      	ldr	r3, [r4, #24]
20000cee:	f3bf 8f5f 	dmb	sy
20000cf2:	2100      	movs	r1, #0
20000cf4:	6011      	str	r1, [r2, #0]
20000cf6:	f383 8810 	msr	PRIMASK, r3
20000cfa:	b005      	add	sp, #20
20000cfc:	bdf0      	pop	{r4, r5, r6, r7, pc}
20000cfe:	4b33      	ldr	r3, [pc, #204]	; (20000dcc <dcd_event_handler+0x15c>)
20000d00:	681c      	ldr	r4, [r3, #0]
20000d02:	6962      	ldr	r2, [r4, #20]
20000d04:	f3ef 8110 	mrs	r1, PRIMASK
20000d08:	b672      	cpsid	i
20000d0a:	6813      	ldr	r3, [r2, #0]
20000d0c:	2b00      	cmp	r3, #0
20000d0e:	d1e5      	bne.n	20000cdc <dcd_event_handler+0x6c>
20000d10:	e7fb      	b.n	20000d0a <dcd_event_handler+0x9a>
20000d12:	4b2d      	ldr	r3, [pc, #180]	; (20000dc8 <dcd_event_handler+0x158>)
20000d14:	781a      	ldrb	r2, [r3, #0]
20000d16:	07d2      	lsls	r2, r2, #31
20000d18:	d5ef      	bpl.n	20000cfa <dcd_event_handler+0x8a>
20000d1a:	2104      	movs	r1, #4
20000d1c:	781a      	ldrb	r2, [r3, #0]
20000d1e:	430a      	orrs	r2, r1
20000d20:	701a      	strb	r2, [r3, #0]
20000d22:	4b2a      	ldr	r3, [pc, #168]	; (20000dcc <dcd_event_handler+0x15c>)
20000d24:	681c      	ldr	r4, [r3, #0]
20000d26:	6962      	ldr	r2, [r4, #20]
20000d28:	f3ef 8110 	mrs	r1, PRIMASK
20000d2c:	b672      	cpsid	i
20000d2e:	6813      	ldr	r3, [r2, #0]
20000d30:	2b00      	cmp	r3, #0
20000d32:	d1d3      	bne.n	20000cdc <dcd_event_handler+0x6c>
20000d34:	e7fb      	b.n	20000d2e <dcd_event_handler+0xbe>
20000d36:	4e26      	ldr	r6, [pc, #152]	; (20000dd0 <dcd_event_handler+0x160>)
20000d38:	4a26      	ldr	r2, [pc, #152]	; (20000dd4 <dcd_event_handler+0x164>)
20000d3a:	7833      	ldrb	r3, [r6, #0]
20000d3c:	2400      	movs	r4, #0
20000d3e:	2a00      	cmp	r2, #0
20000d40:	d03b      	beq.n	20000dba <dcd_event_handler+0x14a>
20000d42:	4f25      	ldr	r7, [pc, #148]	; (20000dd8 <dcd_event_handler+0x168>)
20000d44:	e003      	b.n	20000d4e <dcd_event_handler+0xde>
20000d46:	3401      	adds	r4, #1
20000d48:	b2e4      	uxtb	r4, r4
20000d4a:	429c      	cmp	r4, r3
20000d4c:	d814      	bhi.n	20000d78 <dcd_event_handler+0x108>
20000d4e:	429c      	cmp	r4, r3
20000d50:	d2f9      	bcs.n	20000d46 <dcd_event_handler+0xd6>
20000d52:	6839      	ldr	r1, [r7, #0]
20000d54:	0062      	lsls	r2, r4, #1
20000d56:	468c      	mov	ip, r1
20000d58:	1912      	adds	r2, r2, r4
20000d5a:	00d2      	lsls	r2, r2, #3
20000d5c:	4462      	add	r2, ip
20000d5e:	2a00      	cmp	r2, #0
20000d60:	d0f1      	beq.n	20000d46 <dcd_event_handler+0xd6>
20000d62:	6952      	ldr	r2, [r2, #20]
20000d64:	2a00      	cmp	r2, #0
20000d66:	d0ee      	beq.n	20000d46 <dcd_event_handler+0xd6>
20000d68:	7828      	ldrb	r0, [r5, #0]
20000d6a:	6869      	ldr	r1, [r5, #4]
20000d6c:	4790      	blx	r2
20000d6e:	3401      	adds	r4, #1
20000d70:	7833      	ldrb	r3, [r6, #0]
20000d72:	b2e4      	uxtb	r4, r4
20000d74:	429c      	cmp	r4, r3
20000d76:	d9ea      	bls.n	20000d4e <dcd_event_handler+0xde>
20000d78:	4b13      	ldr	r3, [pc, #76]	; (20000dc8 <dcd_event_handler+0x158>)
20000d7a:	781a      	ldrb	r2, [r3, #0]
20000d7c:	0752      	lsls	r2, r2, #29
20000d7e:	d5bc      	bpl.n	20000cfa <dcd_event_handler+0x8a>
20000d80:	2104      	movs	r1, #4
20000d82:	781a      	ldrb	r2, [r3, #0]
20000d84:	ae01      	add	r6, sp, #4
20000d86:	438a      	bics	r2, r1
20000d88:	701a      	strb	r2, [r3, #0]
20000d8a:	466b      	mov	r3, sp
20000d8c:	220a      	movs	r2, #10
20000d8e:	2100      	movs	r1, #0
20000d90:	1d98      	adds	r0, r3, #6
20000d92:	f000 f825 	bl	20000de0 <____wrap_memset_veneer>
20000d96:	782b      	ldrb	r3, [r5, #0]
20000d98:	7033      	strb	r3, [r6, #0]
20000d9a:	2305      	movs	r3, #5
20000d9c:	7073      	strb	r3, [r6, #1]
20000d9e:	4b0b      	ldr	r3, [pc, #44]	; (20000dcc <dcd_event_handler+0x15c>)
20000da0:	681c      	ldr	r4, [r3, #0]
20000da2:	6962      	ldr	r2, [r4, #20]
20000da4:	f3ef 8110 	mrs	r1, PRIMASK
20000da8:	b672      	cpsid	i
20000daa:	6813      	ldr	r3, [r2, #0]
20000dac:	2b00      	cmp	r3, #0
20000dae:	d0fc      	beq.n	20000daa <dcd_event_handler+0x13a>
20000db0:	f3bf 8f5f 	dmb	sy
20000db4:	61a1      	str	r1, [r4, #24]
20000db6:	0031      	movs	r1, r6
20000db8:	e794      	b.n	20000ce4 <dcd_event_handler+0x74>
20000dba:	2200      	movs	r2, #0
20000dbc:	3201      	adds	r2, #1
20000dbe:	b2d2      	uxtb	r2, r2
20000dc0:	4293      	cmp	r3, r2
20000dc2:	d2fb      	bcs.n	20000dbc <dcd_event_handler+0x14c>
20000dc4:	e7d8      	b.n	20000d78 <dcd_event_handler+0x108>
20000dc6:	46c0      	nop			; (mov r8, r8)
20000dc8:	2000139c 	.word	0x2000139c
20000dcc:	200013f4 	.word	0x200013f4
20000dd0:	20001a0d 	.word	0x20001a0d
20000dd4:	100025ed 	.word	0x100025ed
20000dd8:	20001074 	.word	0x20001074

20000ddc <__aeabi_idiv0>:
20000ddc:	4770      	bx	lr
20000dde:	46c0      	nop			; (mov r8, r8)

20000de0 <____wrap_memset_veneer>:
20000de0:	b401      	push	{r0}
20000de2:	4802      	ldr	r0, [pc, #8]	; (20000dec <____wrap_memset_veneer+0xc>)
20000de4:	4684      	mov	ip, r0
20000de6:	bc01      	pop	{r0}
20000de8:	4760      	bx	ip
20000dea:	bf00      	nop
20000dec:	10002269 	.word	0x10002269

20000df0 <__time_us_64_veneer>:
20000df0:	b401      	push	{r0}
20000df2:	4802      	ldr	r0, [pc, #8]	; (20000dfc <__time_us_64_veneer+0xc>)
20000df4:	4684      	mov	ip, r0
20000df6:	bc01      	pop	{r0}
20000df8:	4760      	bx	ip
20000dfa:	bf00      	nop
20000dfc:	100011f1 	.word	0x100011f1

20000e00 <__tu_fifo_write_veneer>:
20000e00:	b401      	push	{r0}
20000e02:	4802      	ldr	r0, [pc, #8]	; (20000e0c <__tu_fifo_write_veneer+0xc>)
20000e04:	4684      	mov	ip, r0
20000e06:	bc01      	pop	{r0}
20000e08:	4760      	bx	ip
20000e0a:	bf00      	nop
20000e0c:	10004661 	.word	0x10004661

20000e10 <____wrap_memcpy_veneer>:
20000e10:	b401      	push	{r0}
20000e12:	4802      	ldr	r0, [pc, #8]	; (20000e1c <____wrap_memcpy_veneer+0xc>)
20000e14:	4684      	mov	ip, r0
20000e16:	bc01      	pop	{r0}
20000e18:	4760      	bx	ip
20000e1a:	bf00      	nop
20000e1c:	10002275 	.word	0x10002275

20000e20 <__panic_veneer>:
20000e20:	b401      	push	{r0}
20000e22:	4802      	ldr	r0, [pc, #8]	; (20000e2c <__panic_veneer+0xc>)
20000e24:	4684      	mov	ip, r0
20000e26:	bc01      	pop	{r0}
20000e28:	4760      	bx	ip
20000e2a:	bf00      	nop
20000e2c:	10001f75 	.word	0x10001f75

20000e30 <____wrap___aeabi_lmul_veneer>:
20000e30:	b401      	push	{r0}
20000e32:	4802      	ldr	r0, [pc, #8]	; (20000e3c <____wrap___aeabi_lmul_veneer+0xc>)
20000e34:	4684      	mov	ip, r0
20000e36:	bc01      	pop	{r0}
20000e38:	4760      	bx	ip
20000e3a:	bf00      	nop
20000e3c:	10002191 	.word	0x10002191

20000e40 <__best_effort_wfe_or_timeout_veneer>:
20000e40:	b401      	push	{r0}
20000e42:	4802      	ldr	r0, [pc, #8]	; (20000e4c <__best_effort_wfe_or_timeout_veneer+0xc>)
20000e44:	4684      	mov	ip, r0
20000e46:	bc01      	pop	{r0}
20000e48:	4760      	bx	ip
20000e4a:	bf00      	nop
20000e4c:	100010c5 	.word	0x100010c5

20000e50 <striped_spin_lock_num>:
20000e50:	00000010                                ....

20000e54 <irq_handler_chain_slots>:
20000e54:	00000000 	.word	0x00000000
20000e58:	00010000 	.word	0x00010000
	...
20000e64:	00020000 	.word	0x00020000
	...
20000e70:	00030000 	.word	0x00030000
	...
20000e7c:	00ff0000 	.word	0x00ff0000
20000e80:	00000000 	.word	0x00000000

20000e84 <irq_handler_chain_first_slot>:
20000e84:	b501      	push	{r0, lr}
20000e86:	6848      	ldr	r0, [r1, #4]
20000e88:	3101      	adds	r1, #1
20000e8a:	468e      	mov	lr, r1
20000e8c:	4700      	bx	r0

20000e8e <irq_handler_chain_remove_tail>:
20000e8e:	4670      	mov	r0, lr
20000e90:	3809      	subs	r0, #9
20000e92:	4901      	ldr	r1, [pc, #4]	; (20000e98 <irq_handler_chain_remove_tail+0xa>)
20000e94:	4788      	blx	r1
20000e96:	bd01      	pop	{r0, pc}
20000e98:	100008f1 	.word	0x100008f1

20000e9c <default_alarm_pool>:
20000e9c:	20000eb4 00000000 20000f50 2000153c     ... ....P.. <.. 
	...

20000eb4 <default_alarm_pool_heap>:
20000eb4:	2000154c 00000000 00000000 00000010     L.. ............
	...

20000ed0 <aeabi_bits_funcs>:
20000ed0:	00003350 	.word	0x00003350
20000ed4:	0000334c 	.word	0x0000334c
20000ed8:	00003354 	.word	0x00003354
20000edc:	00003352 	.word	0x00003352

20000ee0 <aeabi_bits_funcs_end>:
20000ee0:	0000534d 	.word	0x0000534d
20000ee4:	0000434d 	.word	0x0000434d
20000ee8:	00003453 	.word	0x00003453
20000eec:	00003443 	.word	0x00003443

20000ef0 <stdio_usb>:
20000ef0:	10002735 00000000 100026a5 1000262d     5'.......&..-&..
20000f00:	00000000 00000100                       ........

20000f08 <ep_dir_string>:
20000f08:	10004c38 10004c3c                       8L..<L..

20000f10 <_usbd_qdef>:
20000f10:	20001c18 000c0010 00000000 00000000     ... ............
	...

20000f2c <_usbd_rhport>:
20000f2c:	000000ff                                ....

20000f30 <print_mutex>:
	...

20000f38 <__mutex_array_end>:
20000f38:	10002259 	.word	0x10002259
20000f3c:	10001ff1 	.word	0x10001ff1
20000f40:	100020a9 	.word	0x100020a9
20000f44:	100021c5 	.word	0x100021c5

20000f48 <__frame_dummy_init_array_entry>:
20000f48:	10000331 10002a69                       1...i*..
